
C:/Users/ishar/Desktop/pico_dev/SRAM/pio/build/test1.elf:     file format elf32-littlearm

Sections:
Idx Name          Size      VMA       LMA       File off  Algn
  0 .text         000050f8  20000000  20000000  00001000  2**2
                  CONTENTS, ALLOC, LOAD, READONLY, CODE
  1 .rodata       000003d8  200050f8  200050f8  000060f8  2**2
                  CONTENTS, ALLOC, LOAD, READONLY, DATA
  2 .binary_info  00000018  200054d0  200054d0  000064d0  2**2
                  CONTENTS, ALLOC, LOAD, READONLY, DATA
  3 .data         0000010c  200054f0  200054f0  000064f0  2**4
                  CONTENTS, ALLOC, LOAD, DATA
  4 .tdata        00000000  200055fc  200055fc  000065fc  2**0
                  CONTENTS, ALLOC, LOAD, DATA, THREAD_LOCAL
  5 .uninitialized_data 00000000  200055fc  200055fc  000065fc  2**0
                  CONTENTS
  6 .tbss         00000000  200055fc  200055fc  00000000  2**0
                  ALLOC, THREAD_LOCAL
  7 .bss          00000dec  20005600  20005600  000065fc  2**3
                  ALLOC
  8 .heap         00000800  200063ec  200063ec  000065fc  2**2
                  ALLOC, READONLY
  9 .scratch_x    00000000  20040000  20040000  000065fc  2**0
                  CONTENTS
 10 .scratch_y    00000000  20041000  20041000  000065fc  2**0
                  CONTENTS
 11 .stack_dummy  00000800  20041000  20041000  00007000  2**5
                  ALLOC, READONLY
 12 .debug_info   00032378  00000000  00000000  000065fc  2**0
                  CONTENTS, READONLY, DEBUGGING, OCTETS
 13 .debug_abbrev 00008b7b  00000000  00000000  00038974  2**0
                  CONTENTS, READONLY, DEBUGGING, OCTETS
 14 .debug_loclists 0001bc40  00000000  00000000  000414ef  2**0
                  CONTENTS, READONLY, DEBUGGING, OCTETS
 15 .debug_aranges 000016d0  00000000  00000000  0005d130  2**3
                  CONTENTS, READONLY, DEBUGGING, OCTETS
 16 .debug_rnglists 000046bc  00000000  00000000  0005e800  2**0
                  CONTENTS, READONLY, DEBUGGING, OCTETS
 17 .debug_line   000251e3  00000000  00000000  00062ebc  2**0
                  CONTENTS, READONLY, DEBUGGING, OCTETS
 18 .debug_str    00008ceb  00000000  00000000  0008809f  2**0
                  CONTENTS, READONLY, DEBUGGING, OCTETS
 19 .comment      00000045  00000000  00000000  00090d8a  2**0
                  CONTENTS, READONLY
 20 .ARM.attributes 0000002a  00000000  00000000  00090dcf  2**0
                  CONTENTS, READONLY
 21 .debug_frame  00002ffc  00000000  00000000  00090dfc  2**2
                  CONTENTS, READONLY, DEBUGGING, OCTETS
 22 .debug_line_str 00000364  00000000  00000000  00093df8  2**0
                  CONTENTS, READONLY, DEBUGGING, OCTETS

C:/Users/ishar/Desktop/pico_dev/SRAM/pio/build/test1.elf:     file format elf32-littlearm


Disassembly of section .text:

20000000 <_entry_point>:
20000000:	4818      	ldr	r0, [pc, #96]	@ (20000064 <data_cpy_table+0x2c>)

20000002 <_enter_vtable_in_r0>:
20000002:	4919      	ldr	r1, [pc, #100]	@ (20000068 <data_cpy_table+0x30>)
20000004:	6008      	str	r0, [r1, #0]
20000006:	c806      	ldmia	r0!, {r1, r2}
20000008:	f381 8808 	msr	MSP, r1
2000000c:	4710      	bx	r2

2000000e <_reset_handler>:
2000000e:	4817      	ldr	r0, [pc, #92]	@ (2000006c <data_cpy_table+0x34>)
20000010:	6800      	ldr	r0, [r0, #0]
20000012:	2800      	cmp	r0, #0
20000014:	d001      	beq.n	2000001a <hold_non_core0_in_bootrom+0x4>

20000016 <hold_non_core0_in_bootrom>:
20000016:	4816      	ldr	r0, [pc, #88]	@ (20000070 <data_cpy_table+0x38>)
20000018:	e7f3      	b.n	20000002 <_enter_vtable_in_r0>
2000001a:	4916      	ldr	r1, [pc, #88]	@ (20000074 <data_cpy_table+0x3c>)
2000001c:	4a16      	ldr	r2, [pc, #88]	@ (20000078 <data_cpy_table+0x40>)
2000001e:	2000      	movs	r0, #0
20000020:	e000      	b.n	20000024 <bss_fill_test>

20000022 <bss_fill_loop>:
20000022:	c101      	stmia	r1!, {r0}

20000024 <bss_fill_test>:
20000024:	4291      	cmp	r1, r2
20000026:	d1fc      	bne.n	20000022 <bss_fill_loop>

20000028 <platform_entry>:
20000028:	4914      	ldr	r1, [pc, #80]	@ (2000007c <data_cpy_table+0x44>)
2000002a:	4788      	blx	r1
2000002c:	4914      	ldr	r1, [pc, #80]	@ (20000080 <data_cpy_table+0x48>)
2000002e:	4788      	blx	r1
20000030:	4914      	ldr	r1, [pc, #80]	@ (20000084 <data_cpy_table+0x4c>)
20000032:	4788      	blx	r1
20000034:	be00      	bkpt	0x0000
20000036:	e7fd      	b.n	20000034 <platform_entry+0xc>

20000038 <data_cpy_table>:
20000038:	200054f0 	.word	0x200054f0
2000003c:	200054f0 	.word	0x200054f0
20000040:	200055fc 	.word	0x200055fc
20000044:	20040000 	.word	0x20040000
20000048:	20040000 	.word	0x20040000
2000004c:	20040000 	.word	0x20040000
20000050:	20041000 	.word	0x20041000
20000054:	20041000 	.word	0x20041000
20000058:	20041000 	.word	0x20041000
2000005c:	00000000 	.word	0x00000000
20000060:	4770      	bx	lr
20000062:	0000      	.short	0x0000
20000064:	20000100 	.word	0x20000100
20000068:	e000ed08 	.word	0xe000ed08
2000006c:	d0000000 	.word	0xd0000000
20000070:	00000000 	.word	0x00000000
20000074:	200055fc 	.word	0x200055fc
20000078:	200063ec 	.word	0x200063ec
2000007c:	20002429 	.word	0x20002429
20000080:	20000e4d 	.word	0x20000e4d
20000084:	20002421 	.word	0x20002421

20000088 <__bi_54>:
20000088:	50520006 5360b3ab 20005194              ..RP..`S.Q. 

20000094 <__bi_42>:
20000094:	50520006 02031c86 200051a4              ..RP.....Q. 

200000a0 <__bi_34>:
200000a0:	50520006 9da22254 200051ac              ..RPT"...Q. 

200000ac <binary_info_header>:
200000ac:	7188ebf2 	.word	0x7188ebf2
200000b0:	200054d0 	.word	0x200054d0
200000b4:	200054e8 	.word	0x200054e8
200000b8:	20000038 	.word	0x20000038
200000bc:	e71aa390 	.word	0xe71aa390

200000c0 <__binary_info_header_end>:
	...

20000100 <__VECTOR_TABLE>:
20000100:	20042000 	.word	0x20042000
20000104:	2000000f 	.word	0x2000000f
20000108:	200001cb 	.word	0x200001cb
2000010c:	200001cd 	.word	0x200001cd
20000110:	200001c9 	.word	0x200001c9
20000114:	200001c9 	.word	0x200001c9
20000118:	200001c9 	.word	0x200001c9
2000011c:	200001c9 	.word	0x200001c9
20000120:	200001c9 	.word	0x200001c9
20000124:	200001c9 	.word	0x200001c9
20000128:	200001c9 	.word	0x200001c9
2000012c:	200001cf 	.word	0x200001cf
20000130:	200001c9 	.word	0x200001c9
20000134:	200001c9 	.word	0x200001c9
20000138:	200001d1 	.word	0x200001d1
2000013c:	200001d3 	.word	0x200001d3
20000140:	200001c1 	.word	0x200001c1
20000144:	200001c1 	.word	0x200001c1
20000148:	200001c1 	.word	0x200001c1
2000014c:	200001c1 	.word	0x200001c1
20000150:	200001c1 	.word	0x200001c1
20000154:	200001c1 	.word	0x200001c1
20000158:	200001c1 	.word	0x200001c1
2000015c:	200001c1 	.word	0x200001c1
20000160:	200001c1 	.word	0x200001c1
20000164:	200001c1 	.word	0x200001c1
20000168:	200001c1 	.word	0x200001c1
2000016c:	200001c1 	.word	0x200001c1
20000170:	200001c1 	.word	0x200001c1
20000174:	200001c1 	.word	0x200001c1
20000178:	200001c1 	.word	0x200001c1
2000017c:	200001c1 	.word	0x200001c1
20000180:	200001c1 	.word	0x200001c1
20000184:	200001c1 	.word	0x200001c1
20000188:	200001c1 	.word	0x200001c1
2000018c:	200001c1 	.word	0x200001c1
20000190:	200001c1 	.word	0x200001c1
20000194:	200001c1 	.word	0x200001c1
20000198:	200001c1 	.word	0x200001c1
2000019c:	200001c1 	.word	0x200001c1
200001a0:	200001c1 	.word	0x200001c1
200001a4:	200001c1 	.word	0x200001c1
200001a8:	200001c1 	.word	0x200001c1
200001ac:	200001c1 	.word	0x200001c1
200001b0:	200001c1 	.word	0x200001c1
200001b4:	200001c1 	.word	0x200001c1
200001b8:	200001c1 	.word	0x200001c1
200001bc:	200001c1 	.word	0x200001c1

200001c0 <__unhandled_user_irq>:
200001c0:	f3ef 8005 	mrs	r0, IPSR
200001c4:	3810      	subs	r0, #16

200001c6 <unhandled_user_irq_num_in_r0>:
200001c6:	be00      	bkpt	0x0000

200001c8 <isr_invalid>:
200001c8:	be00      	bkpt	0x0000

200001ca <isr_nmi>:
200001ca:	be00      	bkpt	0x0000

200001cc <isr_hardfault>:
200001cc:	be00      	bkpt	0x0000

200001ce <isr_svcall>:
200001ce:	be00      	bkpt	0x0000

200001d0 <isr_pendsv>:
200001d0:	be00      	bkpt	0x0000

200001d2 <isr_systick>:
200001d2:	be00      	bkpt	0x0000

200001d4 <mutex_try_enter>:
200001d4:	0003      	movs	r3, r0
200001d6:	6800      	ldr	r0, [r0, #0]
200001d8:	f3ef 8c10 	mrs	ip, PRIMASK
200001dc:	b672      	cpsid	i
200001de:	6802      	ldr	r2, [r0, #0]
200001e0:	2a00      	cmp	r2, #0
200001e2:	d0fc      	beq.n	200001de <mutex_try_enter+0xa>
200001e4:	f3bf 8f5f 	dmb	sy
200001e8:	2204      	movs	r2, #4
200001ea:	569a      	ldrsb	r2, [r3, r2]
200001ec:	2a00      	cmp	r2, #0
200001ee:	db0b      	blt.n	20000208 <mutex_try_enter+0x34>
200001f0:	2900      	cmp	r1, #0
200001f2:	d000      	beq.n	200001f6 <mutex_try_enter+0x22>
200001f4:	600a      	str	r2, [r1, #0]
200001f6:	2000      	movs	r0, #0
200001f8:	681b      	ldr	r3, [r3, #0]
200001fa:	f3bf 8f5f 	dmb	sy
200001fe:	2200      	movs	r2, #0
20000200:	601a      	str	r2, [r3, #0]
20000202:	f38c 8810 	msr	PRIMASK, ip
20000206:	4770      	bx	lr
20000208:	22d0      	movs	r2, #208	@ 0xd0
2000020a:	0612      	lsls	r2, r2, #24
2000020c:	6812      	ldr	r2, [r2, #0]
2000020e:	2001      	movs	r0, #1
20000210:	711a      	strb	r2, [r3, #4]
20000212:	e7f1      	b.n	200001f8 <mutex_try_enter+0x24>

20000214 <mutex_try_enter_block_until>:
20000214:	b5f0      	push	{r4, r5, r6, r7, lr}
20000216:	46c6      	mov	lr, r8
20000218:	0016      	movs	r6, r2
2000021a:	b500      	push	{lr}
2000021c:	0004      	movs	r4, r0
2000021e:	001f      	movs	r7, r3
20000220:	6802      	ldr	r2, [r0, #0]
20000222:	f3ef 8110 	mrs	r1, PRIMASK
20000226:	b672      	cpsid	i
20000228:	6813      	ldr	r3, [r2, #0]
2000022a:	2b00      	cmp	r3, #0
2000022c:	d0fc      	beq.n	20000228 <mutex_try_enter_block_until+0x14>
2000022e:	f3bf 8f5f 	dmb	sy
20000232:	2304      	movs	r3, #4
20000234:	56e3      	ldrsb	r3, [r4, r3]
20000236:	6822      	ldr	r2, [r4, #0]
20000238:	2b00      	cmp	r3, #0
2000023a:	db2b      	blt.n	20000294 <mutex_try_enter_block_until+0x80>
2000023c:	f3bf 8f5f 	dmb	sy
20000240:	2000      	movs	r0, #0
20000242:	6010      	str	r0, [r2, #0]
20000244:	f381 8810 	msr	PRIMASK, r1
20000248:	22d0      	movs	r2, #208	@ 0xd0
2000024a:	0612      	lsls	r2, r2, #24
2000024c:	7812      	ldrb	r2, [r2, #0]
2000024e:	2500      	movs	r5, #0
20000250:	b252      	sxtb	r2, r2
20000252:	4690      	mov	r8, r2
20000254:	429a      	cmp	r2, r3
20000256:	d10e      	bne.n	20000276 <mutex_try_enter_block_until+0x62>
20000258:	2000      	movs	r0, #0
2000025a:	bc80      	pop	{r7}
2000025c:	46b8      	mov	r8, r7
2000025e:	bdf0      	pop	{r4, r5, r6, r7, pc}
20000260:	f3bf 8f5f 	dmb	sy
20000264:	6015      	str	r5, [r2, #0]
20000266:	f381 8810 	msr	PRIMASK, r1
2000026a:	0030      	movs	r0, r6
2000026c:	0039      	movs	r1, r7
2000026e:	f001 fc4f 	bl	20001b10 <best_effort_wfe_or_timeout>
20000272:	2800      	cmp	r0, #0
20000274:	d1f0      	bne.n	20000258 <mutex_try_enter_block_until+0x44>
20000276:	6822      	ldr	r2, [r4, #0]
20000278:	f3ef 8110 	mrs	r1, PRIMASK
2000027c:	b672      	cpsid	i
2000027e:	6813      	ldr	r3, [r2, #0]
20000280:	2b00      	cmp	r3, #0
20000282:	d0fc      	beq.n	2000027e <mutex_try_enter_block_until+0x6a>
20000284:	f3bf 8f5f 	dmb	sy
20000288:	7923      	ldrb	r3, [r4, #4]
2000028a:	6822      	ldr	r2, [r4, #0]
2000028c:	2b7f      	cmp	r3, #127	@ 0x7f
2000028e:	d9e7      	bls.n	20000260 <mutex_try_enter_block_until+0x4c>
20000290:	4643      	mov	r3, r8
20000292:	e002      	b.n	2000029a <mutex_try_enter_block_until+0x86>
20000294:	23d0      	movs	r3, #208	@ 0xd0
20000296:	061b      	lsls	r3, r3, #24
20000298:	681b      	ldr	r3, [r3, #0]
2000029a:	7123      	strb	r3, [r4, #4]
2000029c:	f3bf 8f5f 	dmb	sy
200002a0:	2300      	movs	r3, #0
200002a2:	6013      	str	r3, [r2, #0]
200002a4:	f381 8810 	msr	PRIMASK, r1
200002a8:	2001      	movs	r0, #1
200002aa:	e7d6      	b.n	2000025a <mutex_try_enter_block_until+0x46>

200002ac <mutex_enter_timeout_ms>:
200002ac:	b5f0      	push	{r4, r5, r6, r7, lr}
200002ae:	46c6      	mov	lr, r8
200002b0:	b500      	push	{lr}
200002b2:	000f      	movs	r7, r1
200002b4:	0004      	movs	r4, r0
200002b6:	f001 fcbd 	bl	20001c34 <time_us_64>
200002ba:	22fa      	movs	r2, #250	@ 0xfa
200002bc:	000e      	movs	r6, r1
200002be:	0005      	movs	r5, r0
200002c0:	2300      	movs	r3, #0
200002c2:	0038      	movs	r0, r7
200002c4:	2100      	movs	r1, #0
200002c6:	0092      	lsls	r2, r2, #2
200002c8:	f002 f810 	bl	200022ec <__wrap___aeabi_lmul>
200002cc:	1940      	adds	r0, r0, r5
200002ce:	4171      	adcs	r1, r6
200002d0:	0006      	movs	r6, r0
200002d2:	1e0f      	subs	r7, r1, #0
200002d4:	da02      	bge.n	200002dc <mutex_enter_timeout_ms+0x30>
200002d6:	2601      	movs	r6, #1
200002d8:	4f16      	ldr	r7, [pc, #88]	@ (20000334 <mutex_enter_timeout_ms+0x88>)
200002da:	4276      	negs	r6, r6
200002dc:	23d0      	movs	r3, #208	@ 0xd0
200002de:	061b      	lsls	r3, r3, #24
200002e0:	681b      	ldr	r3, [r3, #0]
200002e2:	2500      	movs	r5, #0
200002e4:	4698      	mov	r8, r3
200002e6:	e00a      	b.n	200002fe <mutex_enter_timeout_ms+0x52>
200002e8:	f3bf 8f5f 	dmb	sy
200002ec:	6015      	str	r5, [r2, #0]
200002ee:	f381 8810 	msr	PRIMASK, r1
200002f2:	0030      	movs	r0, r6
200002f4:	0039      	movs	r1, r7
200002f6:	f001 fc0b 	bl	20001b10 <best_effort_wfe_or_timeout>
200002fa:	2800      	cmp	r0, #0
200002fc:	d118      	bne.n	20000330 <mutex_enter_timeout_ms+0x84>
200002fe:	6822      	ldr	r2, [r4, #0]
20000300:	f3ef 8110 	mrs	r1, PRIMASK
20000304:	b672      	cpsid	i
20000306:	6813      	ldr	r3, [r2, #0]
20000308:	2b00      	cmp	r3, #0
2000030a:	d0fc      	beq.n	20000306 <mutex_enter_timeout_ms+0x5a>
2000030c:	f3bf 8f5f 	dmb	sy
20000310:	7923      	ldrb	r3, [r4, #4]
20000312:	6822      	ldr	r2, [r4, #0]
20000314:	2b7f      	cmp	r3, #127	@ 0x7f
20000316:	d9e7      	bls.n	200002e8 <mutex_enter_timeout_ms+0x3c>
20000318:	4643      	mov	r3, r8
2000031a:	7123      	strb	r3, [r4, #4]
2000031c:	f3bf 8f5f 	dmb	sy
20000320:	2300      	movs	r3, #0
20000322:	6013      	str	r3, [r2, #0]
20000324:	f381 8810 	msr	PRIMASK, r1
20000328:	2001      	movs	r0, #1
2000032a:	bc80      	pop	{r7}
2000032c:	46b8      	mov	r8, r7
2000032e:	bdf0      	pop	{r4, r5, r6, r7, pc}
20000330:	2000      	movs	r0, #0
20000332:	e7fa      	b.n	2000032a <mutex_enter_timeout_ms+0x7e>
20000334:	7fffffff 	.word	0x7fffffff

20000338 <mutex_exit>:
20000338:	6802      	ldr	r2, [r0, #0]
2000033a:	f3ef 8110 	mrs	r1, PRIMASK
2000033e:	b672      	cpsid	i
20000340:	6813      	ldr	r3, [r2, #0]
20000342:	2b00      	cmp	r3, #0
20000344:	d0fc      	beq.n	20000340 <mutex_exit+0x8>
20000346:	f3bf 8f5f 	dmb	sy
2000034a:	23ff      	movs	r3, #255	@ 0xff
2000034c:	7103      	strb	r3, [r0, #4]
2000034e:	6803      	ldr	r3, [r0, #0]
20000350:	f3bf 8f5f 	dmb	sy
20000354:	2200      	movs	r2, #0
20000356:	601a      	str	r2, [r3, #0]
20000358:	f381 8810 	msr	PRIMASK, r1
2000035c:	bf40      	sev
2000035e:	4770      	bx	lr

20000360 <reset_non_control_endpoints>:
20000360:	2200      	movs	r2, #0
20000362:	4b15      	ldr	r3, [pc, #84]	@ (200003b8 <reset_non_control_endpoints+0x58>)
20000364:	b510      	push	{r4, lr}
20000366:	609a      	str	r2, [r3, #8]
20000368:	60da      	str	r2, [r3, #12]
2000036a:	611a      	str	r2, [r3, #16]
2000036c:	615a      	str	r2, [r3, #20]
2000036e:	619a      	str	r2, [r3, #24]
20000370:	61da      	str	r2, [r3, #28]
20000372:	621a      	str	r2, [r3, #32]
20000374:	625a      	str	r2, [r3, #36]	@ 0x24
20000376:	629a      	str	r2, [r3, #40]	@ 0x28
20000378:	62da      	str	r2, [r3, #44]	@ 0x2c
2000037a:	631a      	str	r2, [r3, #48]	@ 0x30
2000037c:	635a      	str	r2, [r3, #52]	@ 0x34
2000037e:	639a      	str	r2, [r3, #56]	@ 0x38
20000380:	63da      	str	r2, [r3, #60]	@ 0x3c
20000382:	641a      	str	r2, [r3, #64]	@ 0x40
20000384:	645a      	str	r2, [r3, #68]	@ 0x44
20000386:	649a      	str	r2, [r3, #72]	@ 0x48
20000388:	64da      	str	r2, [r3, #76]	@ 0x4c
2000038a:	651a      	str	r2, [r3, #80]	@ 0x50
2000038c:	655a      	str	r2, [r3, #84]	@ 0x54
2000038e:	659a      	str	r2, [r3, #88]	@ 0x58
20000390:	65da      	str	r2, [r3, #92]	@ 0x5c
20000392:	661a      	str	r2, [r3, #96]	@ 0x60
20000394:	665a      	str	r2, [r3, #100]	@ 0x64
20000396:	669a      	str	r2, [r3, #104]	@ 0x68
20000398:	66da      	str	r2, [r3, #108]	@ 0x6c
2000039a:	671a      	str	r2, [r3, #112]	@ 0x70
2000039c:	675a      	str	r2, [r3, #116]	@ 0x74
2000039e:	679a      	str	r2, [r3, #120]	@ 0x78
200003a0:	67da      	str	r2, [r3, #124]	@ 0x7c
200003a2:	32f0      	adds	r2, #240	@ 0xf0
200003a4:	0092      	lsls	r2, r2, #2
200003a6:	2100      	movs	r1, #0
200003a8:	4804      	ldr	r0, [pc, #16]	@ (200003bc <reset_non_control_endpoints+0x5c>)
200003aa:	f002 f80b 	bl	200023c4 <__wrap_memset>
200003ae:	4b04      	ldr	r3, [pc, #16]	@ (200003c0 <reset_non_control_endpoints+0x60>)
200003b0:	4a04      	ldr	r2, [pc, #16]	@ (200003c4 <reset_non_control_endpoints+0x64>)
200003b2:	601a      	str	r2, [r3, #0]
200003b4:	bd10      	pop	{r4, pc}
200003b6:	46c0      	nop			@ (mov r8, r8)
200003b8:	50100000 	.word	0x50100000
200003bc:	20005fd4 	.word	0x20005fd4
200003c0:	2000639c 	.word	0x2000639c
200003c4:	50100180 	.word	0x50100180

200003c8 <hw_handle_buff_status>:
200003c8:	b5f0      	push	{r4, r5, r6, r7, lr}
200003ca:	4647      	mov	r7, r8
200003cc:	46ce      	mov	lr, r9
200003ce:	b580      	push	{r7, lr}
200003d0:	4b1c      	ldr	r3, [pc, #112]	@ (20000444 <hw_handle_buff_status+0x7c>)
200003d2:	2400      	movs	r4, #0
200003d4:	6d9f      	ldr	r7, [r3, #88]	@ 0x58
200003d6:	2601      	movs	r6, #1
200003d8:	b085      	sub	sp, #20
200003da:	2f00      	cmp	r7, #0
200003dc:	d01b      	beq.n	20000416 <hw_handle_buff_status+0x4e>
200003de:	4b1a      	ldr	r3, [pc, #104]	@ (20000448 <hw_handle_buff_status+0x80>)
200003e0:	4698      	mov	r8, r3
200003e2:	4b1a      	ldr	r3, [pc, #104]	@ (2000044c <hw_handle_buff_status+0x84>)
200003e4:	4699      	mov	r9, r3
200003e6:	e004      	b.n	200003f2 <hw_handle_buff_status+0x2a>
200003e8:	3401      	adds	r4, #1
200003ea:	b2e4      	uxtb	r4, r4
200003ec:	0076      	lsls	r6, r6, #1
200003ee:	2c20      	cmp	r4, #32
200003f0:	d011      	beq.n	20000416 <hw_handle_buff_status+0x4e>
200003f2:	423e      	tst	r6, r7
200003f4:	d0f8      	beq.n	200003e8 <hw_handle_buff_status+0x20>
200003f6:	4643      	mov	r3, r8
200003f8:	659e      	str	r6, [r3, #88]	@ 0x58
200003fa:	2301      	movs	r3, #1
200003fc:	0865      	lsrs	r5, r4, #1
200003fe:	006d      	lsls	r5, r5, #1
20000400:	43a3      	bics	r3, r4
20000402:	18ed      	adds	r5, r5, r3
20000404:	016d      	lsls	r5, r5, #5
20000406:	444d      	add	r5, r9
20000408:	0028      	movs	r0, r5
2000040a:	f000 fc13 	bl	20000c34 <hw_endpoint_xfer_continue>
2000040e:	2800      	cmp	r0, #0
20000410:	d106      	bne.n	20000420 <hw_handle_buff_status+0x58>
20000412:	43b7      	bics	r7, r6
20000414:	d1e8      	bne.n	200003e8 <hw_handle_buff_status+0x20>
20000416:	b005      	add	sp, #20
20000418:	bcc0      	pop	{r6, r7}
2000041a:	46b9      	mov	r9, r7
2000041c:	46b0      	mov	r8, r6
2000041e:	bdf0      	pop	{r4, r5, r6, r7, pc}
20000420:	8aeb      	ldrh	r3, [r5, #22]
20000422:	21e0      	movs	r1, #224	@ 0xe0
20000424:	9303      	str	r3, [sp, #12]
20000426:	2300      	movs	r3, #0
20000428:	a801      	add	r0, sp, #4
2000042a:	78aa      	ldrb	r2, [r5, #2]
2000042c:	00c9      	lsls	r1, r1, #3
2000042e:	8001      	strh	r1, [r0, #0]
20000430:	2101      	movs	r1, #1
20000432:	7102      	strb	r2, [r0, #4]
20000434:	7143      	strb	r3, [r0, #5]
20000436:	f000 fc1d 	bl	20000c74 <dcd_event_handler>
2000043a:	0028      	movs	r0, r5
2000043c:	f000 fb98 	bl	20000b70 <hw_endpoint_reset_transfer>
20000440:	e7e7      	b.n	20000412 <hw_handle_buff_status+0x4a>
20000442:	46c0      	nop			@ (mov r8, r8)
20000444:	50110000 	.word	0x50110000
20000448:	50113000 	.word	0x50113000
2000044c:	20005f94 	.word	0x20005f94

20000450 <dcd_rp2040_irq>:
20000450:	2398      	movs	r3, #152	@ 0x98
20000452:	4ac6      	ldr	r2, [pc, #792]	@ (2000076c <dcd_rp2040_irq+0x31c>)
20000454:	b5f0      	push	{r4, r5, r6, r7, lr}
20000456:	58d5      	ldr	r5, [r2, r3]
20000458:	2380      	movs	r3, #128	@ 0x80
2000045a:	002e      	movs	r6, r5
2000045c:	029b      	lsls	r3, r3, #10
2000045e:	2410      	movs	r4, #16
20000460:	b085      	sub	sp, #20
20000462:	401e      	ands	r6, r3
20000464:	421d      	tst	r5, r3
20000466:	d074      	beq.n	20000552 <dcd_rp2040_irq+0x102>
20000468:	4bc1      	ldr	r3, [pc, #772]	@ (20000770 <dcd_rp2040_irq+0x320>)
2000046a:	4cc2      	ldr	r4, [pc, #776]	@ (20000774 <dcd_rp2040_irq+0x324>)
2000046c:	6a9a      	ldr	r2, [r3, #40]	@ 0x28
2000046e:	4bc2      	ldr	r3, [pc, #776]	@ (20000778 <dcd_rp2040_irq+0x328>)
20000470:	2600      	movs	r6, #0
20000472:	601a      	str	r2, [r3, #0]
20000474:	233b      	movs	r3, #59	@ 0x3b
20000476:	5ce3      	ldrb	r3, [r4, r3]
20000478:	2b02      	cmp	r3, #2
2000047a:	d100      	bne.n	2000047e <dcd_rp2040_irq+0x2e>
2000047c:	e14b      	b.n	20000716 <dcd_rp2040_irq+0x2c6>
2000047e:	237b      	movs	r3, #123	@ 0x7b
20000480:	5ce3      	ldrb	r3, [r4, r3]
20000482:	2b02      	cmp	r3, #2
20000484:	d100      	bne.n	20000488 <dcd_rp2040_irq+0x38>
20000486:	e0ef      	b.n	20000668 <dcd_rp2040_irq+0x218>
20000488:	23bb      	movs	r3, #187	@ 0xbb
2000048a:	5ce3      	ldrb	r3, [r4, r3]
2000048c:	2b02      	cmp	r3, #2
2000048e:	d100      	bne.n	20000492 <dcd_rp2040_irq+0x42>
20000490:	e0f6      	b.n	20000680 <dcd_rp2040_irq+0x230>
20000492:	23fb      	movs	r3, #251	@ 0xfb
20000494:	5ce3      	ldrb	r3, [r4, r3]
20000496:	2b02      	cmp	r3, #2
20000498:	d100      	bne.n	2000049c <dcd_rp2040_irq+0x4c>
2000049a:	e0fd      	b.n	20000698 <dcd_rp2040_irq+0x248>
2000049c:	233c      	movs	r3, #60	@ 0x3c
2000049e:	33ff      	adds	r3, #255	@ 0xff
200004a0:	5ce3      	ldrb	r3, [r4, r3]
200004a2:	2b02      	cmp	r3, #2
200004a4:	d100      	bne.n	200004a8 <dcd_rp2040_irq+0x58>
200004a6:	e129      	b.n	200006fc <dcd_rp2040_irq+0x2ac>
200004a8:	237c      	movs	r3, #124	@ 0x7c
200004aa:	33ff      	adds	r3, #255	@ 0xff
200004ac:	5ce3      	ldrb	r3, [r4, r3]
200004ae:	2b02      	cmp	r3, #2
200004b0:	d100      	bne.n	200004b4 <dcd_rp2040_irq+0x64>
200004b2:	e10a      	b.n	200006ca <dcd_rp2040_irq+0x27a>
200004b4:	23bc      	movs	r3, #188	@ 0xbc
200004b6:	33ff      	adds	r3, #255	@ 0xff
200004b8:	5ce3      	ldrb	r3, [r4, r3]
200004ba:	2b02      	cmp	r3, #2
200004bc:	d100      	bne.n	200004c0 <dcd_rp2040_irq+0x70>
200004be:	e13b      	b.n	20000738 <dcd_rp2040_irq+0x2e8>
200004c0:	23fc      	movs	r3, #252	@ 0xfc
200004c2:	33ff      	adds	r3, #255	@ 0xff
200004c4:	5ce3      	ldrb	r3, [r4, r3]
200004c6:	2b02      	cmp	r3, #2
200004c8:	d100      	bne.n	200004cc <dcd_rp2040_irq+0x7c>
200004ca:	e0f1      	b.n	200006b0 <dcd_rp2040_irq+0x260>
200004cc:	4bab      	ldr	r3, [pc, #684]	@ (2000077c <dcd_rp2040_irq+0x32c>)
200004ce:	5ce3      	ldrb	r3, [r4, r3]
200004d0:	2b02      	cmp	r3, #2
200004d2:	d100      	bne.n	200004d6 <dcd_rp2040_irq+0x86>
200004d4:	e170      	b.n	200007b8 <dcd_rp2040_irq+0x368>
200004d6:	4baa      	ldr	r3, [pc, #680]	@ (20000780 <dcd_rp2040_irq+0x330>)
200004d8:	5ce3      	ldrb	r3, [r4, r3]
200004da:	2b02      	cmp	r3, #2
200004dc:	d100      	bne.n	200004e0 <dcd_rp2040_irq+0x90>
200004de:	e101      	b.n	200006e4 <dcd_rp2040_irq+0x294>
200004e0:	4ba8      	ldr	r3, [pc, #672]	@ (20000784 <dcd_rp2040_irq+0x334>)
200004e2:	5ce3      	ldrb	r3, [r4, r3]
200004e4:	2b02      	cmp	r3, #2
200004e6:	d100      	bne.n	200004ea <dcd_rp2040_irq+0x9a>
200004e8:	e171      	b.n	200007ce <dcd_rp2040_irq+0x37e>
200004ea:	4ba7      	ldr	r3, [pc, #668]	@ (20000788 <dcd_rp2040_irq+0x338>)
200004ec:	5ce3      	ldrb	r3, [r4, r3]
200004ee:	2b02      	cmp	r3, #2
200004f0:	d100      	bne.n	200004f4 <dcd_rp2040_irq+0xa4>
200004f2:	e12e      	b.n	20000752 <dcd_rp2040_irq+0x302>
200004f4:	4ba5      	ldr	r3, [pc, #660]	@ (2000078c <dcd_rp2040_irq+0x33c>)
200004f6:	5ce3      	ldrb	r3, [r4, r3]
200004f8:	2b02      	cmp	r3, #2
200004fa:	d100      	bne.n	200004fe <dcd_rp2040_irq+0xae>
200004fc:	e19c      	b.n	20000838 <dcd_rp2040_irq+0x3e8>
200004fe:	4ba4      	ldr	r3, [pc, #656]	@ (20000790 <dcd_rp2040_irq+0x340>)
20000500:	5ce3      	ldrb	r3, [r4, r3]
20000502:	2b02      	cmp	r3, #2
20000504:	d100      	bne.n	20000508 <dcd_rp2040_irq+0xb8>
20000506:	e16d      	b.n	200007e4 <dcd_rp2040_irq+0x394>
20000508:	4ba2      	ldr	r3, [pc, #648]	@ (20000794 <dcd_rp2040_irq+0x344>)
2000050a:	5ce3      	ldrb	r3, [r4, r3]
2000050c:	2b02      	cmp	r3, #2
2000050e:	d100      	bne.n	20000512 <dcd_rp2040_irq+0xc2>
20000510:	e19d      	b.n	2000084e <dcd_rp2040_irq+0x3fe>
20000512:	4ba1      	ldr	r3, [pc, #644]	@ (20000798 <dcd_rp2040_irq+0x348>)
20000514:	5ce3      	ldrb	r3, [r4, r3]
20000516:	2b02      	cmp	r3, #2
20000518:	d100      	bne.n	2000051c <dcd_rp2040_irq+0xcc>
2000051a:	e17b      	b.n	20000814 <dcd_rp2040_irq+0x3c4>
2000051c:	2e00      	cmp	r6, #0
2000051e:	d108      	bne.n	20000532 <dcd_rp2040_irq+0xe2>
20000520:	4b9e      	ldr	r3, [pc, #632]	@ (2000079c <dcd_rp2040_irq+0x34c>)
20000522:	781b      	ldrb	r3, [r3, #0]
20000524:	2b00      	cmp	r3, #0
20000526:	d104      	bne.n	20000532 <dcd_rp2040_irq+0xe2>
20000528:	2180      	movs	r1, #128	@ 0x80
2000052a:	4a9d      	ldr	r2, [pc, #628]	@ (200007a0 <dcd_rp2040_irq+0x350>)
2000052c:	3390      	adds	r3, #144	@ 0x90
2000052e:	0289      	lsls	r1, r1, #10
20000530:	50d1      	str	r1, [r2, r3]
20000532:	22c0      	movs	r2, #192	@ 0xc0
20000534:	4669      	mov	r1, sp
20000536:	4b8d      	ldr	r3, [pc, #564]	@ (2000076c <dcd_rp2040_irq+0x31c>)
20000538:	0092      	lsls	r2, r2, #2
2000053a:	6c9b      	ldr	r3, [r3, #72]	@ 0x48
2000053c:	2680      	movs	r6, #128	@ 0x80
2000053e:	055b      	lsls	r3, r3, #21
20000540:	808a      	strh	r2, [r1, #4]
20000542:	0d5b      	lsrs	r3, r3, #21
20000544:	2101      	movs	r1, #1
20000546:	a801      	add	r0, sp, #4
20000548:	9302      	str	r3, [sp, #8]
2000054a:	f000 fb93 	bl	20000c74 <dcd_event_handler>
2000054e:	4c95      	ldr	r4, [pc, #596]	@ (200007a4 <dcd_rp2040_irq+0x354>)
20000550:	02b6      	lsls	r6, r6, #10
20000552:	06eb      	lsls	r3, r5, #27
20000554:	d500      	bpl.n	20000558 <dcd_rp2040_irq+0x108>
20000556:	e07b      	b.n	20000650 <dcd_rp2040_irq+0x200>
20000558:	2380      	movs	r3, #128	@ 0x80
2000055a:	025b      	lsls	r3, r3, #9
2000055c:	421d      	tst	r5, r3
2000055e:	d02f      	beq.n	200005c0 <dcd_rp2040_irq+0x170>
20000560:	2402      	movs	r4, #2
20000562:	4f84      	ldr	r7, [pc, #528]	@ (20000774 <dcd_rp2040_irq+0x324>)
20000564:	431e      	orrs	r6, r3
20000566:	7ebb      	ldrb	r3, [r7, #26]
20000568:	2b00      	cmp	r3, #0
2000056a:	d014      	beq.n	20000596 <dcd_rp2040_irq+0x146>
2000056c:	f000 fcd6 	bl	20000f1c <rp2040_chip_version>
20000570:	2801      	cmp	r0, #1
20000572:	d900      	bls.n	20000576 <dcd_rp2040_irq+0x126>
20000574:	e070      	b.n	20000658 <dcd_rp2040_irq+0x208>
20000576:	22c0      	movs	r2, #192	@ 0xc0
20000578:	2100      	movs	r1, #0
2000057a:	0038      	movs	r0, r7
2000057c:	0192      	lsls	r2, r2, #6
2000057e:	f000 fafd 	bl	20000b7c <_hw_endpoint_buffer_control_update32>
20000582:	0038      	movs	r0, r7
20000584:	f000 faf4 	bl	20000b70 <hw_endpoint_reset_transfer>
20000588:	f000 fcc8 	bl	20000f1c <rp2040_chip_version>
2000058c:	2801      	cmp	r0, #1
2000058e:	d902      	bls.n	20000596 <dcd_rp2040_irq+0x146>
20000590:	4b83      	ldr	r3, [pc, #524]	@ (200007a0 <dcd_rp2040_irq+0x350>)
20000592:	665c      	str	r4, [r3, #100]	@ 0x64
20000594:	661c      	str	r4, [r3, #96]	@ 0x60
20000596:	2301      	movs	r3, #1
20000598:	70fb      	strb	r3, [r7, #3]
2000059a:	3720      	adds	r7, #32
2000059c:	2c01      	cmp	r4, #1
2000059e:	d120      	bne.n	200005e2 <dcd_rp2040_irq+0x192>
200005a0:	23c0      	movs	r3, #192	@ 0xc0
200005a2:	466a      	mov	r2, sp
200005a4:	00db      	lsls	r3, r3, #3
200005a6:	8093      	strh	r3, [r2, #4]
200005a8:	4a7f      	ldr	r2, [pc, #508]	@ (200007a8 <dcd_rp2040_irq+0x358>)
200005aa:	ab02      	add	r3, sp, #8
200005ac:	ca03      	ldmia	r2!, {r0, r1}
200005ae:	c303      	stmia	r3!, {r0, r1}
200005b0:	2101      	movs	r1, #1
200005b2:	a801      	add	r0, sp, #4
200005b4:	f000 fb5e 	bl	20000c74 <dcd_event_handler>
200005b8:	2280      	movs	r2, #128	@ 0x80
200005ba:	4b79      	ldr	r3, [pc, #484]	@ (200007a0 <dcd_rp2040_irq+0x350>)
200005bc:	0292      	lsls	r2, r2, #10
200005be:	651a      	str	r2, [r3, #80]	@ 0x50
200005c0:	2380      	movs	r3, #128	@ 0x80
200005c2:	015b      	lsls	r3, r3, #5
200005c4:	421d      	tst	r5, r3
200005c6:	d10e      	bne.n	200005e6 <dcd_rp2040_irq+0x196>
200005c8:	2380      	movs	r3, #128	@ 0x80
200005ca:	01db      	lsls	r3, r3, #7
200005cc:	421d      	tst	r5, r3
200005ce:	d121      	bne.n	20000614 <dcd_rp2040_irq+0x1c4>
200005d0:	2380      	movs	r3, #128	@ 0x80
200005d2:	021b      	lsls	r3, r3, #8
200005d4:	421d      	tst	r5, r3
200005d6:	d12d      	bne.n	20000634 <dcd_rp2040_irq+0x1e4>
200005d8:	42ae      	cmp	r6, r5
200005da:	d000      	beq.n	200005de <dcd_rp2040_irq+0x18e>
200005dc:	e1be      	b.n	2000095c <dcd_rp2040_irq+0x50c>
200005de:	b005      	add	sp, #20
200005e0:	bdf0      	pop	{r4, r5, r6, r7, pc}
200005e2:	2401      	movs	r4, #1
200005e4:	e7bf      	b.n	20000566 <dcd_rp2040_irq+0x116>
200005e6:	2400      	movs	r4, #0
200005e8:	431e      	orrs	r6, r3
200005ea:	4b60      	ldr	r3, [pc, #384]	@ (2000076c <dcd_rp2040_irq+0x31c>)
200005ec:	601c      	str	r4, [r3, #0]
200005ee:	f7ff feb7 	bl	20000360 <reset_non_control_endpoints>
200005f2:	2380      	movs	r3, #128	@ 0x80
200005f4:	466a      	mov	r2, sp
200005f6:	005b      	lsls	r3, r3, #1
200005f8:	8093      	strh	r3, [r2, #4]
200005fa:	7214      	strb	r4, [r2, #8]
200005fc:	2101      	movs	r1, #1
200005fe:	a801      	add	r0, sp, #4
20000600:	f000 fb38 	bl	20000c74 <dcd_event_handler>
20000604:	2280      	movs	r2, #128	@ 0x80
20000606:	4b66      	ldr	r3, [pc, #408]	@ (200007a0 <dcd_rp2040_irq+0x350>)
20000608:	0312      	lsls	r2, r2, #12
2000060a:	651a      	str	r2, [r3, #80]	@ 0x50
2000060c:	2380      	movs	r3, #128	@ 0x80
2000060e:	01db      	lsls	r3, r3, #7
20000610:	421d      	tst	r5, r3
20000612:	d0dd      	beq.n	200005d0 <dcd_rp2040_irq+0x180>
20000614:	431e      	orrs	r6, r3
20000616:	2380      	movs	r3, #128	@ 0x80
20000618:	466a      	mov	r2, sp
2000061a:	00db      	lsls	r3, r3, #3
2000061c:	8093      	strh	r3, [r2, #4]
2000061e:	2101      	movs	r1, #1
20000620:	a801      	add	r0, sp, #4
20000622:	f000 fb27 	bl	20000c74 <dcd_event_handler>
20000626:	2210      	movs	r2, #16
20000628:	4b5d      	ldr	r3, [pc, #372]	@ (200007a0 <dcd_rp2040_irq+0x350>)
2000062a:	651a      	str	r2, [r3, #80]	@ 0x50
2000062c:	2380      	movs	r3, #128	@ 0x80
2000062e:	021b      	lsls	r3, r3, #8
20000630:	421d      	tst	r5, r3
20000632:	d0d1      	beq.n	200005d8 <dcd_rp2040_irq+0x188>
20000634:	431e      	orrs	r6, r3
20000636:	23a0      	movs	r3, #160	@ 0xa0
20000638:	466a      	mov	r2, sp
2000063a:	00db      	lsls	r3, r3, #3
2000063c:	8093      	strh	r3, [r2, #4]
2000063e:	2101      	movs	r1, #1
20000640:	a801      	add	r0, sp, #4
20000642:	f000 fb17 	bl	20000c74 <dcd_event_handler>
20000646:	2280      	movs	r2, #128	@ 0x80
20000648:	4b55      	ldr	r3, [pc, #340]	@ (200007a0 <dcd_rp2040_irq+0x350>)
2000064a:	0112      	lsls	r2, r2, #4
2000064c:	651a      	str	r2, [r3, #80]	@ 0x50
2000064e:	e7c3      	b.n	200005d8 <dcd_rp2040_irq+0x188>
20000650:	f7ff feba 	bl	200003c8 <hw_handle_buff_status>
20000654:	0026      	movs	r6, r4
20000656:	e77f      	b.n	20000558 <dcd_rp2040_irq+0x108>
20000658:	4b54      	ldr	r3, [pc, #336]	@ (200007ac <dcd_rp2040_irq+0x35c>)
2000065a:	4a44      	ldr	r2, [pc, #272]	@ (2000076c <dcd_rp2040_irq+0x31c>)
2000065c:	661c      	str	r4, [r3, #96]	@ 0x60
2000065e:	6e53      	ldr	r3, [r2, #100]	@ 0x64
20000660:	4023      	ands	r3, r4
20000662:	42a3      	cmp	r3, r4
20000664:	d1fb      	bne.n	2000065e <dcd_rp2040_irq+0x20e>
20000666:	e786      	b.n	20000576 <dcd_rp2040_irq+0x126>
20000668:	3378      	adds	r3, #120	@ 0x78
2000066a:	5ce7      	ldrb	r7, [r4, r3]
2000066c:	2f00      	cmp	r7, #0
2000066e:	d100      	bne.n	20000672 <dcd_rp2040_irq+0x222>
20000670:	e70a      	b.n	20000488 <dcd_rp2040_irq+0x38>
20000672:	3302      	adds	r3, #2
20000674:	5ce2      	ldrb	r2, [r4, r3]
20000676:	2a00      	cmp	r2, #0
20000678:	d000      	beq.n	2000067c <dcd_rp2040_irq+0x22c>
2000067a:	e10d      	b.n	20000898 <dcd_rp2040_irq+0x448>
2000067c:	003e      	movs	r6, r7
2000067e:	e703      	b.n	20000488 <dcd_rp2040_irq+0x38>
20000680:	33b8      	adds	r3, #184	@ 0xb8
20000682:	5ce7      	ldrb	r7, [r4, r3]
20000684:	2f00      	cmp	r7, #0
20000686:	d100      	bne.n	2000068a <dcd_rp2040_irq+0x23a>
20000688:	e703      	b.n	20000492 <dcd_rp2040_irq+0x42>
2000068a:	3302      	adds	r3, #2
2000068c:	5ce2      	ldrb	r2, [r4, r3]
2000068e:	2a00      	cmp	r2, #0
20000690:	d000      	beq.n	20000694 <dcd_rp2040_irq+0x244>
20000692:	e0f9      	b.n	20000888 <dcd_rp2040_irq+0x438>
20000694:	003e      	movs	r6, r7
20000696:	e6fc      	b.n	20000492 <dcd_rp2040_irq+0x42>
20000698:	33f8      	adds	r3, #248	@ 0xf8
2000069a:	5ce7      	ldrb	r7, [r4, r3]
2000069c:	2f00      	cmp	r7, #0
2000069e:	d100      	bne.n	200006a2 <dcd_rp2040_irq+0x252>
200006a0:	e6fc      	b.n	2000049c <dcd_rp2040_irq+0x4c>
200006a2:	3302      	adds	r3, #2
200006a4:	5ce2      	ldrb	r2, [r4, r3]
200006a6:	2a00      	cmp	r2, #0
200006a8:	d000      	beq.n	200006ac <dcd_rp2040_irq+0x25c>
200006aa:	e141      	b.n	20000930 <dcd_rp2040_irq+0x4e0>
200006ac:	003e      	movs	r6, r7
200006ae:	e6f5      	b.n	2000049c <dcd_rp2040_irq+0x4c>
200006b0:	33f9      	adds	r3, #249	@ 0xf9
200006b2:	33ff      	adds	r3, #255	@ 0xff
200006b4:	5ce7      	ldrb	r7, [r4, r3]
200006b6:	2f00      	cmp	r7, #0
200006b8:	d100      	bne.n	200006bc <dcd_rp2040_irq+0x26c>
200006ba:	e707      	b.n	200004cc <dcd_rp2040_irq+0x7c>
200006bc:	3302      	adds	r3, #2
200006be:	5ce2      	ldrb	r2, [r4, r3]
200006c0:	2a00      	cmp	r2, #0
200006c2:	d000      	beq.n	200006c6 <dcd_rp2040_irq+0x276>
200006c4:	e12b      	b.n	2000091e <dcd_rp2040_irq+0x4ce>
200006c6:	003e      	movs	r6, r7
200006c8:	e700      	b.n	200004cc <dcd_rp2040_irq+0x7c>
200006ca:	3379      	adds	r3, #121	@ 0x79
200006cc:	33ff      	adds	r3, #255	@ 0xff
200006ce:	5ce7      	ldrb	r7, [r4, r3]
200006d0:	2f00      	cmp	r7, #0
200006d2:	d100      	bne.n	200006d6 <dcd_rp2040_irq+0x286>
200006d4:	e6ee      	b.n	200004b4 <dcd_rp2040_irq+0x64>
200006d6:	3302      	adds	r3, #2
200006d8:	5ce2      	ldrb	r2, [r4, r3]
200006da:	2a00      	cmp	r2, #0
200006dc:	d000      	beq.n	200006e0 <dcd_rp2040_irq+0x290>
200006de:	e115      	b.n	2000090c <dcd_rp2040_irq+0x4bc>
200006e0:	003e      	movs	r6, r7
200006e2:	e6e7      	b.n	200004b4 <dcd_rp2040_irq+0x64>
200006e4:	4b32      	ldr	r3, [pc, #200]	@ (200007b0 <dcd_rp2040_irq+0x360>)
200006e6:	5ce7      	ldrb	r7, [r4, r3]
200006e8:	2f00      	cmp	r7, #0
200006ea:	d100      	bne.n	200006ee <dcd_rp2040_irq+0x29e>
200006ec:	e6f8      	b.n	200004e0 <dcd_rp2040_irq+0x90>
200006ee:	3302      	adds	r3, #2
200006f0:	5ce2      	ldrb	r2, [r4, r3]
200006f2:	2a00      	cmp	r2, #0
200006f4:	d000      	beq.n	200006f8 <dcd_rp2040_irq+0x2a8>
200006f6:	e101      	b.n	200008fc <dcd_rp2040_irq+0x4ac>
200006f8:	003e      	movs	r6, r7
200006fa:	e6f1      	b.n	200004e0 <dcd_rp2040_irq+0x90>
200006fc:	3339      	adds	r3, #57	@ 0x39
200006fe:	33ff      	adds	r3, #255	@ 0xff
20000700:	5ce7      	ldrb	r7, [r4, r3]
20000702:	2f00      	cmp	r7, #0
20000704:	d100      	bne.n	20000708 <dcd_rp2040_irq+0x2b8>
20000706:	e6cf      	b.n	200004a8 <dcd_rp2040_irq+0x58>
20000708:	3302      	adds	r3, #2
2000070a:	5ce2      	ldrb	r2, [r4, r3]
2000070c:	2a00      	cmp	r2, #0
2000070e:	d000      	beq.n	20000712 <dcd_rp2040_irq+0x2c2>
20000710:	e0eb      	b.n	200008ea <dcd_rp2040_irq+0x49a>
20000712:	003e      	movs	r6, r7
20000714:	e6c8      	b.n	200004a8 <dcd_rp2040_irq+0x58>
20000716:	3338      	adds	r3, #56	@ 0x38
20000718:	5ce6      	ldrb	r6, [r4, r3]
2000071a:	2e00      	cmp	r6, #0
2000071c:	d100      	bne.n	20000720 <dcd_rp2040_irq+0x2d0>
2000071e:	e6ae      	b.n	2000047e <dcd_rp2040_irq+0x2e>
20000720:	3302      	adds	r3, #2
20000722:	5ce2      	ldrb	r2, [r4, r3]
20000724:	2a00      	cmp	r2, #0
20000726:	d100      	bne.n	2000072a <dcd_rp2040_irq+0x2da>
20000728:	e6a9      	b.n	2000047e <dcd_rp2040_irq+0x2e>
2000072a:	0020      	movs	r0, r4
2000072c:	2200      	movs	r2, #0
2000072e:	3020      	adds	r0, #32
20000730:	54e2      	strb	r2, [r4, r3]
20000732:	f000 fa4b 	bl	20000bcc <hw_endpoint_start_next_buffer>
20000736:	e6a2      	b.n	2000047e <dcd_rp2040_irq+0x2e>
20000738:	33b9      	adds	r3, #185	@ 0xb9
2000073a:	33ff      	adds	r3, #255	@ 0xff
2000073c:	5ce7      	ldrb	r7, [r4, r3]
2000073e:	2f00      	cmp	r7, #0
20000740:	d100      	bne.n	20000744 <dcd_rp2040_irq+0x2f4>
20000742:	e6bd      	b.n	200004c0 <dcd_rp2040_irq+0x70>
20000744:	3302      	adds	r3, #2
20000746:	5ce2      	ldrb	r2, [r4, r3]
20000748:	2a00      	cmp	r2, #0
2000074a:	d000      	beq.n	2000074e <dcd_rp2040_irq+0x2fe>
2000074c:	e0c4      	b.n	200008d8 <dcd_rp2040_irq+0x488>
2000074e:	003e      	movs	r6, r7
20000750:	e6b6      	b.n	200004c0 <dcd_rp2040_irq+0x70>
20000752:	4b18      	ldr	r3, [pc, #96]	@ (200007b4 <dcd_rp2040_irq+0x364>)
20000754:	5ce7      	ldrb	r7, [r4, r3]
20000756:	2f00      	cmp	r7, #0
20000758:	d100      	bne.n	2000075c <dcd_rp2040_irq+0x30c>
2000075a:	e6cb      	b.n	200004f4 <dcd_rp2040_irq+0xa4>
2000075c:	3302      	adds	r3, #2
2000075e:	5ce2      	ldrb	r2, [r4, r3]
20000760:	2a00      	cmp	r2, #0
20000762:	d000      	beq.n	20000766 <dcd_rp2040_irq+0x316>
20000764:	e0b0      	b.n	200008c8 <dcd_rp2040_irq+0x478>
20000766:	003e      	movs	r6, r7
20000768:	e6c4      	b.n	200004f4 <dcd_rp2040_irq+0xa4>
2000076a:	46c0      	nop			@ (mov r8, r8)
2000076c:	50110000 	.word	0x50110000
20000770:	40054000 	.word	0x40054000
20000774:	20005f94 	.word	0x20005f94
20000778:	20005f8c 	.word	0x20005f8c
2000077c:	0000023b 	.word	0x0000023b
20000780:	0000027b 	.word	0x0000027b
20000784:	000002bb 	.word	0x000002bb
20000788:	000002fb 	.word	0x000002fb
2000078c:	0000033b 	.word	0x0000033b
20000790:	0000037b 	.word	0x0000037b
20000794:	000003bb 	.word	0x000003bb
20000798:	000003fb 	.word	0x000003fb
2000079c:	200063e2 	.word	0x200063e2
200007a0:	50113000 	.word	0x50113000
200007a4:	00020010 	.word	0x00020010
200007a8:	50100000 	.word	0x50100000
200007ac:	50112000 	.word	0x50112000
200007b0:	0000027a 	.word	0x0000027a
200007b4:	000002fa 	.word	0x000002fa
200007b8:	4b6b      	ldr	r3, [pc, #428]	@ (20000968 <dcd_rp2040_irq+0x518>)
200007ba:	5ce7      	ldrb	r7, [r4, r3]
200007bc:	2f00      	cmp	r7, #0
200007be:	d100      	bne.n	200007c2 <dcd_rp2040_irq+0x372>
200007c0:	e689      	b.n	200004d6 <dcd_rp2040_irq+0x86>
200007c2:	3302      	adds	r3, #2
200007c4:	5ce2      	ldrb	r2, [r4, r3]
200007c6:	2a00      	cmp	r2, #0
200007c8:	d176      	bne.n	200008b8 <dcd_rp2040_irq+0x468>
200007ca:	003e      	movs	r6, r7
200007cc:	e683      	b.n	200004d6 <dcd_rp2040_irq+0x86>
200007ce:	4b67      	ldr	r3, [pc, #412]	@ (2000096c <dcd_rp2040_irq+0x51c>)
200007d0:	5ce7      	ldrb	r7, [r4, r3]
200007d2:	2f00      	cmp	r7, #0
200007d4:	d100      	bne.n	200007d8 <dcd_rp2040_irq+0x388>
200007d6:	e688      	b.n	200004ea <dcd_rp2040_irq+0x9a>
200007d8:	3302      	adds	r3, #2
200007da:	5ce2      	ldrb	r2, [r4, r3]
200007dc:	2a00      	cmp	r2, #0
200007de:	d163      	bne.n	200008a8 <dcd_rp2040_irq+0x458>
200007e0:	003e      	movs	r6, r7
200007e2:	e682      	b.n	200004ea <dcd_rp2040_irq+0x9a>
200007e4:	4b62      	ldr	r3, [pc, #392]	@ (20000970 <dcd_rp2040_irq+0x520>)
200007e6:	5ce7      	ldrb	r7, [r4, r3]
200007e8:	2f00      	cmp	r7, #0
200007ea:	d100      	bne.n	200007ee <dcd_rp2040_irq+0x39e>
200007ec:	e68c      	b.n	20000508 <dcd_rp2040_irq+0xb8>
200007ee:	3302      	adds	r3, #2
200007f0:	5ce2      	ldrb	r2, [r4, r3]
200007f2:	2a00      	cmp	r2, #0
200007f4:	d000      	beq.n	200007f8 <dcd_rp2040_irq+0x3a8>
200007f6:	e0a3      	b.n	20000940 <dcd_rp2040_irq+0x4f0>
200007f8:	4b5e      	ldr	r3, [pc, #376]	@ (20000974 <dcd_rp2040_irq+0x524>)
200007fa:	5ce3      	ldrb	r3, [r4, r3]
200007fc:	2b02      	cmp	r3, #2
200007fe:	d130      	bne.n	20000862 <dcd_rp2040_irq+0x412>
20000800:	4b5d      	ldr	r3, [pc, #372]	@ (20000978 <dcd_rp2040_irq+0x528>)
20000802:	5ce3      	ldrb	r3, [r4, r3]
20000804:	2b00      	cmp	r3, #0
20000806:	d127      	bne.n	20000858 <dcd_rp2040_irq+0x408>
20000808:	4b5c      	ldr	r3, [pc, #368]	@ (2000097c <dcd_rp2040_irq+0x52c>)
2000080a:	5ce3      	ldrb	r3, [r4, r3]
2000080c:	2b02      	cmp	r3, #2
2000080e:	d000      	beq.n	20000812 <dcd_rp2040_irq+0x3c2>
20000810:	e68f      	b.n	20000532 <dcd_rp2040_irq+0xe2>
20000812:	003e      	movs	r6, r7
20000814:	4b5a      	ldr	r3, [pc, #360]	@ (20000980 <dcd_rp2040_irq+0x530>)
20000816:	5ce3      	ldrb	r3, [r4, r3]
20000818:	2b00      	cmp	r3, #0
2000081a:	d100      	bne.n	2000081e <dcd_rp2040_irq+0x3ce>
2000081c:	e67e      	b.n	2000051c <dcd_rp2040_irq+0xcc>
2000081e:	23ff      	movs	r3, #255	@ 0xff
20000820:	009b      	lsls	r3, r3, #2
20000822:	5ce2      	ldrb	r2, [r4, r3]
20000824:	2a00      	cmp	r2, #0
20000826:	d100      	bne.n	2000082a <dcd_rp2040_irq+0x3da>
20000828:	e683      	b.n	20000532 <dcd_rp2040_irq+0xe2>
2000082a:	2200      	movs	r2, #0
2000082c:	54e2      	strb	r2, [r4, r3]
2000082e:	3b1c      	subs	r3, #28
20000830:	18e0      	adds	r0, r4, r3
20000832:	f000 f9cb 	bl	20000bcc <hw_endpoint_start_next_buffer>
20000836:	e67c      	b.n	20000532 <dcd_rp2040_irq+0xe2>
20000838:	4b52      	ldr	r3, [pc, #328]	@ (20000984 <dcd_rp2040_irq+0x534>)
2000083a:	5ce7      	ldrb	r7, [r4, r3]
2000083c:	2f00      	cmp	r7, #0
2000083e:	d100      	bne.n	20000842 <dcd_rp2040_irq+0x3f2>
20000840:	e65d      	b.n	200004fe <dcd_rp2040_irq+0xae>
20000842:	3302      	adds	r3, #2
20000844:	5ce2      	ldrb	r2, [r4, r3]
20000846:	2a00      	cmp	r2, #0
20000848:	d116      	bne.n	20000878 <dcd_rp2040_irq+0x428>
2000084a:	003e      	movs	r6, r7
2000084c:	e657      	b.n	200004fe <dcd_rp2040_irq+0xae>
2000084e:	4b4a      	ldr	r3, [pc, #296]	@ (20000978 <dcd_rp2040_irq+0x528>)
20000850:	5ce3      	ldrb	r3, [r4, r3]
20000852:	2b00      	cmp	r3, #0
20000854:	d100      	bne.n	20000858 <dcd_rp2040_irq+0x408>
20000856:	e65c      	b.n	20000512 <dcd_rp2040_irq+0xc2>
20000858:	23ef      	movs	r3, #239	@ 0xef
2000085a:	009b      	lsls	r3, r3, #2
2000085c:	5ce2      	ldrb	r2, [r4, r3]
2000085e:	2a00      	cmp	r2, #0
20000860:	d175      	bne.n	2000094e <dcd_rp2040_irq+0x4fe>
20000862:	4b46      	ldr	r3, [pc, #280]	@ (2000097c <dcd_rp2040_irq+0x52c>)
20000864:	5ce3      	ldrb	r3, [r4, r3]
20000866:	2b02      	cmp	r3, #2
20000868:	d000      	beq.n	2000086c <dcd_rp2040_irq+0x41c>
2000086a:	e662      	b.n	20000532 <dcd_rp2040_irq+0xe2>
2000086c:	4b44      	ldr	r3, [pc, #272]	@ (20000980 <dcd_rp2040_irq+0x530>)
2000086e:	5ce3      	ldrb	r3, [r4, r3]
20000870:	2b00      	cmp	r3, #0
20000872:	d100      	bne.n	20000876 <dcd_rp2040_irq+0x426>
20000874:	e65d      	b.n	20000532 <dcd_rp2040_irq+0xe2>
20000876:	e7d2      	b.n	2000081e <dcd_rp2040_irq+0x3ce>
20000878:	2200      	movs	r2, #0
2000087a:	54e2      	strb	r2, [r4, r3]
2000087c:	3b1c      	subs	r3, #28
2000087e:	18e0      	adds	r0, r4, r3
20000880:	f000 f9a4 	bl	20000bcc <hw_endpoint_start_next_buffer>
20000884:	003e      	movs	r6, r7
20000886:	e63a      	b.n	200004fe <dcd_rp2040_irq+0xae>
20000888:	0020      	movs	r0, r4
2000088a:	2200      	movs	r2, #0
2000088c:	30a0      	adds	r0, #160	@ 0xa0
2000088e:	54e2      	strb	r2, [r4, r3]
20000890:	003e      	movs	r6, r7
20000892:	f000 f99b 	bl	20000bcc <hw_endpoint_start_next_buffer>
20000896:	e5fc      	b.n	20000492 <dcd_rp2040_irq+0x42>
20000898:	0020      	movs	r0, r4
2000089a:	2200      	movs	r2, #0
2000089c:	3060      	adds	r0, #96	@ 0x60
2000089e:	54e2      	strb	r2, [r4, r3]
200008a0:	003e      	movs	r6, r7
200008a2:	f000 f993 	bl	20000bcc <hw_endpoint_start_next_buffer>
200008a6:	e5ef      	b.n	20000488 <dcd_rp2040_irq+0x38>
200008a8:	2200      	movs	r2, #0
200008aa:	54e2      	strb	r2, [r4, r3]
200008ac:	3b1c      	subs	r3, #28
200008ae:	18e0      	adds	r0, r4, r3
200008b0:	f000 f98c 	bl	20000bcc <hw_endpoint_start_next_buffer>
200008b4:	003e      	movs	r6, r7
200008b6:	e618      	b.n	200004ea <dcd_rp2040_irq+0x9a>
200008b8:	2200      	movs	r2, #0
200008ba:	54e2      	strb	r2, [r4, r3]
200008bc:	3b1c      	subs	r3, #28
200008be:	18e0      	adds	r0, r4, r3
200008c0:	f000 f984 	bl	20000bcc <hw_endpoint_start_next_buffer>
200008c4:	003e      	movs	r6, r7
200008c6:	e606      	b.n	200004d6 <dcd_rp2040_irq+0x86>
200008c8:	2200      	movs	r2, #0
200008ca:	54e2      	strb	r2, [r4, r3]
200008cc:	3b1c      	subs	r3, #28
200008ce:	18e0      	adds	r0, r4, r3
200008d0:	f000 f97c 	bl	20000bcc <hw_endpoint_start_next_buffer>
200008d4:	003e      	movs	r6, r7
200008d6:	e60d      	b.n	200004f4 <dcd_rp2040_irq+0xa4>
200008d8:	0020      	movs	r0, r4
200008da:	2200      	movs	r2, #0
200008dc:	30a1      	adds	r0, #161	@ 0xa1
200008de:	30ff      	adds	r0, #255	@ 0xff
200008e0:	54e2      	strb	r2, [r4, r3]
200008e2:	003e      	movs	r6, r7
200008e4:	f000 f972 	bl	20000bcc <hw_endpoint_start_next_buffer>
200008e8:	e5ea      	b.n	200004c0 <dcd_rp2040_irq+0x70>
200008ea:	0020      	movs	r0, r4
200008ec:	2200      	movs	r2, #0
200008ee:	3021      	adds	r0, #33	@ 0x21
200008f0:	30ff      	adds	r0, #255	@ 0xff
200008f2:	54e2      	strb	r2, [r4, r3]
200008f4:	003e      	movs	r6, r7
200008f6:	f000 f969 	bl	20000bcc <hw_endpoint_start_next_buffer>
200008fa:	e5d5      	b.n	200004a8 <dcd_rp2040_irq+0x58>
200008fc:	2200      	movs	r2, #0
200008fe:	54e2      	strb	r2, [r4, r3]
20000900:	3b1c      	subs	r3, #28
20000902:	18e0      	adds	r0, r4, r3
20000904:	f000 f962 	bl	20000bcc <hw_endpoint_start_next_buffer>
20000908:	003e      	movs	r6, r7
2000090a:	e5e9      	b.n	200004e0 <dcd_rp2040_irq+0x90>
2000090c:	0020      	movs	r0, r4
2000090e:	2200      	movs	r2, #0
20000910:	3061      	adds	r0, #97	@ 0x61
20000912:	30ff      	adds	r0, #255	@ 0xff
20000914:	54e2      	strb	r2, [r4, r3]
20000916:	003e      	movs	r6, r7
20000918:	f000 f958 	bl	20000bcc <hw_endpoint_start_next_buffer>
2000091c:	e5ca      	b.n	200004b4 <dcd_rp2040_irq+0x64>
2000091e:	0020      	movs	r0, r4
20000920:	2200      	movs	r2, #0
20000922:	30e1      	adds	r0, #225	@ 0xe1
20000924:	30ff      	adds	r0, #255	@ 0xff
20000926:	54e2      	strb	r2, [r4, r3]
20000928:	003e      	movs	r6, r7
2000092a:	f000 f94f 	bl	20000bcc <hw_endpoint_start_next_buffer>
2000092e:	e5cd      	b.n	200004cc <dcd_rp2040_irq+0x7c>
20000930:	0020      	movs	r0, r4
20000932:	2200      	movs	r2, #0
20000934:	30e0      	adds	r0, #224	@ 0xe0
20000936:	54e2      	strb	r2, [r4, r3]
20000938:	003e      	movs	r6, r7
2000093a:	f000 f947 	bl	20000bcc <hw_endpoint_start_next_buffer>
2000093e:	e5ad      	b.n	2000049c <dcd_rp2040_irq+0x4c>
20000940:	2200      	movs	r2, #0
20000942:	54e2      	strb	r2, [r4, r3]
20000944:	3b1c      	subs	r3, #28
20000946:	18e0      	adds	r0, r4, r3
20000948:	f000 f940 	bl	20000bcc <hw_endpoint_start_next_buffer>
2000094c:	e754      	b.n	200007f8 <dcd_rp2040_irq+0x3a8>
2000094e:	2200      	movs	r2, #0
20000950:	54e2      	strb	r2, [r4, r3]
20000952:	3b1c      	subs	r3, #28
20000954:	18e0      	adds	r0, r4, r3
20000956:	f000 f939 	bl	20000bcc <hw_endpoint_start_next_buffer>
2000095a:	e782      	b.n	20000862 <dcd_rp2040_irq+0x412>
2000095c:	0031      	movs	r1, r6
2000095e:	480a      	ldr	r0, [pc, #40]	@ (20000988 <dcd_rp2040_irq+0x538>)
20000960:	4069      	eors	r1, r5
20000962:	f000 fae1 	bl	20000f28 <panic>
20000966:	46c0      	nop			@ (mov r8, r8)
20000968:	0000023a 	.word	0x0000023a
2000096c:	000002ba 	.word	0x000002ba
20000970:	0000037a 	.word	0x0000037a
20000974:	000003bb 	.word	0x000003bb
20000978:	000003ba 	.word	0x000003ba
2000097c:	000003fb 	.word	0x000003fb
20000980:	000003fa 	.word	0x000003fa
20000984:	0000033a 	.word	0x0000033a
20000988:	200051f8 	.word	0x200051f8

2000098c <prepare_ep_buffer>:
2000098c:	b5f0      	push	{r4, r5, r6, r7, lr}
2000098e:	468c      	mov	ip, r1
20000990:	8a83      	ldrh	r3, [r0, #20]
20000992:	8b01      	ldrh	r1, [r0, #24]
20000994:	0002      	movs	r2, r0
20000996:	b083      	sub	sp, #12
20000998:	1c0e      	adds	r6, r1, #0
2000099a:	4299      	cmp	r1, r3
2000099c:	d900      	bls.n	200009a0 <prepare_ep_buffer+0x14>
2000099e:	1c1e      	adds	r6, r3, #0
200009a0:	b2b6      	uxth	r6, r6
200009a2:	1b9b      	subs	r3, r3, r6
200009a4:	b29c      	uxth	r4, r3
200009a6:	78d3      	ldrb	r3, [r2, #3]
200009a8:	2180      	movs	r1, #128	@ 0x80
200009aa:	0018      	movs	r0, r3
200009ac:	1e45      	subs	r5, r0, #1
200009ae:	41a8      	sbcs	r0, r5
200009b0:	00c9      	lsls	r1, r1, #3
200009b2:	4331      	orrs	r1, r6
200009b4:	0340      	lsls	r0, r0, #13
200009b6:	4308      	orrs	r0, r1
200009b8:	2101      	movs	r1, #1
200009ba:	404b      	eors	r3, r1
200009bc:	70d3      	strb	r3, [r2, #3]
200009be:	7853      	ldrb	r3, [r2, #1]
200009c0:	8294      	strh	r4, [r2, #20]
200009c2:	2b00      	cmp	r3, #0
200009c4:	d132      	bne.n	20000a2c <prepare_ep_buffer+0xa0>
200009c6:	6911      	ldr	r1, [r2, #16]
200009c8:	2e00      	cmp	r6, #0
200009ca:	d02a      	beq.n	20000a22 <prepare_ep_buffer+0x96>
200009cc:	4663      	mov	r3, ip
200009ce:	68d4      	ldr	r4, [r2, #12]
200009d0:	019b      	lsls	r3, r3, #6
200009d2:	18e4      	adds	r4, r4, r3
200009d4:	1e73      	subs	r3, r6, #1
200009d6:	9301      	str	r3, [sp, #4]
200009d8:	2b06      	cmp	r3, #6
200009da:	d932      	bls.n	20000a42 <prepare_ep_buffer+0xb6>
200009dc:	0023      	movs	r3, r4
200009de:	430b      	orrs	r3, r1
200009e0:	079b      	lsls	r3, r3, #30
200009e2:	d12e      	bne.n	20000a42 <prepare_ep_buffer+0xb6>
200009e4:	1a63      	subs	r3, r4, r1
200009e6:	3b01      	subs	r3, #1
200009e8:	2b02      	cmp	r3, #2
200009ea:	d92a      	bls.n	20000a42 <prepare_ep_buffer+0xb6>
200009ec:	2300      	movs	r3, #0
200009ee:	08b7      	lsrs	r7, r6, #2
200009f0:	00bf      	lsls	r7, r7, #2
200009f2:	58cd      	ldr	r5, [r1, r3]
200009f4:	50e5      	str	r5, [r4, r3]
200009f6:	3304      	adds	r3, #4
200009f8:	42bb      	cmp	r3, r7
200009fa:	d1fa      	bne.n	200009f2 <prepare_ep_buffer+0x66>
200009fc:	429e      	cmp	r6, r3
200009fe:	d00e      	beq.n	20000a1e <prepare_ep_buffer+0x92>
20000a00:	9d01      	ldr	r5, [sp, #4]
20000a02:	18e4      	adds	r4, r4, r3
20000a04:	1aef      	subs	r7, r5, r3
20000a06:	18cd      	adds	r5, r1, r3
20000a08:	5cc9      	ldrb	r1, [r1, r3]
20000a0a:	7021      	strb	r1, [r4, #0]
20000a0c:	9901      	ldr	r1, [sp, #4]
20000a0e:	4299      	cmp	r1, r3
20000a10:	d005      	beq.n	20000a1e <prepare_ep_buffer+0x92>
20000a12:	786b      	ldrb	r3, [r5, #1]
20000a14:	7063      	strb	r3, [r4, #1]
20000a16:	2f01      	cmp	r7, #1
20000a18:	d001      	beq.n	20000a1e <prepare_ep_buffer+0x92>
20000a1a:	78ab      	ldrb	r3, [r5, #2]
20000a1c:	70a3      	strb	r3, [r4, #2]
20000a1e:	6911      	ldr	r1, [r2, #16]
20000a20:	8a94      	ldrh	r4, [r2, #20]
20000a22:	2380      	movs	r3, #128	@ 0x80
20000a24:	1989      	adds	r1, r1, r6
20000a26:	021b      	lsls	r3, r3, #8
20000a28:	6111      	str	r1, [r2, #16]
20000a2a:	4318      	orrs	r0, r3
20000a2c:	2c00      	cmp	r4, #0
20000a2e:	d102      	bne.n	20000a36 <prepare_ep_buffer+0xaa>
20000a30:	2380      	movs	r3, #128	@ 0x80
20000a32:	01db      	lsls	r3, r3, #7
20000a34:	4318      	orrs	r0, r3
20000a36:	4663      	mov	r3, ip
20000a38:	2b00      	cmp	r3, #0
20000a3a:	d000      	beq.n	20000a3e <prepare_ep_buffer+0xb2>
20000a3c:	0400      	lsls	r0, r0, #16
20000a3e:	b003      	add	sp, #12
20000a40:	bdf0      	pop	{r4, r5, r6, r7, pc}
20000a42:	2300      	movs	r3, #0
20000a44:	5ccd      	ldrb	r5, [r1, r3]
20000a46:	54e5      	strb	r5, [r4, r3]
20000a48:	3301      	adds	r3, #1
20000a4a:	429e      	cmp	r6, r3
20000a4c:	d1fa      	bne.n	20000a44 <prepare_ep_buffer+0xb8>
20000a4e:	e7e6      	b.n	20000a1e <prepare_ep_buffer+0x92>

20000a50 <sync_ep_buffer>:
20000a50:	6883      	ldr	r3, [r0, #8]
20000a52:	b5f0      	push	{r4, r5, r6, r7, lr}
20000a54:	681a      	ldr	r2, [r3, #0]
20000a56:	2900      	cmp	r1, #0
20000a58:	d000      	beq.n	20000a5c <sync_ep_buffer+0xc>
20000a5a:	0c12      	lsrs	r2, r2, #16
20000a5c:	7843      	ldrb	r3, [r0, #1]
20000a5e:	0592      	lsls	r2, r2, #22
20000a60:	0d95      	lsrs	r5, r2, #22
20000a62:	2b00      	cmp	r3, #0
20000a64:	d109      	bne.n	20000a7a <sync_ep_buffer+0x2a>
20000a66:	8ac3      	ldrh	r3, [r0, #22]
20000a68:	18eb      	adds	r3, r5, r3
20000a6a:	82c3      	strh	r3, [r0, #22]
20000a6c:	8b03      	ldrh	r3, [r0, #24]
20000a6e:	42ab      	cmp	r3, r5
20000a70:	d901      	bls.n	20000a76 <sync_ep_buffer+0x26>
20000a72:	2300      	movs	r3, #0
20000a74:	8283      	strh	r3, [r0, #20]
20000a76:	0028      	movs	r0, r5
20000a78:	bdf0      	pop	{r4, r5, r6, r7, pc}
20000a7a:	6904      	ldr	r4, [r0, #16]
20000a7c:	2d00      	cmp	r5, #0
20000a7e:	d028      	beq.n	20000ad2 <sync_ep_buffer+0x82>
20000a80:	68c3      	ldr	r3, [r0, #12]
20000a82:	0189      	lsls	r1, r1, #6
20000a84:	1e6f      	subs	r7, r5, #1
20000a86:	46bc      	mov	ip, r7
20000a88:	185e      	adds	r6, r3, r1
20000a8a:	2f06      	cmp	r7, #6
20000a8c:	d927      	bls.n	20000ade <sync_ep_buffer+0x8e>
20000a8e:	3101      	adds	r1, #1
20000a90:	185b      	adds	r3, r3, r1
20000a92:	1ae3      	subs	r3, r4, r3
20000a94:	2b02      	cmp	r3, #2
20000a96:	d922      	bls.n	20000ade <sync_ep_buffer+0x8e>
20000a98:	0023      	movs	r3, r4
20000a9a:	4333      	orrs	r3, r6
20000a9c:	079b      	lsls	r3, r3, #30
20000a9e:	d11e      	bne.n	20000ade <sync_ep_buffer+0x8e>
20000aa0:	2300      	movs	r3, #0
20000aa2:	0e12      	lsrs	r2, r2, #24
20000aa4:	0092      	lsls	r2, r2, #2
20000aa6:	58f1      	ldr	r1, [r6, r3]
20000aa8:	50e1      	str	r1, [r4, r3]
20000aaa:	3304      	adds	r3, #4
20000aac:	429a      	cmp	r2, r3
20000aae:	d1fa      	bne.n	20000aa6 <sync_ep_buffer+0x56>
20000ab0:	4295      	cmp	r5, r2
20000ab2:	d00d      	beq.n	20000ad0 <sync_ep_buffer+0x80>
20000ab4:	4663      	mov	r3, ip
20000ab6:	1a9f      	subs	r7, r3, r2
20000ab8:	18a3      	adds	r3, r4, r2
20000aba:	5cb4      	ldrb	r4, [r6, r2]
20000abc:	18b1      	adds	r1, r6, r2
20000abe:	701c      	strb	r4, [r3, #0]
20000ac0:	4594      	cmp	ip, r2
20000ac2:	d005      	beq.n	20000ad0 <sync_ep_buffer+0x80>
20000ac4:	784a      	ldrb	r2, [r1, #1]
20000ac6:	705a      	strb	r2, [r3, #1]
20000ac8:	2f01      	cmp	r7, #1
20000aca:	d001      	beq.n	20000ad0 <sync_ep_buffer+0x80>
20000acc:	788a      	ldrb	r2, [r1, #2]
20000ace:	709a      	strb	r2, [r3, #2]
20000ad0:	6904      	ldr	r4, [r0, #16]
20000ad2:	8ac3      	ldrh	r3, [r0, #22]
20000ad4:	1964      	adds	r4, r4, r5
20000ad6:	18eb      	adds	r3, r5, r3
20000ad8:	82c3      	strh	r3, [r0, #22]
20000ada:	6104      	str	r4, [r0, #16]
20000adc:	e7c6      	b.n	20000a6c <sync_ep_buffer+0x1c>
20000ade:	2200      	movs	r2, #0
20000ae0:	5cb3      	ldrb	r3, [r6, r2]
20000ae2:	54a3      	strb	r3, [r4, r2]
20000ae4:	3201      	adds	r2, #1
20000ae6:	4295      	cmp	r5, r2
20000ae8:	d1fa      	bne.n	20000ae0 <sync_ep_buffer+0x90>
20000aea:	6904      	ldr	r4, [r0, #16]
20000aec:	e7f1      	b.n	20000ad2 <sync_ep_buffer+0x82>
20000aee:	46c0      	nop			@ (mov r8, r8)

20000af0 <_hw_endpoint_xfer_sync>:
20000af0:	b510      	push	{r4, lr}
20000af2:	0004      	movs	r4, r0
20000af4:	6883      	ldr	r3, [r0, #8]
20000af6:	2100      	movs	r1, #0
20000af8:	681b      	ldr	r3, [r3, #0]
20000afa:	f7ff ffa9 	bl	20000a50 <sync_ep_buffer>
20000afe:	6863      	ldr	r3, [r4, #4]
20000b00:	681b      	ldr	r3, [r3, #0]
20000b02:	005b      	lsls	r3, r3, #1
20000b04:	d502      	bpl.n	20000b0c <_hw_endpoint_xfer_sync+0x1c>
20000b06:	8b23      	ldrh	r3, [r4, #24]
20000b08:	4283      	cmp	r3, r0
20000b0a:	d000      	beq.n	20000b0e <_hw_endpoint_xfer_sync+0x1e>
20000b0c:	bd10      	pop	{r4, pc}
20000b0e:	2101      	movs	r1, #1
20000b10:	0020      	movs	r0, r4
20000b12:	f7ff ff9d 	bl	20000a50 <sync_ep_buffer>
20000b16:	e7f9      	b.n	20000b0c <_hw_endpoint_xfer_sync+0x1c>

20000b18 <e15_is_bulkin_ep>:
20000b18:	4b08      	ldr	r3, [pc, #32]	@ (20000b3c <e15_is_bulkin_ep+0x24>)
20000b1a:	6c1a      	ldr	r2, [r3, #64]	@ 0x40
20000b1c:	2300      	movs	r3, #0
20000b1e:	0792      	lsls	r2, r2, #30
20000b20:	d403      	bmi.n	20000b2a <e15_is_bulkin_ep+0x12>
20000b22:	7882      	ldrb	r2, [r0, #2]
20000b24:	09d2      	lsrs	r2, r2, #7
20000b26:	2a01      	cmp	r2, #1
20000b28:	d001      	beq.n	20000b2e <e15_is_bulkin_ep+0x16>
20000b2a:	0018      	movs	r0, r3
20000b2c:	4770      	bx	lr
20000b2e:	7ec3      	ldrb	r3, [r0, #27]
20000b30:	3b02      	subs	r3, #2
20000b32:	425a      	negs	r2, r3
20000b34:	4153      	adcs	r3, r2
20000b36:	b2db      	uxtb	r3, r3
20000b38:	e7f7      	b.n	20000b2a <e15_is_bulkin_ep+0x12>
20000b3a:	46c0      	nop			@ (mov r8, r8)
20000b3c:	50110000 	.word	0x50110000

20000b40 <e15_is_critical_frame_period>:
20000b40:	b510      	push	{r4, lr}
20000b42:	f7ff ffe9 	bl	20000b18 <e15_is_bulkin_ep>
20000b46:	2800      	cmp	r0, #0
20000b48:	d00a      	beq.n	20000b60 <e15_is_critical_frame_period+0x20>
20000b4a:	4b06      	ldr	r3, [pc, #24]	@ (20000b64 <e15_is_critical_frame_period+0x24>)
20000b4c:	4a06      	ldr	r2, [pc, #24]	@ (20000b68 <e15_is_critical_frame_period+0x28>)
20000b4e:	6a9b      	ldr	r3, [r3, #40]	@ 0x28
20000b50:	4906      	ldr	r1, [pc, #24]	@ (20000b6c <e15_is_critical_frame_period+0x2c>)
20000b52:	6812      	ldr	r2, [r2, #0]
20000b54:	185b      	adds	r3, r3, r1
20000b56:	1a9b      	subs	r3, r3, r2
20000b58:	2000      	movs	r0, #0
20000b5a:	22c6      	movs	r2, #198	@ 0xc6
20000b5c:	429a      	cmp	r2, r3
20000b5e:	4140      	adcs	r0, r0
20000b60:	bd10      	pop	{r4, pc}
20000b62:	46c0      	nop			@ (mov r8, r8)
20000b64:	40054000 	.word	0x40054000
20000b68:	20005f8c 	.word	0x20005f8c
20000b6c:	fffffce0 	.word	0xfffffce0

20000b70 <hw_endpoint_reset_transfer>:
20000b70:	2300      	movs	r3, #0
20000b72:	7683      	strb	r3, [r0, #26]
20000b74:	6143      	str	r3, [r0, #20]
20000b76:	6103      	str	r3, [r0, #16]
20000b78:	4770      	bx	lr
20000b7a:	46c0      	nop			@ (mov r8, r8)

20000b7c <_hw_endpoint_buffer_control_update32>:
20000b7c:	b510      	push	{r4, lr}
20000b7e:	6883      	ldr	r3, [r0, #8]
20000b80:	2900      	cmp	r1, #0
20000b82:	d001      	beq.n	20000b88 <_hw_endpoint_buffer_control_update32+0xc>
20000b84:	681c      	ldr	r4, [r3, #0]
20000b86:	4021      	ands	r1, r4
20000b88:	2a00      	cmp	r2, #0
20000b8a:	d012      	beq.n	20000bb2 <_hw_endpoint_buffer_control_update32+0x36>
20000b8c:	2480      	movs	r4, #128	@ 0x80
20000b8e:	00e4      	lsls	r4, r4, #3
20000b90:	4311      	orrs	r1, r2
20000b92:	4222      	tst	r2, r4
20000b94:	d00d      	beq.n	20000bb2 <_hw_endpoint_buffer_control_update32+0x36>
20000b96:	681a      	ldr	r2, [r3, #0]
20000b98:	4222      	tst	r2, r4
20000b9a:	d10c      	bne.n	20000bb6 <_hw_endpoint_buffer_control_update32+0x3a>
20000b9c:	4a08      	ldr	r2, [pc, #32]	@ (20000bc0 <_hw_endpoint_buffer_control_update32+0x44>)
20000b9e:	400a      	ands	r2, r1
20000ba0:	601a      	str	r2, [r3, #0]
20000ba2:	4a08      	ldr	r2, [pc, #32]	@ (20000bc4 <_hw_endpoint_buffer_control_update32+0x48>)
20000ba4:	6c12      	ldr	r2, [r2, #64]	@ 0x40
20000ba6:	0792      	lsls	r2, r2, #30
20000ba8:	d403      	bmi.n	20000bb2 <_hw_endpoint_buffer_control_update32+0x36>
20000baa:	230c      	movs	r3, #12
20000bac:	3b03      	subs	r3, #3
20000bae:	d2fd      	bcs.n	20000bac <_hw_endpoint_buffer_control_update32+0x30>
20000bb0:	6883      	ldr	r3, [r0, #8]
20000bb2:	6019      	str	r1, [r3, #0]
20000bb4:	bd10      	pop	{r4, pc}
20000bb6:	7881      	ldrb	r1, [r0, #2]
20000bb8:	4803      	ldr	r0, [pc, #12]	@ (20000bc8 <_hw_endpoint_buffer_control_update32+0x4c>)
20000bba:	f000 f9b5 	bl	20000f28 <panic>
20000bbe:	46c0      	nop			@ (mov r8, r8)
20000bc0:	fffffbff 	.word	0xfffffbff
20000bc4:	50110000 	.word	0x50110000
20000bc8:	2000520c 	.word	0x2000520c

20000bcc <hw_endpoint_start_next_buffer>:
20000bcc:	6843      	ldr	r3, [r0, #4]
20000bce:	b570      	push	{r4, r5, r6, lr}
20000bd0:	2100      	movs	r1, #0
20000bd2:	2580      	movs	r5, #128	@ 0x80
20000bd4:	0004      	movs	r4, r0
20000bd6:	681e      	ldr	r6, [r3, #0]
20000bd8:	f7ff fed8 	bl	2000098c <prepare_ep_buffer>
20000bdc:	4b12      	ldr	r3, [pc, #72]	@ (20000c28 <hw_endpoint_start_next_buffer+0x5c>)
20000bde:	016d      	lsls	r5, r5, #5
20000be0:	6c1a      	ldr	r2, [r3, #64]	@ 0x40
20000be2:	4305      	orrs	r5, r0
20000be4:	78a3      	ldrb	r3, [r4, #2]
20000be6:	0792      	lsls	r2, r2, #30
20000be8:	d50e      	bpl.n	20000c08 <hw_endpoint_start_next_buffer+0x3c>
20000bea:	065b      	lsls	r3, r3, #25
20000bec:	d00e      	beq.n	20000c0c <hw_endpoint_start_next_buffer+0x40>
20000bee:	4b0f      	ldr	r3, [pc, #60]	@ (20000c2c <hw_endpoint_start_next_buffer+0x60>)
20000bf0:	401e      	ands	r6, r3
20000bf2:	2380      	movs	r3, #128	@ 0x80
20000bf4:	059b      	lsls	r3, r3, #22
20000bf6:	4333      	orrs	r3, r6
20000bf8:	6862      	ldr	r2, [r4, #4]
20000bfa:	2100      	movs	r1, #0
20000bfc:	6013      	str	r3, [r2, #0]
20000bfe:	0020      	movs	r0, r4
20000c00:	002a      	movs	r2, r5
20000c02:	f7ff ffbb 	bl	20000b7c <_hw_endpoint_buffer_control_update32>
20000c06:	bd70      	pop	{r4, r5, r6, pc}
20000c08:	09db      	lsrs	r3, r3, #7
20000c0a:	d0f0      	beq.n	20000bee <hw_endpoint_start_next_buffer+0x22>
20000c0c:	8aa3      	ldrh	r3, [r4, #20]
20000c0e:	2b00      	cmp	r3, #0
20000c10:	d0ed      	beq.n	20000bee <hw_endpoint_start_next_buffer+0x22>
20000c12:	2101      	movs	r1, #1
20000c14:	0020      	movs	r0, r4
20000c16:	f7ff feb9 	bl	2000098c <prepare_ep_buffer>
20000c1a:	23a0      	movs	r3, #160	@ 0xa0
20000c1c:	4a04      	ldr	r2, [pc, #16]	@ (20000c30 <hw_endpoint_start_next_buffer+0x64>)
20000c1e:	05db      	lsls	r3, r3, #23
20000c20:	4032      	ands	r2, r6
20000c22:	4305      	orrs	r5, r0
20000c24:	4313      	orrs	r3, r2
20000c26:	e7e7      	b.n	20000bf8 <hw_endpoint_start_next_buffer+0x2c>
20000c28:	50110000 	.word	0x50110000
20000c2c:	afffffff 	.word	0xafffffff
20000c30:	dfffffff 	.word	0xdfffffff

20000c34 <hw_endpoint_xfer_continue>:
20000c34:	b570      	push	{r4, r5, r6, lr}
20000c36:	7e85      	ldrb	r5, [r0, #26]
20000c38:	0004      	movs	r4, r0
20000c3a:	2d00      	cmp	r5, #0
20000c3c:	d014      	beq.n	20000c68 <hw_endpoint_xfer_continue+0x34>
20000c3e:	f7ff ff57 	bl	20000af0 <_hw_endpoint_xfer_sync>
20000c42:	8aa3      	ldrh	r3, [r4, #20]
20000c44:	2b00      	cmp	r3, #0
20000c46:	d101      	bne.n	20000c4c <hw_endpoint_xfer_continue+0x18>
20000c48:	0028      	movs	r0, r5
20000c4a:	bd70      	pop	{r4, r5, r6, pc}
20000c4c:	0020      	movs	r0, r4
20000c4e:	f7ff ff77 	bl	20000b40 <e15_is_critical_frame_period>
20000c52:	2800      	cmp	r0, #0
20000c54:	d003      	beq.n	20000c5e <hw_endpoint_xfer_continue+0x2a>
20000c56:	2301      	movs	r3, #1
20000c58:	2500      	movs	r5, #0
20000c5a:	7723      	strb	r3, [r4, #28]
20000c5c:	e7f4      	b.n	20000c48 <hw_endpoint_xfer_continue+0x14>
20000c5e:	0020      	movs	r0, r4
20000c60:	f7ff ffb4 	bl	20000bcc <hw_endpoint_start_next_buffer>
20000c64:	2500      	movs	r5, #0
20000c66:	e7ef      	b.n	20000c48 <hw_endpoint_xfer_continue+0x14>
20000c68:	7881      	ldrb	r1, [r0, #2]
20000c6a:	4801      	ldr	r0, [pc, #4]	@ (20000c70 <hw_endpoint_xfer_continue+0x3c>)
20000c6c:	f000 f95c 	bl	20000f28 <panic>
20000c70:	2000522c 	.word	0x2000522c

20000c74 <dcd_event_handler>:
20000c74:	b5f0      	push	{r4, r5, r6, r7, lr}
20000c76:	4647      	mov	r7, r8
20000c78:	46ce      	mov	lr, r9
20000c7a:	b580      	push	{r7, lr}
20000c7c:	7843      	ldrb	r3, [r0, #1]
20000c7e:	0005      	movs	r5, r0
20000c80:	000f      	movs	r7, r1
20000c82:	b085      	sub	sp, #20
20000c84:	2b06      	cmp	r3, #6
20000c86:	d807      	bhi.n	20000c98 <dcd_event_handler+0x24>
20000c88:	4a69      	ldr	r2, [pc, #420]	@ (20000e30 <dcd_event_handler+0x1bc>)
20000c8a:	009b      	lsls	r3, r3, #2
20000c8c:	58d3      	ldr	r3, [r2, r3]
20000c8e:	469f      	mov	pc, r3
20000c90:	4a68      	ldr	r2, [pc, #416]	@ (20000e34 <dcd_event_handler+0x1c0>)
20000c92:	7813      	ldrb	r3, [r2, #0]
20000c94:	3301      	adds	r3, #1
20000c96:	7013      	strb	r3, [r2, #0]
20000c98:	4b67      	ldr	r3, [pc, #412]	@ (20000e38 <dcd_event_handler+0x1c4>)
20000c9a:	681c      	ldr	r4, [r3, #0]
20000c9c:	6962      	ldr	r2, [r4, #20]
20000c9e:	f3ef 8110 	mrs	r1, PRIMASK
20000ca2:	b672      	cpsid	i
20000ca4:	6813      	ldr	r3, [r2, #0]
20000ca6:	2b00      	cmp	r3, #0
20000ca8:	d0fc      	beq.n	20000ca4 <dcd_event_handler+0x30>
20000caa:	f3bf 8f5f 	dmb	sy
20000cae:	61a1      	str	r1, [r4, #24]
20000cb0:	0020      	movs	r0, r4
20000cb2:	0029      	movs	r1, r5
20000cb4:	f003 ff7c 	bl	20004bb0 <tu_fifo_write>
20000cb8:	6962      	ldr	r2, [r4, #20]
20000cba:	69a3      	ldr	r3, [r4, #24]
20000cbc:	f3bf 8f5f 	dmb	sy
20000cc0:	2100      	movs	r1, #0
20000cc2:	6011      	str	r1, [r2, #0]
20000cc4:	f383 8810 	msr	PRIMASK, r3
20000cc8:	2800      	cmp	r0, #0
20000cca:	d104      	bne.n	20000cd6 <dcd_event_handler+0x62>
20000ccc:	b005      	add	sp, #20
20000cce:	bcc0      	pop	{r6, r7}
20000cd0:	46b9      	mov	r9, r7
20000cd2:	46b0      	mov	r8, r6
20000cd4:	bdf0      	pop	{r4, r5, r6, r7, pc}
20000cd6:	003a      	movs	r2, r7
20000cd8:	7869      	ldrb	r1, [r5, #1]
20000cda:	7828      	ldrb	r0, [r5, #0]
20000cdc:	f002 fa50 	bl	20003180 <tud_event_hook_cb>
20000ce0:	e7f4      	b.n	20000ccc <dcd_event_handler+0x58>
20000ce2:	2101      	movs	r1, #1
20000ce4:	4b55      	ldr	r3, [pc, #340]	@ (20000e3c <dcd_event_handler+0x1c8>)
20000ce6:	781a      	ldrb	r2, [r3, #0]
20000ce8:	438a      	bics	r2, r1
20000cea:	701a      	strb	r2, [r3, #0]
20000cec:	781a      	ldrb	r2, [r3, #0]
20000cee:	3101      	adds	r1, #1
20000cf0:	438a      	bics	r2, r1
20000cf2:	701a      	strb	r2, [r3, #0]
20000cf4:	2200      	movs	r2, #0
20000cf6:	705a      	strb	r2, [r3, #1]
20000cf8:	781a      	ldrb	r2, [r3, #0]
20000cfa:	3102      	adds	r1, #2
20000cfc:	438a      	bics	r2, r1
20000cfe:	701a      	strb	r2, [r3, #0]
20000d00:	e7ca      	b.n	20000c98 <dcd_event_handler+0x24>
20000d02:	494f      	ldr	r1, [pc, #316]	@ (20000e40 <dcd_event_handler+0x1cc>)
20000d04:	4b4f      	ldr	r3, [pc, #316]	@ (20000e44 <dcd_event_handler+0x1d0>)
20000d06:	4688      	mov	r8, r1
20000d08:	494f      	ldr	r1, [pc, #316]	@ (20000e48 <dcd_event_handler+0x1d4>)
20000d0a:	001e      	movs	r6, r3
20000d0c:	781a      	ldrb	r2, [r3, #0]
20000d0e:	2400      	movs	r4, #0
20000d10:	2300      	movs	r3, #0
20000d12:	4689      	mov	r9, r1
20000d14:	e012      	b.n	20000d3c <dcd_event_handler+0xc8>
20000d16:	464b      	mov	r3, r9
20000d18:	681b      	ldr	r3, [r3, #0]
20000d1a:	0161      	lsls	r1, r4, #5
20000d1c:	185b      	adds	r3, r3, r1
20000d1e:	2b00      	cmp	r3, #0
20000d20:	d006      	beq.n	20000d30 <dcd_event_handler+0xbc>
20000d22:	69db      	ldr	r3, [r3, #28]
20000d24:	2b00      	cmp	r3, #0
20000d26:	d003      	beq.n	20000d30 <dcd_event_handler+0xbc>
20000d28:	6869      	ldr	r1, [r5, #4]
20000d2a:	7828      	ldrb	r0, [r5, #0]
20000d2c:	4798      	blx	r3
20000d2e:	7832      	ldrb	r2, [r6, #0]
20000d30:	3401      	adds	r4, #1
20000d32:	b2e4      	uxtb	r4, r4
20000d34:	1c51      	adds	r1, r2, #1
20000d36:	0023      	movs	r3, r4
20000d38:	42a1      	cmp	r1, r4
20000d3a:	db17      	blt.n	20000d6c <dcd_event_handler+0xf8>
20000d3c:	42a2      	cmp	r2, r4
20000d3e:	d8ea      	bhi.n	20000d16 <dcd_event_handler+0xa2>
20000d40:	1a9b      	subs	r3, r3, r2
20000d42:	015b      	lsls	r3, r3, #5
20000d44:	4443      	add	r3, r8
20000d46:	e7ec      	b.n	20000d22 <dcd_event_handler+0xae>
20000d48:	4b3c      	ldr	r3, [pc, #240]	@ (20000e3c <dcd_event_handler+0x1c8>)
20000d4a:	781a      	ldrb	r2, [r3, #0]
20000d4c:	07d2      	lsls	r2, r2, #31
20000d4e:	d5bd      	bpl.n	20000ccc <dcd_event_handler+0x58>
20000d50:	2104      	movs	r1, #4
20000d52:	781a      	ldrb	r2, [r3, #0]
20000d54:	430a      	orrs	r2, r1
20000d56:	701a      	strb	r2, [r3, #0]
20000d58:	e79e      	b.n	20000c98 <dcd_event_handler+0x24>
20000d5a:	4b38      	ldr	r3, [pc, #224]	@ (20000e3c <dcd_event_handler+0x1c8>)
20000d5c:	781a      	ldrb	r2, [r3, #0]
20000d5e:	07d2      	lsls	r2, r2, #31
20000d60:	d5b4      	bpl.n	20000ccc <dcd_event_handler+0x58>
20000d62:	2104      	movs	r1, #4
20000d64:	781a      	ldrb	r2, [r3, #0]
20000d66:	438a      	bics	r2, r1
20000d68:	701a      	strb	r2, [r3, #0]
20000d6a:	e795      	b.n	20000c98 <dcd_event_handler+0x24>
20000d6c:	4a33      	ldr	r2, [pc, #204]	@ (20000e3c <dcd_event_handler+0x1c8>)
20000d6e:	7813      	ldrb	r3, [r2, #0]
20000d70:	4690      	mov	r8, r2
20000d72:	0011      	movs	r1, r2
20000d74:	075b      	lsls	r3, r3, #29
20000d76:	d528      	bpl.n	20000dca <dcd_event_handler+0x156>
20000d78:	7813      	ldrb	r3, [r2, #0]
20000d7a:	2204      	movs	r2, #4
20000d7c:	ac01      	add	r4, sp, #4
20000d7e:	4393      	bics	r3, r2
20000d80:	700b      	strb	r3, [r1, #0]
20000d82:	0020      	movs	r0, r4
20000d84:	2100      	movs	r1, #0
20000d86:	3208      	adds	r2, #8
20000d88:	f001 fb1c 	bl	200023c4 <__wrap_memset>
20000d8c:	782b      	ldrb	r3, [r5, #0]
20000d8e:	7023      	strb	r3, [r4, #0]
20000d90:	2305      	movs	r3, #5
20000d92:	7063      	strb	r3, [r4, #1]
20000d94:	4b28      	ldr	r3, [pc, #160]	@ (20000e38 <dcd_event_handler+0x1c4>)
20000d96:	681b      	ldr	r3, [r3, #0]
20000d98:	0018      	movs	r0, r3
20000d9a:	695a      	ldr	r2, [r3, #20]
20000d9c:	f3ef 8110 	mrs	r1, PRIMASK
20000da0:	b672      	cpsid	i
20000da2:	6813      	ldr	r3, [r2, #0]
20000da4:	2b00      	cmp	r3, #0
20000da6:	d0fc      	beq.n	20000da2 <dcd_event_handler+0x12e>
20000da8:	f3bf 8f5f 	dmb	sy
20000dac:	0006      	movs	r6, r0
20000dae:	6181      	str	r1, [r0, #24]
20000db0:	0021      	movs	r1, r4
20000db2:	f003 fefd 	bl	20004bb0 <tu_fifo_write>
20000db6:	6972      	ldr	r2, [r6, #20]
20000db8:	69b3      	ldr	r3, [r6, #24]
20000dba:	f3bf 8f5f 	dmb	sy
20000dbe:	2100      	movs	r1, #0
20000dc0:	6011      	str	r1, [r2, #0]
20000dc2:	f383 8810 	msr	PRIMASK, r3
20000dc6:	2800      	cmp	r0, #0
20000dc8:	d12c      	bne.n	20000e24 <dcd_event_handler+0x1b0>
20000dca:	4643      	mov	r3, r8
20000dcc:	78db      	ldrb	r3, [r3, #3]
20000dce:	07db      	lsls	r3, r3, #31
20000dd0:	d400      	bmi.n	20000dd4 <dcd_event_handler+0x160>
20000dd2:	e77b      	b.n	20000ccc <dcd_event_handler+0x58>
20000dd4:	782b      	ldrb	r3, [r5, #0]
20000dd6:	ac01      	add	r4, sp, #4
20000dd8:	7023      	strb	r3, [r4, #0]
20000dda:	2303      	movs	r3, #3
20000ddc:	7063      	strb	r3, [r4, #1]
20000dde:	686b      	ldr	r3, [r5, #4]
20000de0:	6063      	str	r3, [r4, #4]
20000de2:	4b15      	ldr	r3, [pc, #84]	@ (20000e38 <dcd_event_handler+0x1c4>)
20000de4:	681d      	ldr	r5, [r3, #0]
20000de6:	696a      	ldr	r2, [r5, #20]
20000de8:	f3ef 8110 	mrs	r1, PRIMASK
20000dec:	b672      	cpsid	i
20000dee:	6813      	ldr	r3, [r2, #0]
20000df0:	2b00      	cmp	r3, #0
20000df2:	d0fc      	beq.n	20000dee <dcd_event_handler+0x17a>
20000df4:	f3bf 8f5f 	dmb	sy
20000df8:	61a9      	str	r1, [r5, #24]
20000dfa:	0028      	movs	r0, r5
20000dfc:	0021      	movs	r1, r4
20000dfe:	f003 fed7 	bl	20004bb0 <tu_fifo_write>
20000e02:	696a      	ldr	r2, [r5, #20]
20000e04:	69ab      	ldr	r3, [r5, #24]
20000e06:	f3bf 8f5f 	dmb	sy
20000e0a:	2100      	movs	r1, #0
20000e0c:	6011      	str	r1, [r2, #0]
20000e0e:	f383 8810 	msr	PRIMASK, r3
20000e12:	2800      	cmp	r0, #0
20000e14:	d100      	bne.n	20000e18 <dcd_event_handler+0x1a4>
20000e16:	e759      	b.n	20000ccc <dcd_event_handler+0x58>
20000e18:	003a      	movs	r2, r7
20000e1a:	7861      	ldrb	r1, [r4, #1]
20000e1c:	7820      	ldrb	r0, [r4, #0]
20000e1e:	f002 f9af 	bl	20003180 <tud_event_hook_cb>
20000e22:	e753      	b.n	20000ccc <dcd_event_handler+0x58>
20000e24:	003a      	movs	r2, r7
20000e26:	7861      	ldrb	r1, [r4, #1]
20000e28:	7820      	ldrb	r0, [r4, #0]
20000e2a:	f002 f9a9 	bl	20003180 <tud_event_hook_cb>
20000e2e:	e7cc      	b.n	20000dca <dcd_event_handler+0x156>
20000e30:	20005474 	.word	0x20005474
20000e34:	200063e3 	.word	0x200063e3
20000e38:	20005b90 	.word	0x20005b90
20000e3c:	20005b38 	.word	0x20005b38
20000e40:	20005490 	.word	0x20005490
20000e44:	200063e1 	.word	0x200063e1
20000e48:	20005a50 	.word	0x20005a50

20000e4c <main>:
20000e4c:	b570      	push	{r4, r5, r6, lr}
20000e4e:	4c23      	ldr	r4, [pc, #140]	@ (20000edc <main+0x90>)
20000e50:	b08a      	sub	sp, #40	@ 0x28
20000e52:	f001 fbe1 	bl	20002618 <stdio_init_all>
20000e56:	4922      	ldr	r1, [pc, #136]	@ (20000ee0 <main+0x94>)
20000e58:	0020      	movs	r0, r4
20000e5a:	f003 fff3 	bl	20004e44 <pio_add_program>
20000e5e:	2300      	movs	r3, #0
20000e60:	2280      	movs	r2, #128	@ 0x80
20000e62:	9305      	str	r3, [sp, #20]
20000e64:	23f8      	movs	r3, #248	@ 0xf8
20000e66:	0252      	lsls	r2, r2, #9
20000e68:	025b      	lsls	r3, r3, #9
20000e6a:	9202      	str	r2, [sp, #8]
20000e6c:	9303      	str	r3, [sp, #12]
20000e6e:	23c0      	movs	r3, #192	@ 0xc0
20000e70:	0005      	movs	r5, r0
20000e72:	2601      	movs	r6, #1
20000e74:	031b      	lsls	r3, r3, #12
20000e76:	2210      	movs	r2, #16
20000e78:	a902      	add	r1, sp, #8
20000e7a:	a806      	add	r0, sp, #24
20000e7c:	9304      	str	r3, [sp, #16]
20000e7e:	f001 faa7 	bl	200023d0 <__wrap___aeabi_memcpy>
20000e82:	1cab      	adds	r3, r5, #2
20000e84:	1dea      	adds	r2, r5, #7
20000e86:	0312      	lsls	r2, r2, #12
20000e88:	01db      	lsls	r3, r3, #7
20000e8a:	4313      	orrs	r3, r2
20000e8c:	a906      	add	r1, sp, #24
20000e8e:	2210      	movs	r2, #16
20000e90:	a802      	add	r0, sp, #8
20000e92:	9307      	str	r3, [sp, #28]
20000e94:	f001 fa9c 	bl	200023d0 <__wrap___aeabi_memcpy>
20000e98:	4b12      	ldr	r3, [pc, #72]	@ (20000ee4 <main+0x98>)
20000e9a:	2106      	movs	r1, #6
20000e9c:	2019      	movs	r0, #25
20000e9e:	9305      	str	r3, [sp, #20]
20000ea0:	f000 f824 	bl	20000eec <gpio_set_function>
20000ea4:	2301      	movs	r3, #1
20000ea6:	2219      	movs	r2, #25
20000ea8:	2100      	movs	r1, #0
20000eaa:	0020      	movs	r0, r4
20000eac:	9600      	str	r6, [sp, #0]
20000eae:	f004 f845 	bl	20004f3c <pio_sm_set_consecutive_pindirs>
20000eb2:	23fa      	movs	r3, #250	@ 0xfa
20000eb4:	03db      	lsls	r3, r3, #15
20000eb6:	002a      	movs	r2, r5
20000eb8:	9302      	str	r3, [sp, #8]
20000eba:	2100      	movs	r1, #0
20000ebc:	ab02      	add	r3, sp, #8
20000ebe:	0020      	movs	r0, r4
20000ec0:	f004 f894 	bl	20004fec <pio_sm_init>
20000ec4:	2280      	movs	r2, #128	@ 0x80
20000ec6:	6823      	ldr	r3, [r4, #0]
20000ec8:	0252      	lsls	r2, r2, #9
20000eca:	4333      	orrs	r3, r6
20000ecc:	6023      	str	r3, [r4, #0]
20000ece:	6863      	ldr	r3, [r4, #4]
20000ed0:	4213      	tst	r3, r2
20000ed2:	d1fc      	bne.n	20000ece <main+0x82>
20000ed4:	4b04      	ldr	r3, [pc, #16]	@ (20000ee8 <main+0x9c>)
20000ed6:	6123      	str	r3, [r4, #16]
20000ed8:	e7fe      	b.n	20000ed8 <main+0x8c>
20000eda:	46c0      	nop			@ (mov r8, r8)
20000edc:	50200000 	.word	0x50200000
20000ee0:	200050f8 	.word	0x200050f8
20000ee4:	04000320 	.word	0x04000320
20000ee8:	000f4240 	.word	0x000f4240

20000eec <gpio_set_function>:
20000eec:	b510      	push	{r4, lr}
20000eee:	2440      	movs	r4, #64	@ 0x40
20000ef0:	4a07      	ldr	r2, [pc, #28]	@ (20000f10 <gpio_set_function+0x24>)
20000ef2:	0083      	lsls	r3, r0, #2
20000ef4:	189a      	adds	r2, r3, r2
20000ef6:	6812      	ldr	r2, [r2, #0]
20000ef8:	00c0      	lsls	r0, r0, #3
20000efa:	4054      	eors	r4, r2
20000efc:	22c0      	movs	r2, #192	@ 0xc0
20000efe:	4022      	ands	r2, r4
20000f00:	4c04      	ldr	r4, [pc, #16]	@ (20000f14 <gpio_set_function+0x28>)
20000f02:	191b      	adds	r3, r3, r4
20000f04:	601a      	str	r2, [r3, #0]
20000f06:	4b04      	ldr	r3, [pc, #16]	@ (20000f18 <gpio_set_function+0x2c>)
20000f08:	18c0      	adds	r0, r0, r3
20000f0a:	6041      	str	r1, [r0, #4]
20000f0c:	bd10      	pop	{r4, pc}
20000f0e:	46c0      	nop			@ (mov r8, r8)
20000f10:	4001c004 	.word	0x4001c004
20000f14:	4001d004 	.word	0x4001d004
20000f18:	40014000 	.word	0x40014000

20000f1c <rp2040_chip_version>:
20000f1c:	2380      	movs	r3, #128	@ 0x80
20000f1e:	05db      	lsls	r3, r3, #23
20000f20:	6818      	ldr	r0, [r3, #0]
20000f22:	0f00      	lsrs	r0, r0, #28
20000f24:	4770      	bx	lr
20000f26:	46c0      	nop			@ (mov r8, r8)

20000f28 <panic>:
20000f28:	b40f      	push	{r0, r1, r2, r3}
20000f2a:	b500      	push	{lr}
20000f2c:	4808      	ldr	r0, [pc, #32]	@ (20000f50 <panic+0x28>)
20000f2e:	b083      	sub	sp, #12
20000f30:	f001 fbc0 	bl	200026b4 <__wrap_puts>
20000f34:	9b04      	ldr	r3, [sp, #16]
20000f36:	2b00      	cmp	r3, #0
20000f38:	d007      	beq.n	20000f4a <panic+0x22>
20000f3a:	a905      	add	r1, sp, #20
20000f3c:	0018      	movs	r0, r3
20000f3e:	9101      	str	r1, [sp, #4]
20000f40:	f001 fa54 	bl	200023ec <weak_raw_vprintf>
20000f44:	4803      	ldr	r0, [pc, #12]	@ (20000f54 <panic+0x2c>)
20000f46:	f001 fbb5 	bl	200026b4 <__wrap_puts>
20000f4a:	2001      	movs	r0, #1
20000f4c:	f001 fa66 	bl	2000241c <_exit>
20000f50:	20005110 	.word	0x20005110
20000f54:	20005120 	.word	0x20005120

20000f58 <hw_claim_lock>:
20000f58:	f3ef 8010 	mrs	r0, PRIMASK
20000f5c:	b672      	cpsid	i
20000f5e:	4a03      	ldr	r2, [pc, #12]	@ (20000f6c <hw_claim_lock+0x14>)
20000f60:	6813      	ldr	r3, [r2, #0]
20000f62:	2b00      	cmp	r3, #0
20000f64:	d0fc      	beq.n	20000f60 <hw_claim_lock+0x8>
20000f66:	f3bf 8f5f 	dmb	sy
20000f6a:	4770      	bx	lr
20000f6c:	d000012c 	.word	0xd000012c

20000f70 <hw_claim_unlock>:
20000f70:	f3bf 8f5f 	dmb	sy
20000f74:	2200      	movs	r2, #0
20000f76:	4b02      	ldr	r3, [pc, #8]	@ (20000f80 <hw_claim_unlock+0x10>)
20000f78:	601a      	str	r2, [r3, #0]
20000f7a:	f380 8810 	msr	PRIMASK, r0
20000f7e:	4770      	bx	lr
20000f80:	d000012c 	.word	0xd000012c

20000f84 <hw_claim_or_assert>:
20000f84:	b570      	push	{r4, r5, r6, lr}
20000f86:	468c      	mov	ip, r1
20000f88:	0016      	movs	r6, r2
20000f8a:	f3ef 8410 	mrs	r4, PRIMASK
20000f8e:	b672      	cpsid	i
20000f90:	490f      	ldr	r1, [pc, #60]	@ (20000fd0 <hw_claim_or_assert+0x4c>)
20000f92:	680b      	ldr	r3, [r1, #0]
20000f94:	2b00      	cmp	r3, #0
20000f96:	d0fc      	beq.n	20000f92 <hw_claim_or_assert+0xe>
20000f98:	f3bf 8f5f 	dmb	sy
20000f9c:	4663      	mov	r3, ip
20000f9e:	08db      	lsrs	r3, r3, #3
20000fa0:	18c5      	adds	r5, r0, r3
20000fa2:	2207      	movs	r2, #7
20000fa4:	5cc0      	ldrb	r0, [r0, r3]
20000fa6:	4663      	mov	r3, ip
20000fa8:	401a      	ands	r2, r3
20000faa:	2301      	movs	r3, #1
20000fac:	4093      	lsls	r3, r2
20000fae:	001a      	movs	r2, r3
20000fb0:	4002      	ands	r2, r0
20000fb2:	4203      	tst	r3, r0
20000fb4:	d107      	bne.n	20000fc6 <hw_claim_or_assert+0x42>
20000fb6:	4318      	orrs	r0, r3
20000fb8:	7028      	strb	r0, [r5, #0]
20000fba:	f3bf 8f5f 	dmb	sy
20000fbe:	600a      	str	r2, [r1, #0]
20000fc0:	f384 8810 	msr	PRIMASK, r4
20000fc4:	bd70      	pop	{r4, r5, r6, pc}
20000fc6:	4661      	mov	r1, ip
20000fc8:	0030      	movs	r0, r6
20000fca:	f7ff ffad 	bl	20000f28 <panic>
20000fce:	46c0      	nop			@ (mov r8, r8)
20000fd0:	d000012c 	.word	0xd000012c

20000fd4 <hw_claim_unused_from_range>:
20000fd4:	b5f8      	push	{r3, r4, r5, r6, r7, lr}
20000fd6:	46ce      	mov	lr, r9
20000fd8:	4647      	mov	r7, r8
20000fda:	468c      	mov	ip, r1
20000fdc:	b580      	push	{r7, lr}
20000fde:	001c      	movs	r4, r3
20000fe0:	f3ef 8810 	mrs	r8, PRIMASK
20000fe4:	b672      	cpsid	i
20000fe6:	491c      	ldr	r1, [pc, #112]	@ (20001058 <hw_claim_unused_from_range+0x84>)
20000fe8:	680b      	ldr	r3, [r1, #0]
20000fea:	2b00      	cmp	r3, #0
20000fec:	d0fc      	beq.n	20000fe8 <hw_claim_unused_from_range+0x14>
20000fee:	f3bf 8f5f 	dmb	sy
20000ff2:	42a2      	cmp	r2, r4
20000ff4:	d821      	bhi.n	2000103a <hw_claim_unused_from_range+0x66>
20000ff6:	2307      	movs	r3, #7
20000ff8:	4699      	mov	r9, r3
20000ffa:	e002      	b.n	20001002 <hw_claim_unused_from_range+0x2e>
20000ffc:	3201      	adds	r2, #1
20000ffe:	4294      	cmp	r4, r2
20001000:	d318      	bcc.n	20001034 <hw_claim_unused_from_range+0x60>
20001002:	4649      	mov	r1, r9
20001004:	2601      	movs	r6, #1
20001006:	4011      	ands	r1, r2
20001008:	408e      	lsls	r6, r1
2000100a:	08d3      	lsrs	r3, r2, #3
2000100c:	18c7      	adds	r7, r0, r3
2000100e:	5cc3      	ldrb	r3, [r0, r3]
20001010:	421e      	tst	r6, r3
20001012:	d1f3      	bne.n	20000ffc <hw_claim_unused_from_range+0x28>
20001014:	0010      	movs	r0, r2
20001016:	4333      	orrs	r3, r6
20001018:	703b      	strb	r3, [r7, #0]
2000101a:	f3bf 8f5f 	dmb	sy
2000101e:	2200      	movs	r2, #0
20001020:	4b0d      	ldr	r3, [pc, #52]	@ (20001058 <hw_claim_unused_from_range+0x84>)
20001022:	601a      	str	r2, [r3, #0]
20001024:	f388 8810 	msr	PRIMASK, r8
20001028:	2800      	cmp	r0, #0
2000102a:	db0e      	blt.n	2000104a <hw_claim_unused_from_range+0x76>
2000102c:	bcc0      	pop	{r6, r7}
2000102e:	46b9      	mov	r9, r7
20001030:	46b0      	mov	r8, r6
20001032:	bdf8      	pop	{r3, r4, r5, r6, r7, pc}
20001034:	2001      	movs	r0, #1
20001036:	4240      	negs	r0, r0
20001038:	e7ef      	b.n	2000101a <hw_claim_unused_from_range+0x46>
2000103a:	f3bf 8f5f 	dmb	sy
2000103e:	2300      	movs	r3, #0
20001040:	600b      	str	r3, [r1, #0]
20001042:	f388 8810 	msr	PRIMASK, r8
20001046:	2001      	movs	r0, #1
20001048:	4240      	negs	r0, r0
2000104a:	4663      	mov	r3, ip
2000104c:	2b00      	cmp	r3, #0
2000104e:	d0ed      	beq.n	2000102c <hw_claim_unused_from_range+0x58>
20001050:	9808      	ldr	r0, [sp, #32]
20001052:	f7ff ff69 	bl	20000f28 <panic>
20001056:	46c0      	nop			@ (mov r8, r8)
20001058:	d000012c 	.word	0xd000012c

2000105c <next_striped_spin_lock_num>:
2000105c:	4a04      	ldr	r2, [pc, #16]	@ (20001070 <next_striped_spin_lock_num+0x14>)
2000105e:	7810      	ldrb	r0, [r2, #0]
20001060:	1c43      	adds	r3, r0, #1
20001062:	b2db      	uxtb	r3, r3
20001064:	2b17      	cmp	r3, #23
20001066:	d900      	bls.n	2000106a <next_striped_spin_lock_num+0xe>
20001068:	2310      	movs	r3, #16
2000106a:	7013      	strb	r3, [r2, #0]
2000106c:	4770      	bx	lr
2000106e:	46c0      	nop			@ (mov r8, r8)
20001070:	200054f0 	.word	0x200054f0

20001074 <spin_lock_claim_unused>:
20001074:	b500      	push	{lr}
20001076:	4b05      	ldr	r3, [pc, #20]	@ (2000108c <spin_lock_claim_unused+0x18>)
20001078:	b083      	sub	sp, #12
2000107a:	0001      	movs	r1, r0
2000107c:	9300      	str	r3, [sp, #0]
2000107e:	2218      	movs	r2, #24
20001080:	231f      	movs	r3, #31
20001082:	4803      	ldr	r0, [pc, #12]	@ (20001090 <spin_lock_claim_unused+0x1c>)
20001084:	f7ff ffa6 	bl	20000fd4 <hw_claim_unused_from_range>
20001088:	b003      	add	sp, #12
2000108a:	bd00      	pop	{pc}
2000108c:	20005124 	.word	0x20005124
20001090:	20005f30 	.word	0x20005f30

20001094 <spin_locks_reset>:
20001094:	2100      	movs	r1, #0
20001096:	4b04      	ldr	r3, [pc, #16]	@ (200010a8 <spin_locks_reset+0x14>)
20001098:	4a04      	ldr	r2, [pc, #16]	@ (200010ac <spin_locks_reset+0x18>)
2000109a:	f3bf 8f5f 	dmb	sy
2000109e:	c302      	stmia	r3!, {r1}
200010a0:	4293      	cmp	r3, r2
200010a2:	d1fa      	bne.n	2000109a <spin_locks_reset+0x6>
200010a4:	4770      	bx	lr
200010a6:	46c0      	nop			@ (mov r8, r8)
200010a8:	d0000100 	.word	0xd0000100
200010ac:	d0000180 	.word	0xd0000180

200010b0 <runtime_init_per_core_irq_priorities>:
200010b0:	4b08      	ldr	r3, [pc, #32]	@ (200010d4 <runtime_init_per_core_irq_priorities+0x24>)
200010b2:	4a09      	ldr	r2, [pc, #36]	@ (200010d8 <runtime_init_per_core_irq_priorities+0x28>)
200010b4:	6013      	str	r3, [r2, #0]
200010b6:	4a09      	ldr	r2, [pc, #36]	@ (200010dc <runtime_init_per_core_irq_priorities+0x2c>)
200010b8:	6013      	str	r3, [r2, #0]
200010ba:	4a09      	ldr	r2, [pc, #36]	@ (200010e0 <runtime_init_per_core_irq_priorities+0x30>)
200010bc:	6013      	str	r3, [r2, #0]
200010be:	4a09      	ldr	r2, [pc, #36]	@ (200010e4 <runtime_init_per_core_irq_priorities+0x34>)
200010c0:	6013      	str	r3, [r2, #0]
200010c2:	4a09      	ldr	r2, [pc, #36]	@ (200010e8 <runtime_init_per_core_irq_priorities+0x38>)
200010c4:	6013      	str	r3, [r2, #0]
200010c6:	4a09      	ldr	r2, [pc, #36]	@ (200010ec <runtime_init_per_core_irq_priorities+0x3c>)
200010c8:	6013      	str	r3, [r2, #0]
200010ca:	4a09      	ldr	r2, [pc, #36]	@ (200010f0 <runtime_init_per_core_irq_priorities+0x40>)
200010cc:	6013      	str	r3, [r2, #0]
200010ce:	4a09      	ldr	r2, [pc, #36]	@ (200010f4 <runtime_init_per_core_irq_priorities+0x44>)
200010d0:	6013      	str	r3, [r2, #0]
200010d2:	4770      	bx	lr
200010d4:	80808080 	.word	0x80808080
200010d8:	e000e400 	.word	0xe000e400
200010dc:	e000e404 	.word	0xe000e404
200010e0:	e000e408 	.word	0xe000e408
200010e4:	e000e40c 	.word	0xe000e40c
200010e8:	e000e410 	.word	0xe000e410
200010ec:	e000e414 	.word	0xe000e414
200010f0:	e000e418 	.word	0xe000e418
200010f4:	e000e41c 	.word	0xe000e41c

200010f8 <irq_set_enabled>:
200010f8:	231f      	movs	r3, #31
200010fa:	4018      	ands	r0, r3
200010fc:	3b1e      	subs	r3, #30
200010fe:	4083      	lsls	r3, r0
20001100:	2900      	cmp	r1, #0
20001102:	d005      	beq.n	20001110 <irq_set_enabled+0x18>
20001104:	21c0      	movs	r1, #192	@ 0xc0
20001106:	4a04      	ldr	r2, [pc, #16]	@ (20001118 <irq_set_enabled+0x20>)
20001108:	0049      	lsls	r1, r1, #1
2000110a:	5053      	str	r3, [r2, r1]
2000110c:	6013      	str	r3, [r2, #0]
2000110e:	4770      	bx	lr
20001110:	2280      	movs	r2, #128	@ 0x80
20001112:	4901      	ldr	r1, [pc, #4]	@ (20001118 <irq_set_enabled+0x20>)
20001114:	508b      	str	r3, [r1, r2]
20001116:	e7fa      	b.n	2000110e <irq_set_enabled+0x16>
20001118:	e000e100 	.word	0xe000e100

2000111c <irq_is_enabled>:
2000111c:	2201      	movs	r2, #1
2000111e:	4082      	lsls	r2, r0
20001120:	4b03      	ldr	r3, [pc, #12]	@ (20001130 <irq_is_enabled+0x14>)
20001122:	681b      	ldr	r3, [r3, #0]
20001124:	4013      	ands	r3, r2
20001126:	1e5a      	subs	r2, r3, #1
20001128:	4193      	sbcs	r3, r2
2000112a:	b2d8      	uxtb	r0, r3
2000112c:	4770      	bx	lr
2000112e:	46c0      	nop			@ (mov r8, r8)
20001130:	e000e100 	.word	0xe000e100

20001134 <irq_set_pending>:
20001134:	2301      	movs	r3, #1
20001136:	4083      	lsls	r3, r0
20001138:	4a01      	ldr	r2, [pc, #4]	@ (20001140 <irq_set_pending+0xc>)
2000113a:	6013      	str	r3, [r2, #0]
2000113c:	4770      	bx	lr
2000113e:	46c0      	nop			@ (mov r8, r8)
20001140:	e000e200 	.word	0xe000e200

20001144 <irq_has_shared_handler>:
20001144:	4b05      	ldr	r3, [pc, #20]	@ (2000115c <irq_has_shared_handler+0x18>)
20001146:	3010      	adds	r0, #16
20001148:	689b      	ldr	r3, [r3, #8]
2000114a:	0080      	lsls	r0, r0, #2
2000114c:	58c3      	ldr	r3, [r0, r3]
2000114e:	4a04      	ldr	r2, [pc, #16]	@ (20001160 <irq_has_shared_handler+0x1c>)
20001150:	2000      	movs	r0, #0
20001152:	1a9b      	subs	r3, r3, r2
20001154:	222f      	movs	r2, #47	@ 0x2f
20001156:	429a      	cmp	r2, r3
20001158:	4140      	adcs	r0, r0
2000115a:	4770      	bx	lr
2000115c:	e000ed00 	.word	0xe000ed00
20001160:	200054f4 	.word	0x200054f4

20001164 <irq_set_exclusive_handler>:
20001164:	b570      	push	{r4, r5, r6, lr}
20001166:	000d      	movs	r5, r1
20001168:	f3ef 8610 	mrs	r6, PRIMASK
2000116c:	b672      	cpsid	i
2000116e:	4a0f      	ldr	r2, [pc, #60]	@ (200011ac <irq_set_exclusive_handler+0x48>)
20001170:	6813      	ldr	r3, [r2, #0]
20001172:	2b00      	cmp	r3, #0
20001174:	d0fc      	beq.n	20001170 <irq_set_exclusive_handler+0xc>
20001176:	f3bf 8f5f 	dmb	sy
2000117a:	4b0d      	ldr	r3, [pc, #52]	@ (200011b0 <irq_set_exclusive_handler+0x4c>)
2000117c:	3010      	adds	r0, #16
2000117e:	689b      	ldr	r3, [r3, #8]
20001180:	0084      	lsls	r4, r0, #2
20001182:	591b      	ldr	r3, [r3, r4]
20001184:	4a0b      	ldr	r2, [pc, #44]	@ (200011b4 <irq_set_exclusive_handler+0x50>)
20001186:	4293      	cmp	r3, r2
20001188:	d003      	beq.n	20001192 <irq_set_exclusive_handler+0x2e>
2000118a:	429d      	cmp	r5, r3
2000118c:	d001      	beq.n	20001192 <irq_set_exclusive_handler+0x2e>
2000118e:	f000 ff4f 	bl	20002030 <hard_assertion_failure>
20001192:	4b07      	ldr	r3, [pc, #28]	@ (200011b0 <irq_set_exclusive_handler+0x4c>)
20001194:	689b      	ldr	r3, [r3, #8]
20001196:	511d      	str	r5, [r3, r4]
20001198:	f3bf 8f5f 	dmb	sy
2000119c:	f3bf 8f5f 	dmb	sy
200011a0:	2200      	movs	r2, #0
200011a2:	4b02      	ldr	r3, [pc, #8]	@ (200011ac <irq_set_exclusive_handler+0x48>)
200011a4:	601a      	str	r2, [r3, #0]
200011a6:	f386 8810 	msr	PRIMASK, r6
200011aa:	bd70      	pop	{r4, r5, r6, pc}
200011ac:	d0000124 	.word	0xd0000124
200011b0:	e000ed00 	.word	0xe000ed00
200011b4:	200001c1 	.word	0x200001c1

200011b8 <irq_add_shared_handler>:
200011b8:	b5f0      	push	{r4, r5, r6, r7, lr}
200011ba:	46de      	mov	lr, fp
200011bc:	4657      	mov	r7, sl
200011be:	464e      	mov	r6, r9
200011c0:	4645      	mov	r5, r8
200011c2:	b5e0      	push	{r5, r6, r7, lr}
200011c4:	4682      	mov	sl, r0
200011c6:	b083      	sub	sp, #12
200011c8:	468b      	mov	fp, r1
200011ca:	0017      	movs	r7, r2
200011cc:	f3ef 8810 	mrs	r8, PRIMASK
200011d0:	b672      	cpsid	i
200011d2:	4a60      	ldr	r2, [pc, #384]	@ (20001354 <irq_add_shared_handler+0x19c>)
200011d4:	6813      	ldr	r3, [r2, #0]
200011d6:	2b00      	cmp	r3, #0
200011d8:	d0fc      	beq.n	200011d4 <irq_add_shared_handler+0x1c>
200011da:	f3bf 8f5f 	dmb	sy
200011de:	2500      	movs	r5, #0
200011e0:	4b5d      	ldr	r3, [pc, #372]	@ (20001358 <irq_add_shared_handler+0x1a0>)
200011e2:	575d      	ldrsb	r5, [r3, r5]
200011e4:	4699      	mov	r9, r3
200011e6:	2d00      	cmp	r5, #0
200011e8:	da00      	bge.n	200011ec <irq_add_shared_handler+0x34>
200011ea:	e09a      	b.n	20001322 <irq_add_shared_handler+0x16a>
200011ec:	464a      	mov	r2, r9
200011ee:	006b      	lsls	r3, r5, #1
200011f0:	4c5a      	ldr	r4, [pc, #360]	@ (2000135c <irq_add_shared_handler+0x1a4>)
200011f2:	195e      	adds	r6, r3, r5
200011f4:	00b6      	lsls	r6, r6, #2
200011f6:	9301      	str	r3, [sp, #4]
200011f8:	19a3      	adds	r3, r4, r6
200011fa:	9300      	str	r3, [sp, #0]
200011fc:	799b      	ldrb	r3, [r3, #6]
200011fe:	7013      	strb	r3, [r2, #0]
20001200:	4b57      	ldr	r3, [pc, #348]	@ (20001360 <irq_add_shared_handler+0x1a8>)
20001202:	689a      	ldr	r2, [r3, #8]
20001204:	4653      	mov	r3, sl
20001206:	3310      	adds	r3, #16
20001208:	009b      	lsls	r3, r3, #2
2000120a:	58d1      	ldr	r1, [r2, r3]
2000120c:	4699      	mov	r9, r3
2000120e:	1b0b      	subs	r3, r1, r4
20001210:	2b2f      	cmp	r3, #47	@ 0x2f
20001212:	d932      	bls.n	2000127a <irq_add_shared_handler+0xc2>
20001214:	4b53      	ldr	r3, [pc, #332]	@ (20001364 <irq_add_shared_handler+0x1ac>)
20001216:	4299      	cmp	r1, r3
20001218:	d000      	beq.n	2000121c <irq_add_shared_handler+0x64>
2000121a:	e098      	b.n	2000134e <irq_add_shared_handler+0x196>
2000121c:	9b01      	ldr	r3, [sp, #4]
2000121e:	3602      	adds	r6, #2
20001220:	18ed      	adds	r5, r5, r3
20001222:	4b51      	ldr	r3, [pc, #324]	@ (20001368 <irq_add_shared_handler+0x1b0>)
20001224:	00ad      	lsls	r5, r5, #2
20001226:	5363      	strh	r3, [r4, r5]
20001228:	4b50      	ldr	r3, [pc, #320]	@ (2000136c <irq_add_shared_handler+0x1b4>)
2000122a:	19a6      	adds	r6, r4, r6
2000122c:	3b04      	subs	r3, #4
2000122e:	1b9b      	subs	r3, r3, r6
20001230:	4a4f      	ldr	r2, [pc, #316]	@ (20001370 <irq_add_shared_handler+0x1b8>)
20001232:	051b      	lsls	r3, r3, #20
20001234:	0d5b      	lsrs	r3, r3, #21
20001236:	1965      	adds	r5, r4, r5
20001238:	4313      	orrs	r3, r2
2000123a:	806b      	strh	r3, [r5, #2]
2000123c:	4b4d      	ldr	r3, [pc, #308]	@ (20001374 <irq_add_shared_handler+0x1bc>)
2000123e:	2101      	movs	r1, #1
20001240:	80ab      	strh	r3, [r5, #4]
20001242:	23ff      	movs	r3, #255	@ 0xff
20001244:	71ab      	strb	r3, [r5, #6]
20001246:	465b      	mov	r3, fp
20001248:	60ab      	str	r3, [r5, #8]
2000124a:	9b00      	ldr	r3, [sp, #0]
2000124c:	71ef      	strb	r7, [r5, #7]
2000124e:	430b      	orrs	r3, r1
20001250:	0019      	movs	r1, r3
20001252:	464a      	mov	r2, r9
20001254:	4b42      	ldr	r3, [pc, #264]	@ (20001360 <irq_add_shared_handler+0x1a8>)
20001256:	689b      	ldr	r3, [r3, #8]
20001258:	5099      	str	r1, [r3, r2]
2000125a:	f3bf 8f5f 	dmb	sy
2000125e:	f3bf 8f5f 	dmb	sy
20001262:	2200      	movs	r2, #0
20001264:	4b3b      	ldr	r3, [pc, #236]	@ (20001354 <irq_add_shared_handler+0x19c>)
20001266:	601a      	str	r2, [r3, #0]
20001268:	f388 8810 	msr	PRIMASK, r8
2000126c:	b003      	add	sp, #12
2000126e:	bcf0      	pop	{r4, r5, r6, r7}
20001270:	46bb      	mov	fp, r7
20001272:	46b2      	mov	sl, r6
20001274:	46a9      	mov	r9, r5
20001276:	46a0      	mov	r8, r4
20001278:	bdf0      	pop	{r4, r5, r6, r7, pc}
2000127a:	2001      	movs	r0, #1
2000127c:	000a      	movs	r2, r1
2000127e:	4382      	bics	r2, r0
20001280:	79d3      	ldrb	r3, [r2, #7]
20001282:	46b4      	mov	ip, r6
20001284:	42bb      	cmp	r3, r7
20001286:	d82d      	bhi.n	200012e4 <irq_add_shared_handler+0x12c>
20001288:	4b3b      	ldr	r3, [pc, #236]	@ (20001378 <irq_add_shared_handler+0x1c0>)
2000128a:	1cb5      	adds	r5, r6, #2
2000128c:	0019      	movs	r1, r3
2000128e:	0013      	movs	r3, r2
20001290:	1b1b      	subs	r3, r3, r4
20001292:	415b      	adcs	r3, r3
20001294:	4359      	muls	r1, r3
20001296:	0d09      	lsrs	r1, r1, #20
20001298:	468c      	mov	ip, r1
2000129a:	4b33      	ldr	r3, [pc, #204]	@ (20001368 <irq_add_shared_handler+0x1b0>)
2000129c:	1965      	adds	r5, r4, r5
2000129e:	53a3      	strh	r3, [r4, r6]
200012a0:	4b32      	ldr	r3, [pc, #200]	@ (2000136c <irq_add_shared_handler+0x1b4>)
200012a2:	9900      	ldr	r1, [sp, #0]
200012a4:	3b04      	subs	r3, #4
200012a6:	1b5b      	subs	r3, r3, r5
200012a8:	051b      	lsls	r3, r3, #20
200012aa:	4d31      	ldr	r5, [pc, #196]	@ (20001370 <irq_add_shared_handler+0x1b8>)
200012ac:	0d5b      	lsrs	r3, r3, #21
200012ae:	432b      	orrs	r3, r5
200012b0:	3604      	adds	r6, #4
200012b2:	804b      	strh	r3, [r1, #2]
200012b4:	19a6      	adds	r6, r4, r6
200012b6:	1f13      	subs	r3, r2, #4
200012b8:	1b9b      	subs	r3, r3, r6
200012ba:	051b      	lsls	r3, r3, #20
200012bc:	0d5b      	lsrs	r3, r3, #21
200012be:	431d      	orrs	r5, r3
200012c0:	4663      	mov	r3, ip
200012c2:	718b      	strb	r3, [r1, #6]
200012c4:	465b      	mov	r3, fp
200012c6:	608b      	str	r3, [r1, #8]
200012c8:	4b2c      	ldr	r3, [pc, #176]	@ (2000137c <irq_add_shared_handler+0x1c4>)
200012ca:	808d      	strh	r5, [r1, #4]
200012cc:	71cf      	strb	r7, [r1, #7]
200012ce:	6013      	str	r3, [r2, #0]
200012d0:	4301      	orrs	r1, r0
200012d2:	e7be      	b.n	20001252 <irq_add_shared_handler+0x9a>
200012d4:	0058      	lsls	r0, r3, #1
200012d6:	18c0      	adds	r0, r0, r3
200012d8:	0080      	lsls	r0, r0, #2
200012da:	1820      	adds	r0, r4, r0
200012dc:	79c6      	ldrb	r6, [r0, #7]
200012de:	42be      	cmp	r6, r7
200012e0:	d925      	bls.n	2000132e <irq_add_shared_handler+0x176>
200012e2:	0002      	movs	r2, r0
200012e4:	2306      	movs	r3, #6
200012e6:	56d3      	ldrsb	r3, [r2, r3]
200012e8:	2b00      	cmp	r3, #0
200012ea:	daf3      	bge.n	200012d4 <irq_add_shared_handler+0x11c>
200012ec:	469a      	mov	sl, r3
200012ee:	1d13      	adds	r3, r2, #4
200012f0:	469c      	mov	ip, r3
200012f2:	4823      	ldr	r0, [pc, #140]	@ (20001380 <irq_add_shared_handler+0x1c8>)
200012f4:	4663      	mov	r3, ip
200012f6:	9e00      	ldr	r6, [sp, #0]
200012f8:	7195      	strb	r5, [r2, #6]
200012fa:	3e04      	subs	r6, #4
200012fc:	1af6      	subs	r6, r6, r3
200012fe:	0536      	lsls	r6, r6, #20
20001300:	4b1b      	ldr	r3, [pc, #108]	@ (20001370 <irq_add_shared_handler+0x1b8>)
20001302:	0d76      	lsrs	r6, r6, #21
20001304:	431e      	orrs	r6, r3
20001306:	9b01      	ldr	r3, [sp, #4]
20001308:	8096      	strh	r6, [r2, #4]
2000130a:	195a      	adds	r2, r3, r5
2000130c:	4653      	mov	r3, sl
2000130e:	0092      	lsls	r2, r2, #2
20001310:	18a4      	adds	r4, r4, r2
20001312:	71a3      	strb	r3, [r4, #6]
20001314:	465b      	mov	r3, fp
20001316:	4a19      	ldr	r2, [pc, #100]	@ (2000137c <irq_add_shared_handler+0x1c4>)
20001318:	80a0      	strh	r0, [r4, #4]
2000131a:	6022      	str	r2, [r4, #0]
2000131c:	71e7      	strb	r7, [r4, #7]
2000131e:	60a3      	str	r3, [r4, #8]
20001320:	e797      	b.n	20001252 <irq_add_shared_handler+0x9a>
20001322:	f000 fe85 	bl	20002030 <hard_assertion_failure>
20001326:	2500      	movs	r5, #0
20001328:	464b      	mov	r3, r9
2000132a:	575d      	ldrsb	r5, [r3, r5]
2000132c:	e75e      	b.n	200011ec <irq_add_shared_handler+0x34>
2000132e:	4666      	mov	r6, ip
20001330:	469a      	mov	sl, r3
20001332:	1d13      	adds	r3, r2, #4
20001334:	469c      	mov	ip, r3
20001336:	8890      	ldrh	r0, [r2, #4]
20001338:	3604      	adds	r6, #4
2000133a:	0540      	lsls	r0, r0, #21
2000133c:	1500      	asrs	r0, r0, #20
2000133e:	19a6      	adds	r6, r4, r6
20001340:	4460      	add	r0, ip
20001342:	1b80      	subs	r0, r0, r6
20001344:	0500      	lsls	r0, r0, #20
20001346:	4e0a      	ldr	r6, [pc, #40]	@ (20001370 <irq_add_shared_handler+0x1b8>)
20001348:	0d40      	lsrs	r0, r0, #21
2000134a:	4330      	orrs	r0, r6
2000134c:	e7d2      	b.n	200012f4 <irq_add_shared_handler+0x13c>
2000134e:	f000 fe6f 	bl	20002030 <hard_assertion_failure>
20001352:	e763      	b.n	2000121c <irq_add_shared_handler+0x64>
20001354:	d0000124 	.word	0xd0000124
20001358:	200063e4 	.word	0x200063e4
2000135c:	200054f4 	.word	0x200054f4
20001360:	e000ed00 	.word	0xe000ed00
20001364:	200001c1 	.word	0x200001c1
20001368:	ffffa100 	.word	0xffffa100
2000136c:	20005524 	.word	0x20005524
20001370:	ffffe000 	.word	0xffffe000
20001374:	ffffbd01 	.word	0xffffbd01
20001378:	0000aaaa 	.word	0x0000aaaa
2000137c:	47804801 	.word	0x47804801
20001380:	0000bd01 	.word	0x0000bd01

20001384 <irq_add_tail_to_free_list>:
20001384:	2301      	movs	r3, #1
20001386:	4303      	orrs	r3, r0
20001388:	b570      	push	{r4, r5, r6, lr}
2000138a:	469c      	mov	ip, r3
2000138c:	f3ef 8105 	mrs	r1, IPSR
20001390:	f3ef 8510 	mrs	r5, PRIMASK
20001394:	b672      	cpsid	i
20001396:	4a21      	ldr	r2, [pc, #132]	@ (2000141c <irq_add_tail_to_free_list+0x98>)
20001398:	6813      	ldr	r3, [r2, #0]
2000139a:	2b00      	cmp	r3, #0
2000139c:	d0fc      	beq.n	20001398 <irq_add_tail_to_free_list+0x14>
2000139e:	f3bf 8f5f 	dmb	sy
200013a2:	4b1f      	ldr	r3, [pc, #124]	@ (20001420 <irq_add_tail_to_free_list+0x9c>)
200013a4:	0004      	movs	r4, r0
200013a6:	4a1f      	ldr	r2, [pc, #124]	@ (20001424 <irq_add_tail_to_free_list+0xa0>)
200013a8:	1ae4      	subs	r4, r4, r3
200013aa:	4164      	adcs	r4, r4
200013ac:	4362      	muls	r2, r4
200013ae:	0d12      	lsrs	r2, r2, #20
200013b0:	4c1d      	ldr	r4, [pc, #116]	@ (20001428 <irq_add_tail_to_free_list+0xa4>)
200013b2:	0089      	lsls	r1, r1, #2
200013b4:	68a6      	ldr	r6, [r4, #8]
200013b6:	b252      	sxtb	r2, r2
200013b8:	5876      	ldr	r6, [r6, r1]
200013ba:	4566      	cmp	r6, ip
200013bc:	d01c      	beq.n	200013f8 <irq_add_tail_to_free_list+0x74>
200013be:	2106      	movs	r1, #6
200013c0:	5659      	ldrsb	r1, [r3, r1]
200013c2:	4291      	cmp	r1, r2
200013c4:	d01c      	beq.n	20001400 <irq_add_tail_to_free_list+0x7c>
200013c6:	2112      	movs	r1, #18
200013c8:	5659      	ldrsb	r1, [r3, r1]
200013ca:	4291      	cmp	r1, r2
200013cc:	d022      	beq.n	20001414 <irq_add_tail_to_free_list+0x90>
200013ce:	211e      	movs	r1, #30
200013d0:	5659      	ldrsb	r1, [r3, r1]
200013d2:	4291      	cmp	r1, r2
200013d4:	d020      	beq.n	20001418 <irq_add_tail_to_free_list+0x94>
200013d6:	212a      	movs	r1, #42	@ 0x2a
200013d8:	5659      	ldrsb	r1, [r3, r1]
200013da:	2403      	movs	r4, #3
200013dc:	4291      	cmp	r1, r2
200013de:	d010      	beq.n	20001402 <irq_add_tail_to_free_list+0x7e>
200013e0:	4b12      	ldr	r3, [pc, #72]	@ (2000142c <irq_add_tail_to_free_list+0xa8>)
200013e2:	7819      	ldrb	r1, [r3, #0]
200013e4:	701a      	strb	r2, [r3, #0]
200013e6:	7181      	strb	r1, [r0, #6]
200013e8:	f3bf 8f5f 	dmb	sy
200013ec:	2200      	movs	r2, #0
200013ee:	4b0b      	ldr	r3, [pc, #44]	@ (2000141c <irq_add_tail_to_free_list+0x98>)
200013f0:	601a      	str	r2, [r3, #0]
200013f2:	f385 8810 	msr	PRIMASK, r5
200013f6:	bd70      	pop	{r4, r5, r6, pc}
200013f8:	68a3      	ldr	r3, [r4, #8]
200013fa:	4c0d      	ldr	r4, [pc, #52]	@ (20001430 <irq_add_tail_to_free_list+0xac>)
200013fc:	505c      	str	r4, [r3, r1]
200013fe:	e7ef      	b.n	200013e0 <irq_add_tail_to_free_list+0x5c>
20001400:	2400      	movs	r4, #0
20001402:	0061      	lsls	r1, r4, #1
20001404:	1909      	adds	r1, r1, r4
20001406:	0089      	lsls	r1, r1, #2
20001408:	185b      	adds	r3, r3, r1
2000140a:	21ff      	movs	r1, #255	@ 0xff
2000140c:	7199      	strb	r1, [r3, #6]
2000140e:	4909      	ldr	r1, [pc, #36]	@ (20001434 <irq_add_tail_to_free_list+0xb0>)
20001410:	8099      	strh	r1, [r3, #4]
20001412:	e7e5      	b.n	200013e0 <irq_add_tail_to_free_list+0x5c>
20001414:	2401      	movs	r4, #1
20001416:	e7f4      	b.n	20001402 <irq_add_tail_to_free_list+0x7e>
20001418:	2402      	movs	r4, #2
2000141a:	e7f2      	b.n	20001402 <irq_add_tail_to_free_list+0x7e>
2000141c:	d0000124 	.word	0xd0000124
20001420:	200054f4 	.word	0x200054f4
20001424:	0000aaaa 	.word	0x0000aaaa
20001428:	e000ed00 	.word	0xe000ed00
2000142c:	200063e4 	.word	0x200063e4
20001430:	200001c1 	.word	0x200001c1
20001434:	ffffbd01 	.word	0xffffbd01

20001438 <user_irq_claim_unused>:
20001438:	b500      	push	{lr}
2000143a:	4b07      	ldr	r3, [pc, #28]	@ (20001458 <user_irq_claim_unused+0x20>)
2000143c:	b083      	sub	sp, #12
2000143e:	0001      	movs	r1, r0
20001440:	9300      	str	r3, [sp, #0]
20001442:	2200      	movs	r2, #0
20001444:	2305      	movs	r3, #5
20001446:	4805      	ldr	r0, [pc, #20]	@ (2000145c <user_irq_claim_unused+0x24>)
20001448:	f7ff fdc4 	bl	20000fd4 <hw_claim_unused_from_range>
2000144c:	2800      	cmp	r0, #0
2000144e:	db01      	blt.n	20001454 <user_irq_claim_unused+0x1c>
20001450:	231f      	movs	r3, #31
20001452:	1a18      	subs	r0, r3, r0
20001454:	b003      	add	sp, #12
20001456:	bd00      	pop	{pc}
20001458:	20005140 	.word	0x20005140
2000145c:	200063e8 	.word	0x200063e8

20001460 <lock_init>:
20001460:	4b02      	ldr	r3, [pc, #8]	@ (2000146c <lock_init+0xc>)
20001462:	18c9      	adds	r1, r1, r3
20001464:	0089      	lsls	r1, r1, #2
20001466:	6001      	str	r1, [r0, #0]
20001468:	4770      	bx	lr
2000146a:	46c0      	nop			@ (mov r8, r8)
2000146c:	34000040 	.word	0x34000040

20001470 <runtime_init_mutex>:
20001470:	b570      	push	{r4, r5, r6, lr}
20001472:	4c11      	ldr	r4, [pc, #68]	@ (200014b8 <runtime_init_mutex+0x48>)
20001474:	4d11      	ldr	r5, [pc, #68]	@ (200014bc <runtime_init_mutex+0x4c>)
20001476:	42ac      	cmp	r4, r5
20001478:	d20f      	bcs.n	2000149a <runtime_init_mutex+0x2a>
2000147a:	26ff      	movs	r6, #255	@ 0xff
2000147c:	6823      	ldr	r3, [r4, #0]
2000147e:	2b00      	cmp	r3, #0
20001480:	d00c      	beq.n	2000149c <runtime_init_mutex+0x2c>
20001482:	f7ff fdeb 	bl	2000105c <next_striped_spin_lock_num>
20001486:	0001      	movs	r1, r0
20001488:	0020      	movs	r0, r4
2000148a:	f7ff ffe9 	bl	20001460 <lock_init>
2000148e:	80a6      	strh	r6, [r4, #4]
20001490:	f3bf 8f5f 	dmb	sy
20001494:	3408      	adds	r4, #8
20001496:	42ac      	cmp	r4, r5
20001498:	d3f0      	bcc.n	2000147c <runtime_init_mutex+0xc>
2000149a:	bd70      	pop	{r4, r5, r6, pc}
2000149c:	f7ff fdde 	bl	2000105c <next_striped_spin_lock_num>
200014a0:	0001      	movs	r1, r0
200014a2:	0020      	movs	r0, r4
200014a4:	f7ff ffdc 	bl	20001460 <lock_init>
200014a8:	7126      	strb	r6, [r4, #4]
200014aa:	f3bf 8f5f 	dmb	sy
200014ae:	3408      	adds	r4, #8
200014b0:	42ac      	cmp	r4, r5
200014b2:	d3e3      	bcc.n	2000147c <runtime_init_mutex+0xc>
200014b4:	e7f1      	b.n	2000149a <runtime_init_mutex+0x2a>
200014b6:	46c0      	nop			@ (mov r8, r8)
200014b8:	200055b8 	.word	0x200055b8
200014bc:	200055c0 	.word	0x200055c0

200014c0 <mutex_init>:
200014c0:	b510      	push	{r4, lr}
200014c2:	0004      	movs	r4, r0
200014c4:	f7ff fdca 	bl	2000105c <next_striped_spin_lock_num>
200014c8:	0001      	movs	r1, r0
200014ca:	0020      	movs	r0, r4
200014cc:	f7ff ffc8 	bl	20001460 <lock_init>
200014d0:	23ff      	movs	r3, #255	@ 0xff
200014d2:	7123      	strb	r3, [r4, #4]
200014d4:	f3bf 8f5f 	dmb	sy
200014d8:	bd10      	pop	{r4, pc}
200014da:	46c0      	nop			@ (mov r8, r8)

200014dc <critical_section_init>:
200014dc:	b510      	push	{r4, lr}
200014de:	0004      	movs	r4, r0
200014e0:	2001      	movs	r0, #1
200014e2:	f7ff fdc7 	bl	20001074 <spin_lock_claim_unused>
200014e6:	4b03      	ldr	r3, [pc, #12]	@ (200014f4 <critical_section_init+0x18>)
200014e8:	18c0      	adds	r0, r0, r3
200014ea:	0080      	lsls	r0, r0, #2
200014ec:	6020      	str	r0, [r4, #0]
200014ee:	f3bf 8f5f 	dmb	sy
200014f2:	bd10      	pop	{r4, pc}
200014f4:	34000040 	.word	0x34000040

200014f8 <critical_section_init_with_lock_num>:
200014f8:	4b03      	ldr	r3, [pc, #12]	@ (20001508 <critical_section_init_with_lock_num+0x10>)
200014fa:	18c9      	adds	r1, r1, r3
200014fc:	0089      	lsls	r1, r1, #2
200014fe:	6001      	str	r1, [r0, #0]
20001500:	f3bf 8f5f 	dmb	sy
20001504:	4770      	bx	lr
20001506:	46c0      	nop			@ (mov r8, r8)
20001508:	34000040 	.word	0x34000040

2000150c <sleep_until_callback>:
2000150c:	4b0a      	ldr	r3, [pc, #40]	@ (20001538 <sleep_until_callback+0x2c>)
2000150e:	6819      	ldr	r1, [r3, #0]
20001510:	f3ef 8010 	mrs	r0, PRIMASK
20001514:	b672      	cpsid	i
20001516:	680a      	ldr	r2, [r1, #0]
20001518:	2a00      	cmp	r2, #0
2000151a:	d0fc      	beq.n	20001516 <sleep_until_callback+0xa>
2000151c:	f3bf 8f5f 	dmb	sy
20001520:	681b      	ldr	r3, [r3, #0]
20001522:	f3bf 8f5f 	dmb	sy
20001526:	2200      	movs	r2, #0
20001528:	601a      	str	r2, [r3, #0]
2000152a:	f380 8810 	msr	PRIMASK, r0
2000152e:	bf40      	sev
20001530:	2000      	movs	r0, #0
20001532:	2100      	movs	r1, #0
20001534:	4770      	bx	lr
20001536:	46c0      	nop			@ (mov r8, r8)
20001538:	200063c4 	.word	0x200063c4

2000153c <alarm_pool_irq_handler>:
2000153c:	b5f0      	push	{r4, r5, r6, r7, lr}
2000153e:	46de      	mov	lr, fp
20001540:	4657      	mov	r7, sl
20001542:	464e      	mov	r6, r9
20001544:	4645      	mov	r5, r8
20001546:	b5e0      	push	{r5, r6, r7, lr}
20001548:	b085      	sub	sp, #20
2000154a:	f3ef 8305 	mrs	r3, IPSR
2000154e:	2203      	movs	r2, #3
20001550:	401a      	ands	r2, r3
20001552:	4bb3      	ldr	r3, [pc, #716]	@ (20001820 <alarm_pool_irq_handler+0x2e4>)
20001554:	0091      	lsls	r1, r2, #2
20001556:	585f      	ldr	r7, [r3, r1]
20001558:	2301      	movs	r3, #1
2000155a:	4093      	lsls	r3, r2
2000155c:	469b      	mov	fp, r3
2000155e:	9202      	str	r2, [sp, #8]
20001560:	465a      	mov	r2, fp
20001562:	4688      	mov	r8, r1
20001564:	4baf      	ldr	r3, [pc, #700]	@ (20001824 <alarm_pool_irq_handler+0x2e8>)
20001566:	601a      	str	r2, [r3, #0]
20001568:	4baf      	ldr	r3, [pc, #700]	@ (20001828 <alarm_pool_irq_handler+0x2ec>)
2000156a:	9303      	str	r3, [sp, #12]
2000156c:	465b      	mov	r3, fp
2000156e:	48af      	ldr	r0, [pc, #700]	@ (2000182c <alarm_pool_irq_handler+0x2f0>)
20001570:	6343      	str	r3, [r0, #52]	@ 0x34
20001572:	2308      	movs	r3, #8
20001574:	5efe      	ldrsh	r6, [r7, r3]
20001576:	2e00      	cmp	r6, #0
20001578:	da37      	bge.n	200015ea <alarm_pool_irq_handler+0xae>
2000157a:	88bb      	ldrh	r3, [r7, #4]
2000157c:	b21b      	sxth	r3, r3
2000157e:	2b00      	cmp	r3, #0
20001580:	db00      	blt.n	20001584 <alarm_pool_irq_handler+0x48>
20001582:	e0a4      	b.n	200016ce <alarm_pool_irq_handler+0x192>
20001584:	79bb      	ldrb	r3, [r7, #6]
20001586:	2b00      	cmp	r3, #0
20001588:	d000      	beq.n	2000158c <alarm_pool_irq_handler+0x50>
2000158a:	e0e5      	b.n	20001758 <alarm_pool_irq_handler+0x21c>
2000158c:	2308      	movs	r3, #8
2000158e:	5ef9      	ldrsh	r1, [r7, r3]
20001590:	2900      	cmp	r1, #0
20001592:	db20      	blt.n	200015d6 <alarm_pool_irq_handler+0x9a>
20001594:	004b      	lsls	r3, r1, #1
20001596:	697a      	ldr	r2, [r7, #20]
20001598:	185b      	adds	r3, r3, r1
2000159a:	00db      	lsls	r3, r3, #3
2000159c:	18d3      	adds	r3, r2, r3
2000159e:	689d      	ldr	r5, [r3, #8]
200015a0:	68dc      	ldr	r4, [r3, #12]
200015a2:	1c6b      	adds	r3, r5, #1
200015a4:	d100      	bne.n	200015a8 <alarm_pool_irq_handler+0x6c>
200015a6:	e104      	b.n	200017b2 <alarm_pool_irq_handler+0x276>
200015a8:	48a0      	ldr	r0, [pc, #640]	@ (2000182c <alarm_pool_irq_handler+0x2f0>)
200015aa:	0001      	movs	r1, r0
200015ac:	4441      	add	r1, r8
200015ae:	6a82      	ldr	r2, [r0, #40]	@ 0x28
200015b0:	690b      	ldr	r3, [r1, #16]
200015b2:	1aae      	subs	r6, r5, r2
200015b4:	1a9b      	subs	r3, r3, r2
200015b6:	429e      	cmp	r6, r3
200015b8:	d315      	bcc.n	200015e6 <alarm_pool_irq_handler+0xaa>
200015ba:	2301      	movs	r3, #1
200015bc:	6a02      	ldr	r2, [r0, #32]
200015be:	9802      	ldr	r0, [sp, #8]
200015c0:	4083      	lsls	r3, r0
200015c2:	421a      	tst	r2, r3
200015c4:	d00f      	beq.n	200015e6 <alarm_pool_irq_handler+0xaa>
200015c6:	4899      	ldr	r0, [pc, #612]	@ (2000182c <alarm_pool_irq_handler+0x2f0>)
200015c8:	f000 fb2c 	bl	20001c24 <timer_time_us_64>
200015cc:	428c      	cmp	r4, r1
200015ce:	dc02      	bgt.n	200015d6 <alarm_pool_irq_handler+0x9a>
200015d0:	d1cc      	bne.n	2000156c <alarm_pool_irq_handler+0x30>
200015d2:	4285      	cmp	r5, r0
200015d4:	d9ca      	bls.n	2000156c <alarm_pool_irq_handler+0x30>
200015d6:	bf40      	sev
200015d8:	b005      	add	sp, #20
200015da:	bcf0      	pop	{r4, r5, r6, r7}
200015dc:	46bb      	mov	fp, r7
200015de:	46b2      	mov	sl, r6
200015e0:	46a9      	mov	r9, r5
200015e2:	46a0      	mov	r8, r4
200015e4:	bdf0      	pop	{r4, r5, r6, r7, pc}
200015e6:	610d      	str	r5, [r1, #16]
200015e8:	e7ed      	b.n	200015c6 <alarm_pool_irq_handler+0x8a>
200015ea:	697a      	ldr	r2, [r7, #20]
200015ec:	0073      	lsls	r3, r6, #1
200015ee:	4691      	mov	r9, r2
200015f0:	199b      	adds	r3, r3, r6
200015f2:	00db      	lsls	r3, r3, #3
200015f4:	4499      	add	r9, r3
200015f6:	464b      	mov	r3, r9
200015f8:	689c      	ldr	r4, [r3, #8]
200015fa:	68dd      	ldr	r5, [r3, #12]
200015fc:	f000 fb12 	bl	20001c24 <timer_time_us_64>
20001600:	428d      	cmp	r5, r1
20001602:	dcba      	bgt.n	2000157a <alarm_pool_irq_handler+0x3e>
20001604:	d100      	bne.n	20001608 <alarm_pool_irq_handler+0xcc>
20001606:	e0f6      	b.n	200017f6 <alarm_pool_irq_handler+0x2ba>
20001608:	2d00      	cmp	r5, #0
2000160a:	da00      	bge.n	2000160e <alarm_pool_irq_handler+0xd2>
2000160c:	e0db      	b.n	200017c6 <alarm_pool_irq_handler+0x28a>
2000160e:	464a      	mov	r2, r9
20001610:	464b      	mov	r3, r9
20001612:	6952      	ldr	r2, [r2, #20]
20001614:	691b      	ldr	r3, [r3, #16]
20001616:	4692      	mov	sl, r2
20001618:	9a03      	ldr	r2, [sp, #12]
2000161a:	4293      	cmp	r3, r2
2000161c:	d100      	bne.n	20001620 <alarm_pool_irq_handler+0xe4>
2000161e:	e0cc      	b.n	200017ba <alarm_pool_irq_handler+0x27e>
20001620:	464a      	mov	r2, r9
20001622:	2108      	movs	r1, #8
20001624:	5e78      	ldrsh	r0, [r7, r1]
20001626:	8852      	ldrh	r2, [r2, #2]
20001628:	0400      	lsls	r0, r0, #16
2000162a:	4651      	mov	r1, sl
2000162c:	4310      	orrs	r0, r2
2000162e:	4798      	blx	r3
20001630:	9000      	str	r0, [sp, #0]
20001632:	9101      	str	r1, [sp, #4]
20001634:	9900      	ldr	r1, [sp, #0]
20001636:	9a01      	ldr	r2, [sp, #4]
20001638:	000b      	movs	r3, r1
2000163a:	4313      	orrs	r3, r2
2000163c:	d100      	bne.n	20001640 <alarm_pool_irq_handler+0x104>
2000163e:	e0c2      	b.n	200017c6 <alarm_pool_irq_handler+0x28a>
20001640:	0013      	movs	r3, r2
20001642:	000a      	movs	r2, r1
20001644:	2b00      	cmp	r3, #0
20001646:	db00      	blt.n	2000164a <alarm_pool_irq_handler+0x10e>
20001648:	e0d9      	b.n	200017fe <alarm_pool_irq_handler+0x2c2>
2000164a:	0020      	movs	r0, r4
2000164c:	0029      	movs	r1, r5
2000164e:	1a80      	subs	r0, r0, r2
20001650:	4199      	sbcs	r1, r3
20001652:	464b      	mov	r3, r9
20001654:	6098      	str	r0, [r3, #8]
20001656:	60d9      	str	r1, [r3, #12]
20001658:	2200      	movs	r2, #0
2000165a:	5e9b      	ldrsh	r3, [r3, r2]
2000165c:	2b00      	cmp	r3, #0
2000165e:	da00      	bge.n	20001662 <alarm_pool_irq_handler+0x126>
20001660:	e78b      	b.n	2000157a <alarm_pool_irq_handler+0x3e>
20001662:	005d      	lsls	r5, r3, #1
20001664:	697c      	ldr	r4, [r7, #20]
20001666:	18ea      	adds	r2, r5, r3
20001668:	00d2      	lsls	r2, r2, #3
2000166a:	18a2      	adds	r2, r4, r2
2000166c:	9400      	str	r4, [sp, #0]
2000166e:	6894      	ldr	r4, [r2, #8]
20001670:	68d2      	ldr	r2, [r2, #12]
20001672:	46a2      	mov	sl, r4
20001674:	428a      	cmp	r2, r1
20001676:	dd00      	ble.n	2000167a <alarm_pool_irq_handler+0x13e>
20001678:	e77f      	b.n	2000157a <alarm_pool_irq_handler+0x3e>
2000167a:	d102      	bne.n	20001682 <alarm_pool_irq_handler+0x146>
2000167c:	4284      	cmp	r4, r0
2000167e:	d900      	bls.n	20001682 <alarm_pool_irq_handler+0x146>
20001680:	e77b      	b.n	2000157a <alarm_pool_irq_handler+0x3e>
20001682:	2408      	movs	r4, #8
20001684:	46a4      	mov	ip, r4
20001686:	813b      	strh	r3, [r7, #8]
20001688:	44bc      	add	ip, r7
2000168a:	9c00      	ldr	r4, [sp, #0]
2000168c:	9700      	str	r7, [sp, #0]
2000168e:	002f      	movs	r7, r5
20001690:	4665      	mov	r5, ip
20001692:	46b4      	mov	ip, r6
20001694:	003e      	movs	r6, r7
20001696:	e006      	b.n	200016a6 <alarm_pool_irq_handler+0x16a>
20001698:	005e      	lsls	r6, r3, #1
2000169a:	18f2      	adds	r2, r6, r3
2000169c:	00d2      	lsls	r2, r2, #3
2000169e:	18a2      	adds	r2, r4, r2
200016a0:	6897      	ldr	r7, [r2, #8]
200016a2:	68d2      	ldr	r2, [r2, #12]
200016a4:	46ba      	mov	sl, r7
200016a6:	428a      	cmp	r2, r1
200016a8:	dc07      	bgt.n	200016ba <alarm_pool_irq_handler+0x17e>
200016aa:	d100      	bne.n	200016ae <alarm_pool_irq_handler+0x172>
200016ac:	e0b4      	b.n	20001818 <alarm_pool_irq_handler+0x2dc>
200016ae:	18f3      	adds	r3, r6, r3
200016b0:	00db      	lsls	r3, r3, #3
200016b2:	18e5      	adds	r5, r4, r3
200016b4:	5ee3      	ldrsh	r3, [r4, r3]
200016b6:	2b00      	cmp	r3, #0
200016b8:	daee      	bge.n	20001698 <alarm_pool_irq_handler+0x15c>
200016ba:	4666      	mov	r6, ip
200016bc:	464a      	mov	r2, r9
200016be:	9f00      	ldr	r7, [sp, #0]
200016c0:	8013      	strh	r3, [r2, #0]
200016c2:	802e      	strh	r6, [r5, #0]
200016c4:	88bb      	ldrh	r3, [r7, #4]
200016c6:	b21b      	sxth	r3, r3
200016c8:	2b00      	cmp	r3, #0
200016ca:	da00      	bge.n	200016ce <alarm_pool_irq_handler+0x192>
200016cc:	e75a      	b.n	20001584 <alarm_pool_irq_handler+0x48>
200016ce:	693a      	ldr	r2, [r7, #16]
200016d0:	f3ef 8110 	mrs	r1, PRIMASK
200016d4:	b672      	cpsid	i
200016d6:	6813      	ldr	r3, [r2, #0]
200016d8:	2b00      	cmp	r3, #0
200016da:	d0fc      	beq.n	200016d6 <alarm_pool_irq_handler+0x19a>
200016dc:	f3bf 8f5f 	dmb	sy
200016e0:	2301      	movs	r3, #1
200016e2:	88be      	ldrh	r6, [r7, #4]
200016e4:	425b      	negs	r3, r3
200016e6:	80bb      	strh	r3, [r7, #4]
200016e8:	b236      	sxth	r6, r6
200016ea:	693b      	ldr	r3, [r7, #16]
200016ec:	f3bf 8f5f 	dmb	sy
200016f0:	2200      	movs	r2, #0
200016f2:	601a      	str	r2, [r3, #0]
200016f4:	f381 8810 	msr	PRIMASK, r1
200016f8:	2e00      	cmp	r6, #0
200016fa:	da00      	bge.n	200016fe <alarm_pool_irq_handler+0x1c2>
200016fc:	e742      	b.n	20001584 <alarm_pool_irq_handler+0x48>
200016fe:	003b      	movs	r3, r7
20001700:	3308      	adds	r3, #8
20001702:	003a      	movs	r2, r7
20001704:	4699      	mov	r9, r3
20001706:	697d      	ldr	r5, [r7, #20]
20001708:	0073      	lsls	r3, r6, #1
2000170a:	199b      	adds	r3, r3, r6
2000170c:	2408      	movs	r4, #8
2000170e:	5f11      	ldrsh	r1, [r2, r4]
20001710:	00db      	lsls	r3, r3, #3
20001712:	4648      	mov	r0, r9
20001714:	18eb      	adds	r3, r5, r3
20001716:	2900      	cmp	r1, #0
20001718:	db13      	blt.n	20001742 <alarm_pool_irq_handler+0x206>
2000171a:	689c      	ldr	r4, [r3, #8]
2000171c:	9300      	str	r3, [sp, #0]
2000171e:	46a4      	mov	ip, r4
20001720:	68dc      	ldr	r4, [r3, #12]
20001722:	e006      	b.n	20001732 <alarm_pool_irq_handler+0x1f6>
20001724:	42a3      	cmp	r3, r4
20001726:	d040      	beq.n	200017aa <alarm_pool_irq_handler+0x26e>
20001728:	2300      	movs	r3, #0
2000172a:	5ef9      	ldrsh	r1, [r7, r3]
2000172c:	0038      	movs	r0, r7
2000172e:	2900      	cmp	r1, #0
20001730:	db06      	blt.n	20001740 <alarm_pool_irq_handler+0x204>
20001732:	004f      	lsls	r7, r1, #1
20001734:	187f      	adds	r7, r7, r1
20001736:	00ff      	lsls	r7, r7, #3
20001738:	19ef      	adds	r7, r5, r7
2000173a:	68fb      	ldr	r3, [r7, #12]
2000173c:	42a3      	cmp	r3, r4
2000173e:	ddf1      	ble.n	20001724 <alarm_pool_irq_handler+0x1e8>
20001740:	9b00      	ldr	r3, [sp, #0]
20001742:	8006      	strh	r6, [r0, #0]
20001744:	2000      	movs	r0, #0
20001746:	5e1e      	ldrsh	r6, [r3, r0]
20001748:	8019      	strh	r1, [r3, #0]
2000174a:	2e00      	cmp	r6, #0
2000174c:	dadc      	bge.n	20001708 <alarm_pool_irq_handler+0x1cc>
2000174e:	0017      	movs	r7, r2
20001750:	79bb      	ldrb	r3, [r7, #6]
20001752:	2b00      	cmp	r3, #0
20001754:	d100      	bne.n	20001758 <alarm_pool_irq_handler+0x21c>
20001756:	e719      	b.n	2000158c <alarm_pool_irq_handler+0x50>
20001758:	2300      	movs	r3, #0
2000175a:	71bb      	strb	r3, [r7, #6]
2000175c:	2308      	movs	r3, #8
2000175e:	5ef9      	ldrsh	r1, [r7, r3]
20001760:	1c4b      	adds	r3, r1, #1
20001762:	d100      	bne.n	20001766 <alarm_pool_irq_handler+0x22a>
20001764:	e737      	b.n	200015d6 <alarm_pool_irq_handler+0x9a>
20001766:	003d      	movs	r5, r7
20001768:	3508      	adds	r5, #8
2000176a:	46ac      	mov	ip, r5
2000176c:	697c      	ldr	r4, [r7, #20]
2000176e:	e003      	b.n	20001778 <alarm_pool_irq_handler+0x23c>
20001770:	4684      	mov	ip, r0
20001772:	1c4b      	adds	r3, r1, #1
20001774:	d100      	bne.n	20001778 <alarm_pool_irq_handler+0x23c>
20001776:	e709      	b.n	2000158c <alarm_pool_irq_handler+0x50>
20001778:	004b      	lsls	r3, r1, #1
2000177a:	185b      	adds	r3, r3, r1
2000177c:	00db      	lsls	r3, r3, #3
2000177e:	18e0      	adds	r0, r4, r3
20001780:	000a      	movs	r2, r1
20001782:	5ee1      	ldrsh	r1, [r4, r3]
20001784:	8843      	ldrh	r3, [r0, #2]
20001786:	b21b      	sxth	r3, r3
20001788:	2b00      	cmp	r3, #0
2000178a:	daf1      	bge.n	20001770 <alarm_pool_irq_handler+0x234>
2000178c:	2501      	movs	r5, #1
2000178e:	426d      	negs	r5, r5
20001790:	17ee      	asrs	r6, r5, #31
20001792:	6085      	str	r5, [r0, #8]
20001794:	60c6      	str	r6, [r0, #12]
20001796:	2508      	movs	r5, #8
20001798:	5f7b      	ldrsh	r3, [r7, r5]
2000179a:	4293      	cmp	r3, r2
2000179c:	d0e9      	beq.n	20001772 <alarm_pool_irq_handler+0x236>
2000179e:	4663      	mov	r3, ip
200017a0:	8019      	strh	r1, [r3, #0]
200017a2:	893b      	ldrh	r3, [r7, #8]
200017a4:	8003      	strh	r3, [r0, #0]
200017a6:	813a      	strh	r2, [r7, #8]
200017a8:	e7e3      	b.n	20001772 <alarm_pool_irq_handler+0x236>
200017aa:	68bb      	ldr	r3, [r7, #8]
200017ac:	4563      	cmp	r3, ip
200017ae:	d9bb      	bls.n	20001728 <alarm_pool_irq_handler+0x1ec>
200017b0:	e7c6      	b.n	20001740 <alarm_pool_irq_handler+0x204>
200017b2:	1c63      	adds	r3, r4, #1
200017b4:	d000      	beq.n	200017b8 <alarm_pool_irq_handler+0x27c>
200017b6:	e6f7      	b.n	200015a8 <alarm_pool_irq_handler+0x6c>
200017b8:	e705      	b.n	200015c6 <alarm_pool_irq_handler+0x8a>
200017ba:	4653      	mov	r3, sl
200017bc:	4650      	mov	r0, sl
200017be:	691b      	ldr	r3, [r3, #16]
200017c0:	4798      	blx	r3
200017c2:	2800      	cmp	r0, #0
200017c4:	d123      	bne.n	2000180e <alarm_pool_irq_handler+0x2d2>
200017c6:	464b      	mov	r3, r9
200017c8:	881b      	ldrh	r3, [r3, #0]
200017ca:	693a      	ldr	r2, [r7, #16]
200017cc:	813b      	strh	r3, [r7, #8]
200017ce:	f3ef 8310 	mrs	r3, PRIMASK
200017d2:	b672      	cpsid	i
200017d4:	6811      	ldr	r1, [r2, #0]
200017d6:	2900      	cmp	r1, #0
200017d8:	d0fc      	beq.n	200017d4 <alarm_pool_irq_handler+0x298>
200017da:	f3bf 8f5f 	dmb	sy
200017de:	4649      	mov	r1, r9
200017e0:	887a      	ldrh	r2, [r7, #2]
200017e2:	800a      	strh	r2, [r1, #0]
200017e4:	693a      	ldr	r2, [r7, #16]
200017e6:	807e      	strh	r6, [r7, #2]
200017e8:	f3bf 8f5f 	dmb	sy
200017ec:	2100      	movs	r1, #0
200017ee:	6011      	str	r1, [r2, #0]
200017f0:	f383 8810 	msr	PRIMASK, r3
200017f4:	e6c1      	b.n	2000157a <alarm_pool_irq_handler+0x3e>
200017f6:	4284      	cmp	r4, r0
200017f8:	d800      	bhi.n	200017fc <alarm_pool_irq_handler+0x2c0>
200017fa:	e705      	b.n	20001608 <alarm_pool_irq_handler+0xcc>
200017fc:	e6bd      	b.n	2000157a <alarm_pool_irq_handler+0x3e>
200017fe:	480b      	ldr	r0, [pc, #44]	@ (2000182c <alarm_pool_irq_handler+0x2f0>)
20001800:	f000 fa10 	bl	20001c24 <timer_time_us_64>
20001804:	9b00      	ldr	r3, [sp, #0]
20001806:	9c01      	ldr	r4, [sp, #4]
20001808:	18c0      	adds	r0, r0, r3
2000180a:	4161      	adcs	r1, r4
2000180c:	e721      	b.n	20001652 <alarm_pool_irq_handler+0x116>
2000180e:	4653      	mov	r3, sl
20001810:	cb0c      	ldmia	r3, {r2, r3}
20001812:	9200      	str	r2, [sp, #0]
20001814:	9301      	str	r3, [sp, #4]
20001816:	e70d      	b.n	20001634 <alarm_pool_irq_handler+0xf8>
20001818:	4582      	cmp	sl, r0
2000181a:	d800      	bhi.n	2000181e <alarm_pool_irq_handler+0x2e2>
2000181c:	e747      	b.n	200016ae <alarm_pool_irq_handler+0x172>
2000181e:	e74c      	b.n	200016ba <alarm_pool_irq_handler+0x17e>
20001820:	200063a8 	.word	0x200063a8
20001824:	4005703c 	.word	0x4005703c
20001828:	2000153d 	.word	0x2000153d
2000182c:	40054000 	.word	0x40054000

20001830 <runtime_init_default_alarm_pool>:
20001830:	b570      	push	{r4, r5, r6, lr}
20001832:	4c2d      	ldr	r4, [pc, #180]	@ (200018e8 <runtime_init_default_alarm_pool+0xb8>)
20001834:	6925      	ldr	r5, [r4, #16]
20001836:	2d00      	cmp	r5, #0
20001838:	d004      	beq.n	20001844 <runtime_init_default_alarm_pool+0x14>
2000183a:	210a      	movs	r1, #10
2000183c:	482b      	ldr	r0, [pc, #172]	@ (200018ec <runtime_init_default_alarm_pool+0xbc>)
2000183e:	f7ff fe0f 	bl	20001460 <lock_init>
20001842:	bd70      	pop	{r4, r5, r6, pc}
20001844:	4e2a      	ldr	r6, [pc, #168]	@ (200018f0 <runtime_init_default_alarm_pool+0xc0>)
20001846:	2103      	movs	r1, #3
20001848:	4829      	ldr	r0, [pc, #164]	@ (200018f0 <runtime_init_default_alarm_pool+0xc0>)
2000184a:	f000 f9e1 	bl	20001c10 <timer_hardware_alarm_claim>
2000184e:	60e6      	str	r6, [r4, #12]
20001850:	f7ff fc04 	bl	2000105c <next_striped_spin_lock_num>
20001854:	4b27      	ldr	r3, [pc, #156]	@ (200018f4 <runtime_init_default_alarm_pool+0xc4>)
20001856:	2203      	movs	r2, #3
20001858:	18c0      	adds	r0, r0, r3
2000185a:	23d0      	movs	r3, #208	@ 0xd0
2000185c:	7022      	strb	r2, [r4, #0]
2000185e:	061b      	lsls	r3, r3, #24
20001860:	681b      	ldr	r3, [r3, #0]
20001862:	2101      	movs	r1, #1
20001864:	7063      	strb	r3, [r4, #1]
20001866:	4b24      	ldr	r3, [pc, #144]	@ (200018f8 <runtime_init_default_alarm_pool+0xc8>)
20001868:	0080      	lsls	r0, r0, #2
2000186a:	60a3      	str	r3, [r4, #8]
2000186c:	230f      	movs	r3, #15
2000186e:	6120      	str	r0, [r4, #16]
20001870:	2002      	movs	r0, #2
20001872:	8063      	strh	r3, [r4, #2]
20001874:	6963      	ldr	r3, [r4, #20]
20001876:	4249      	negs	r1, r1
20001878:	80a1      	strh	r1, [r4, #4]
2000187a:	8019      	strh	r1, [r3, #0]
2000187c:	3102      	adds	r1, #2
2000187e:	8619      	strh	r1, [r3, #48]	@ 0x30
20001880:	3147      	adds	r1, #71	@ 0x47
20001882:	831d      	strh	r5, [r3, #24]
20001884:	5258      	strh	r0, [r3, r1]
20001886:	3118      	adds	r1, #24
20001888:	525a      	strh	r2, [r3, r1]
2000188a:	3275      	adds	r2, #117	@ 0x75
2000188c:	395c      	subs	r1, #92	@ 0x5c
2000188e:	5299      	strh	r1, [r3, r2]
20001890:	3218      	adds	r2, #24
20001892:	3101      	adds	r1, #1
20001894:	5299      	strh	r1, [r3, r2]
20001896:	3218      	adds	r2, #24
20001898:	3101      	adds	r1, #1
2000189a:	5299      	strh	r1, [r3, r2]
2000189c:	3218      	adds	r2, #24
2000189e:	3101      	adds	r1, #1
200018a0:	5299      	strh	r1, [r3, r2]
200018a2:	3508      	adds	r5, #8
200018a4:	3218      	adds	r2, #24
200018a6:	529d      	strh	r5, [r3, r2]
200018a8:	3102      	adds	r1, #2
200018aa:	3218      	adds	r2, #24
200018ac:	5299      	strh	r1, [r3, r2]
200018ae:	3218      	adds	r2, #24
200018b0:	3101      	adds	r1, #1
200018b2:	5299      	strh	r1, [r3, r2]
200018b4:	3218      	adds	r2, #24
200018b6:	3101      	adds	r1, #1
200018b8:	5299      	strh	r1, [r3, r2]
200018ba:	3218      	adds	r2, #24
200018bc:	3101      	adds	r1, #1
200018be:	5299      	strh	r1, [r3, r2]
200018c0:	3218      	adds	r2, #24
200018c2:	3101      	adds	r1, #1
200018c4:	5299      	strh	r1, [r3, r2]
200018c6:	3218      	adds	r2, #24
200018c8:	3101      	adds	r1, #1
200018ca:	5299      	strh	r1, [r3, r2]
200018cc:	4b0b      	ldr	r3, [pc, #44]	@ (200018fc <runtime_init_default_alarm_pool+0xcc>)
200018ce:	490c      	ldr	r1, [pc, #48]	@ (20001900 <runtime_init_default_alarm_pool+0xd0>)
200018d0:	60dc      	str	r4, [r3, #12]
200018d2:	3001      	adds	r0, #1
200018d4:	6235      	str	r5, [r6, #32]
200018d6:	f7ff fc45 	bl	20001164 <irq_set_exclusive_handler>
200018da:	2101      	movs	r1, #1
200018dc:	2003      	movs	r0, #3
200018de:	f7ff fc0b 	bl	200010f8 <irq_set_enabled>
200018e2:	4b08      	ldr	r3, [pc, #32]	@ (20001904 <runtime_init_default_alarm_pool+0xd4>)
200018e4:	601d      	str	r5, [r3, #0]
200018e6:	e7a8      	b.n	2000183a <runtime_init_default_alarm_pool+0xa>
200018e8:	2000553c 	.word	0x2000553c
200018ec:	200063c4 	.word	0x200063c4
200018f0:	40054000 	.word	0x40054000
200018f4:	34000040 	.word	0x34000040
200018f8:	0010ffff 	.word	0x0010ffff
200018fc:	200063a8 	.word	0x200063a8
20001900:	2000153d 	.word	0x2000153d
20001904:	40056038 	.word	0x40056038

20001908 <alarm_pool_get_default>:
20001908:	4800      	ldr	r0, [pc, #0]	@ (2000190c <alarm_pool_get_default+0x4>)
2000190a:	4770      	bx	lr
2000190c:	2000553c 	.word	0x2000553c

20001910 <alarm_pool_add_alarm_at>:
20001910:	b5f8      	push	{r3, r4, r5, r6, r7, lr}
20001912:	001f      	movs	r7, r3
20001914:	ab08      	add	r3, sp, #32
20001916:	781b      	ldrb	r3, [r3, #0]
20001918:	0004      	movs	r4, r0
2000191a:	0016      	movs	r6, r2
2000191c:	2b00      	cmp	r3, #0
2000191e:	d107      	bne.n	20001930 <alarm_pool_add_alarm_at+0x20>
20001920:	f000 f988 	bl	20001c34 <time_us_64>
20001924:	0032      	movs	r2, r6
20001926:	003b      	movs	r3, r7
20001928:	1a12      	subs	r2, r2, r0
2000192a:	418b      	sbcs	r3, r1
2000192c:	2b00      	cmp	r3, #0
2000192e:	db51      	blt.n	200019d4 <alarm_pool_add_alarm_at+0xc4>
20001930:	6922      	ldr	r2, [r4, #16]
20001932:	f3ef 8c10 	mrs	ip, PRIMASK
20001936:	b672      	cpsid	i
20001938:	6813      	ldr	r3, [r2, #0]
2000193a:	2b00      	cmp	r3, #0
2000193c:	d0fc      	beq.n	20001938 <alarm_pool_add_alarm_at+0x28>
2000193e:	f3bf 8f5f 	dmb	sy
20001942:	2302      	movs	r3, #2
20001944:	5ee1      	ldrsh	r1, [r4, r3]
20001946:	6925      	ldr	r5, [r4, #16]
20001948:	2900      	cmp	r1, #0
2000194a:	db3a      	blt.n	200019c2 <alarm_pool_add_alarm_at+0xb2>
2000194c:	004b      	lsls	r3, r1, #1
2000194e:	6960      	ldr	r0, [r4, #20]
20001950:	185b      	adds	r3, r3, r1
20001952:	00db      	lsls	r3, r3, #3
20001954:	18c2      	adds	r2, r0, r3
20001956:	5ac3      	ldrh	r3, [r0, r3]
20001958:	8063      	strh	r3, [r4, #2]
2000195a:	f3bf 8f5f 	dmb	sy
2000195e:	2300      	movs	r3, #0
20001960:	602b      	str	r3, [r5, #0]
20001962:	f38c 8810 	msr	PRIMASK, ip
20001966:	9b06      	ldr	r3, [sp, #24]
20001968:	6096      	str	r6, [r2, #8]
2000196a:	60d7      	str	r7, [r2, #12]
2000196c:	6113      	str	r3, [r2, #16]
2000196e:	9b07      	ldr	r3, [sp, #28]
20001970:	6153      	str	r3, [r2, #20]
20001972:	8853      	ldrh	r3, [r2, #2]
20001974:	3301      	adds	r3, #1
20001976:	045b      	lsls	r3, r3, #17
20001978:	0c5b      	lsrs	r3, r3, #17
2000197a:	1c18      	adds	r0, r3, #0
2000197c:	2b00      	cmp	r3, #0
2000197e:	d01e      	beq.n	200019be <alarm_pool_add_alarm_at+0xae>
20001980:	b283      	uxth	r3, r0
20001982:	8050      	strh	r0, [r2, #2]
20001984:	0408      	lsls	r0, r1, #16
20001986:	4318      	orrs	r0, r3
20001988:	6925      	ldr	r5, [r4, #16]
2000198a:	f3ef 8610 	mrs	r6, PRIMASK
2000198e:	b672      	cpsid	i
20001990:	682b      	ldr	r3, [r5, #0]
20001992:	2b00      	cmp	r3, #0
20001994:	d0fc      	beq.n	20001990 <alarm_pool_add_alarm_at+0x80>
20001996:	f3bf 8f5f 	dmb	sy
2000199a:	88a3      	ldrh	r3, [r4, #4]
2000199c:	8013      	strh	r3, [r2, #0]
2000199e:	80a1      	strh	r1, [r4, #4]
200019a0:	6923      	ldr	r3, [r4, #16]
200019a2:	f3bf 8f5f 	dmb	sy
200019a6:	2200      	movs	r2, #0
200019a8:	601a      	str	r2, [r3, #0]
200019aa:	f386 8810 	msr	PRIMASK, r6
200019ae:	7823      	ldrb	r3, [r4, #0]
200019b0:	3201      	adds	r2, #1
200019b2:	409a      	lsls	r2, r3
200019b4:	4908      	ldr	r1, [pc, #32]	@ (200019d8 <alarm_pool_add_alarm_at+0xc8>)
200019b6:	68e3      	ldr	r3, [r4, #12]
200019b8:	185b      	adds	r3, r3, r1
200019ba:	601a      	str	r2, [r3, #0]
200019bc:	bdf8      	pop	{r3, r4, r5, r6, r7, pc}
200019be:	2001      	movs	r0, #1
200019c0:	e7de      	b.n	20001980 <alarm_pool_add_alarm_at+0x70>
200019c2:	f3bf 8f5f 	dmb	sy
200019c6:	2300      	movs	r3, #0
200019c8:	602b      	str	r3, [r5, #0]
200019ca:	f38c 8810 	msr	PRIMASK, ip
200019ce:	2001      	movs	r0, #1
200019d0:	4240      	negs	r0, r0
200019d2:	e7f3      	b.n	200019bc <alarm_pool_add_alarm_at+0xac>
200019d4:	2000      	movs	r0, #0
200019d6:	e7f1      	b.n	200019bc <alarm_pool_add_alarm_at+0xac>
200019d8:	0000203c 	.word	0x0000203c

200019dc <alarm_pool_add_alarm_at_force_in_context>:
200019dc:	b570      	push	{r4, r5, r6, lr}
200019de:	b082      	sub	sp, #8
200019e0:	9200      	str	r2, [sp, #0]
200019e2:	9301      	str	r3, [sp, #4]
200019e4:	0001      	movs	r1, r0
200019e6:	6902      	ldr	r2, [r0, #16]
200019e8:	f3ef 8410 	mrs	r4, PRIMASK
200019ec:	b672      	cpsid	i
200019ee:	6813      	ldr	r3, [r2, #0]
200019f0:	2b00      	cmp	r3, #0
200019f2:	d0fc      	beq.n	200019ee <alarm_pool_add_alarm_at_force_in_context+0x12>
200019f4:	f3bf 8f5f 	dmb	sy
200019f8:	2302      	movs	r3, #2
200019fa:	5ec8      	ldrsh	r0, [r1, r3]
200019fc:	690d      	ldr	r5, [r1, #16]
200019fe:	2800      	cmp	r0, #0
20001a00:	db3f      	blt.n	20001a82 <alarm_pool_add_alarm_at_force_in_context+0xa6>
20001a02:	694a      	ldr	r2, [r1, #20]
20001a04:	0043      	lsls	r3, r0, #1
20001a06:	0016      	movs	r6, r2
20001a08:	181b      	adds	r3, r3, r0
20001a0a:	00db      	lsls	r3, r3, #3
20001a0c:	18d2      	adds	r2, r2, r3
20001a0e:	5af3      	ldrh	r3, [r6, r3]
20001a10:	804b      	strh	r3, [r1, #2]
20001a12:	f3bf 8f5f 	dmb	sy
20001a16:	2300      	movs	r3, #0
20001a18:	602b      	str	r3, [r5, #0]
20001a1a:	f384 8810 	msr	PRIMASK, r4
20001a1e:	9b06      	ldr	r3, [sp, #24]
20001a20:	6113      	str	r3, [r2, #16]
20001a22:	9b07      	ldr	r3, [sp, #28]
20001a24:	6153      	str	r3, [r2, #20]
20001a26:	9b00      	ldr	r3, [sp, #0]
20001a28:	9c01      	ldr	r4, [sp, #4]
20001a2a:	6093      	str	r3, [r2, #8]
20001a2c:	60d4      	str	r4, [r2, #12]
20001a2e:	8853      	ldrh	r3, [r2, #2]
20001a30:	3301      	adds	r3, #1
20001a32:	045b      	lsls	r3, r3, #17
20001a34:	0c5b      	lsrs	r3, r3, #17
20001a36:	1c1d      	adds	r5, r3, #0
20001a38:	2b00      	cmp	r3, #0
20001a3a:	d020      	beq.n	20001a7e <alarm_pool_add_alarm_at_force_in_context+0xa2>
20001a3c:	b2ac      	uxth	r4, r5
20001a3e:	0403      	lsls	r3, r0, #16
20001a40:	8055      	strh	r5, [r2, #2]
20001a42:	4323      	orrs	r3, r4
20001a44:	690d      	ldr	r5, [r1, #16]
20001a46:	f3ef 8c10 	mrs	ip, PRIMASK
20001a4a:	b672      	cpsid	i
20001a4c:	682c      	ldr	r4, [r5, #0]
20001a4e:	2c00      	cmp	r4, #0
20001a50:	d0fc      	beq.n	20001a4c <alarm_pool_add_alarm_at_force_in_context+0x70>
20001a52:	f3bf 8f5f 	dmb	sy
20001a56:	888c      	ldrh	r4, [r1, #4]
20001a58:	8014      	strh	r4, [r2, #0]
20001a5a:	8088      	strh	r0, [r1, #4]
20001a5c:	690a      	ldr	r2, [r1, #16]
20001a5e:	f3bf 8f5f 	dmb	sy
20001a62:	2000      	movs	r0, #0
20001a64:	6010      	str	r0, [r2, #0]
20001a66:	f38c 8810 	msr	PRIMASK, ip
20001a6a:	780a      	ldrb	r2, [r1, #0]
20001a6c:	3001      	adds	r0, #1
20001a6e:	4090      	lsls	r0, r2
20001a70:	68ca      	ldr	r2, [r1, #12]
20001a72:	4908      	ldr	r1, [pc, #32]	@ (20001a94 <alarm_pool_add_alarm_at_force_in_context+0xb8>)
20001a74:	1852      	adds	r2, r2, r1
20001a76:	6010      	str	r0, [r2, #0]
20001a78:	0018      	movs	r0, r3
20001a7a:	b002      	add	sp, #8
20001a7c:	bd70      	pop	{r4, r5, r6, pc}
20001a7e:	2501      	movs	r5, #1
20001a80:	e7dc      	b.n	20001a3c <alarm_pool_add_alarm_at_force_in_context+0x60>
20001a82:	f3bf 8f5f 	dmb	sy
20001a86:	2300      	movs	r3, #0
20001a88:	602b      	str	r3, [r5, #0]
20001a8a:	f384 8810 	msr	PRIMASK, r4
20001a8e:	3b01      	subs	r3, #1
20001a90:	e7f2      	b.n	20001a78 <alarm_pool_add_alarm_at_force_in_context+0x9c>
20001a92:	46c0      	nop			@ (mov r8, r8)
20001a94:	0000203c 	.word	0x0000203c

20001a98 <alarm_pool_cancel_alarm>:
20001a98:	b510      	push	{r4, lr}
20001a9a:	8943      	ldrh	r3, [r0, #10]
20001a9c:	140a      	asrs	r2, r1, #16
20001a9e:	4293      	cmp	r3, r2
20001aa0:	dd1a      	ble.n	20001ad8 <alarm_pool_cancel_alarm+0x40>
20001aa2:	0053      	lsls	r3, r2, #1
20001aa4:	189b      	adds	r3, r3, r2
20001aa6:	6942      	ldr	r2, [r0, #20]
20001aa8:	00db      	lsls	r3, r3, #3
20001aaa:	18d3      	adds	r3, r2, r3
20001aac:	6904      	ldr	r4, [r0, #16]
20001aae:	f3ef 8c10 	mrs	ip, PRIMASK
20001ab2:	b672      	cpsid	i
20001ab4:	6822      	ldr	r2, [r4, #0]
20001ab6:	2a00      	cmp	r2, #0
20001ab8:	d0fc      	beq.n	20001ab4 <alarm_pool_cancel_alarm+0x1c>
20001aba:	f3bf 8f5f 	dmb	sy
20001abe:	885a      	ldrh	r2, [r3, #2]
20001ac0:	0409      	lsls	r1, r1, #16
20001ac2:	b294      	uxth	r4, r2
20001ac4:	0c09      	lsrs	r1, r1, #16
20001ac6:	428a      	cmp	r2, r1
20001ac8:	d008      	beq.n	20001adc <alarm_pool_cancel_alarm+0x44>
20001aca:	6903      	ldr	r3, [r0, #16]
20001acc:	f3bf 8f5f 	dmb	sy
20001ad0:	2200      	movs	r2, #0
20001ad2:	601a      	str	r2, [r3, #0]
20001ad4:	f38c 8810 	msr	PRIMASK, ip
20001ad8:	2000      	movs	r0, #0
20001ada:	bd10      	pop	{r4, pc}
20001adc:	4a09      	ldr	r2, [pc, #36]	@ (20001b04 <alarm_pool_cancel_alarm+0x6c>)
20001ade:	4322      	orrs	r2, r4
20001ae0:	805a      	strh	r2, [r3, #2]
20001ae2:	2301      	movs	r3, #1
20001ae4:	6902      	ldr	r2, [r0, #16]
20001ae6:	7183      	strb	r3, [r0, #6]
20001ae8:	f3bf 8f5f 	dmb	sy
20001aec:	2100      	movs	r1, #0
20001aee:	6011      	str	r1, [r2, #0]
20001af0:	f38c 8810 	msr	PRIMASK, ip
20001af4:	7802      	ldrb	r2, [r0, #0]
20001af6:	4904      	ldr	r1, [pc, #16]	@ (20001b08 <alarm_pool_cancel_alarm+0x70>)
20001af8:	4093      	lsls	r3, r2
20001afa:	68c2      	ldr	r2, [r0, #12]
20001afc:	2001      	movs	r0, #1
20001afe:	1852      	adds	r2, r2, r1
20001b00:	6013      	str	r3, [r2, #0]
20001b02:	e7ea      	b.n	20001ada <alarm_pool_cancel_alarm+0x42>
20001b04:	ffff8000 	.word	0xffff8000
20001b08:	0000203c 	.word	0x0000203c

20001b0c <alarm_pool_core_num>:
20001b0c:	7840      	ldrb	r0, [r0, #1]
20001b0e:	4770      	bx	lr

20001b10 <best_effort_wfe_or_timeout>:
20001b10:	b5f0      	push	{r4, r5, r6, r7, lr}
20001b12:	46ce      	mov	lr, r9
20001b14:	4647      	mov	r7, r8
20001b16:	b580      	push	{r7, lr}
20001b18:	0004      	movs	r4, r0
20001b1a:	000d      	movs	r5, r1
20001b1c:	b085      	sub	sp, #20
20001b1e:	f3ef 8605 	mrs	r6, IPSR
20001b22:	4689      	mov	r9, r1
20001b24:	2e00      	cmp	r6, #0
20001b26:	d010      	beq.n	20001b4a <best_effort_wfe_or_timeout+0x3a>
20001b28:	4936      	ldr	r1, [pc, #216]	@ (20001c04 <best_effort_wfe_or_timeout+0xf4>)
20001b2a:	2000      	movs	r0, #0
20001b2c:	6a4b      	ldr	r3, [r1, #36]	@ 0x24
20001b2e:	42ab      	cmp	r3, r5
20001b30:	d306      	bcc.n	20001b40 <best_effort_wfe_or_timeout+0x30>
20001b32:	6a8a      	ldr	r2, [r1, #40]	@ 0x28
20001b34:	1b5b      	subs	r3, r3, r5
20001b36:	1e59      	subs	r1, r3, #1
20001b38:	418b      	sbcs	r3, r1
20001b3a:	42a2      	cmp	r2, r4
20001b3c:	4140      	adcs	r0, r0
20001b3e:	4318      	orrs	r0, r3
20001b40:	b005      	add	sp, #20
20001b42:	bcc0      	pop	{r6, r7}
20001b44:	46b9      	mov	r9, r7
20001b46:	46b0      	mov	r8, r6
20001b48:	bdf0      	pop	{r4, r5, r6, r7, pc}
20001b4a:	4f2f      	ldr	r7, [pc, #188]	@ (20001c08 <best_effort_wfe_or_timeout+0xf8>)
20001b4c:	68fb      	ldr	r3, [r7, #12]
20001b4e:	783a      	ldrb	r2, [r7, #0]
20001b50:	4698      	mov	r8, r3
20001b52:	0018      	movs	r0, r3
20001b54:	9203      	str	r2, [sp, #12]
20001b56:	f000 f865 	bl	20001c24 <timer_time_us_64>
20001b5a:	9a03      	ldr	r2, [sp, #12]
20001b5c:	1d13      	adds	r3, r2, #4
20001b5e:	4642      	mov	r2, r8
20001b60:	009b      	lsls	r3, r3, #2
20001b62:	589b      	ldr	r3, [r3, r2]
20001b64:	0022      	movs	r2, r4
20001b66:	1a1b      	subs	r3, r3, r0
20001b68:	469c      	mov	ip, r3
20001b6a:	002b      	movs	r3, r5
20001b6c:	1a12      	subs	r2, r2, r0
20001b6e:	418b      	sbcs	r3, r1
20001b70:	429e      	cmp	r6, r3
20001b72:	dc10      	bgt.n	20001b96 <best_effort_wfe_or_timeout+0x86>
20001b74:	d00d      	beq.n	20001b92 <best_effort_wfe_or_timeout+0x82>
20001b76:	bf20      	wfe
20001b78:	4a22      	ldr	r2, [pc, #136]	@ (20001c04 <best_effort_wfe_or_timeout+0xf4>)
20001b7a:	2000      	movs	r0, #0
20001b7c:	6a53      	ldr	r3, [r2, #36]	@ 0x24
20001b7e:	454b      	cmp	r3, r9
20001b80:	d3de      	bcc.n	20001b40 <best_effort_wfe_or_timeout+0x30>
20001b82:	6a92      	ldr	r2, [r2, #40]	@ 0x28
20001b84:	1b5b      	subs	r3, r3, r5
20001b86:	1e59      	subs	r1, r3, #1
20001b88:	418b      	sbcs	r3, r1
20001b8a:	42a2      	cmp	r2, r4
20001b8c:	4140      	adcs	r0, r0
20001b8e:	4318      	orrs	r0, r3
20001b90:	e7d6      	b.n	20001b40 <best_effort_wfe_or_timeout+0x30>
20001b92:	4594      	cmp	ip, r2
20001b94:	d9ef      	bls.n	20001b76 <best_effort_wfe_or_timeout+0x66>
20001b96:	f000 f84d 	bl	20001c34 <time_us_64>
20001b9a:	0022      	movs	r2, r4
20001b9c:	002b      	movs	r3, r5
20001b9e:	1a12      	subs	r2, r2, r0
20001ba0:	418b      	sbcs	r3, r1
20001ba2:	2b00      	cmp	r3, #0
20001ba4:	db1b      	blt.n	20001bde <best_effort_wfe_or_timeout+0xce>
20001ba6:	2300      	movs	r3, #0
20001ba8:	9301      	str	r3, [sp, #4]
20001baa:	4b18      	ldr	r3, [pc, #96]	@ (20001c0c <best_effort_wfe_or_timeout+0xfc>)
20001bac:	0022      	movs	r2, r4
20001bae:	9300      	str	r3, [sp, #0]
20001bb0:	0038      	movs	r0, r7
20001bb2:	002b      	movs	r3, r5
20001bb4:	f7ff ff12 	bl	200019dc <alarm_pool_add_alarm_at_force_in_context>
20001bb8:	2800      	cmp	r0, #0
20001bba:	dd10      	ble.n	20001bde <best_effort_wfe_or_timeout+0xce>
20001bbc:	4b11      	ldr	r3, [pc, #68]	@ (20001c04 <best_effort_wfe_or_timeout+0xf4>)
20001bbe:	6a5a      	ldr	r2, [r3, #36]	@ 0x24
20001bc0:	454a      	cmp	r2, r9
20001bc2:	d31c      	bcc.n	20001bfe <best_effort_wfe_or_timeout+0xee>
20001bc4:	6a9b      	ldr	r3, [r3, #40]	@ 0x28
20001bc6:	42a3      	cmp	r3, r4
20001bc8:	d317      	bcc.n	20001bfa <best_effort_wfe_or_timeout+0xea>
20001bca:	0001      	movs	r1, r0
20001bcc:	0038      	movs	r0, r7
20001bce:	f7ff ff63 	bl	20001a98 <alarm_pool_cancel_alarm>
20001bd2:	4a0c      	ldr	r2, [pc, #48]	@ (20001c04 <best_effort_wfe_or_timeout+0xf4>)
20001bd4:	2000      	movs	r0, #0
20001bd6:	6a53      	ldr	r3, [r2, #36]	@ 0x24
20001bd8:	454b      	cmp	r3, r9
20001bda:	d3b1      	bcc.n	20001b40 <best_effort_wfe_or_timeout+0x30>
20001bdc:	e7d1      	b.n	20001b82 <best_effort_wfe_or_timeout+0x72>
20001bde:	4a09      	ldr	r2, [pc, #36]	@ (20001c04 <best_effort_wfe_or_timeout+0xf4>)
20001be0:	2000      	movs	r0, #0
20001be2:	6a53      	ldr	r3, [r2, #36]	@ 0x24
20001be4:	454b      	cmp	r3, r9
20001be6:	d3ab      	bcc.n	20001b40 <best_effort_wfe_or_timeout+0x30>
20001be8:	2000      	movs	r0, #0
20001bea:	6a92      	ldr	r2, [r2, #40]	@ 0x28
20001bec:	1b5b      	subs	r3, r3, r5
20001bee:	42a2      	cmp	r2, r4
20001bf0:	4140      	adcs	r0, r0
20001bf2:	1e5a      	subs	r2, r3, #1
20001bf4:	4193      	sbcs	r3, r2
20001bf6:	4318      	orrs	r0, r3
20001bf8:	e7a2      	b.n	20001b40 <best_effort_wfe_or_timeout+0x30>
20001bfa:	454a      	cmp	r2, r9
20001bfc:	d1e5      	bne.n	20001bca <best_effort_wfe_or_timeout+0xba>
20001bfe:	bf20      	wfe
20001c00:	e7e3      	b.n	20001bca <best_effort_wfe_or_timeout+0xba>
20001c02:	46c0      	nop			@ (mov r8, r8)
20001c04:	40054000 	.word	0x40054000
20001c08:	2000553c 	.word	0x2000553c
20001c0c:	2000150d 	.word	0x2000150d

20001c10 <timer_hardware_alarm_claim>:
20001c10:	b510      	push	{r4, lr}
20001c12:	4a02      	ldr	r2, [pc, #8]	@ (20001c1c <timer_hardware_alarm_claim+0xc>)
20001c14:	4802      	ldr	r0, [pc, #8]	@ (20001c20 <timer_hardware_alarm_claim+0x10>)
20001c16:	f7ff f9b5 	bl	20000f84 <hw_claim_or_assert>
20001c1a:	bd10      	pop	{r4, pc}
20001c1c:	2000515c 	.word	0x2000515c
20001c20:	20005f34 	.word	0x20005f34

20001c24 <timer_time_us_64>:
20001c24:	0003      	movs	r3, r0
20001c26:	6a41      	ldr	r1, [r0, #36]	@ 0x24
20001c28:	000a      	movs	r2, r1
20001c2a:	6a98      	ldr	r0, [r3, #40]	@ 0x28
20001c2c:	6a59      	ldr	r1, [r3, #36]	@ 0x24
20001c2e:	428a      	cmp	r2, r1
20001c30:	d1fa      	bne.n	20001c28 <timer_time_us_64+0x4>
20001c32:	4770      	bx	lr

20001c34 <time_us_64>:
20001c34:	4b03      	ldr	r3, [pc, #12]	@ (20001c44 <time_us_64+0x10>)
20001c36:	6a59      	ldr	r1, [r3, #36]	@ 0x24
20001c38:	000a      	movs	r2, r1
20001c3a:	6a98      	ldr	r0, [r3, #40]	@ 0x28
20001c3c:	6a59      	ldr	r1, [r3, #36]	@ 0x24
20001c3e:	4291      	cmp	r1, r2
20001c40:	d1fa      	bne.n	20001c38 <time_us_64+0x4>
20001c42:	4770      	bx	lr
20001c44:	40054000 	.word	0x40054000

20001c48 <clock_configure_int_divider>:
20001c48:	b5f8      	push	{r3, r4, r5, r6, r7, lr}
20001c4a:	46de      	mov	lr, fp
20001c4c:	464e      	mov	r6, r9
20001c4e:	4645      	mov	r5, r8
20001c50:	4657      	mov	r7, sl
20001c52:	b5e0      	push	{r5, r6, r7, lr}
20001c54:	0005      	movs	r5, r0
20001c56:	468b      	mov	fp, r1
20001c58:	0018      	movs	r0, r3
20001c5a:	990a      	ldr	r1, [sp, #40]	@ 0x28
20001c5c:	4691      	mov	r9, r2
20001c5e:	f000 fab7 	bl	200021d0 <__wrap___aeabi_uidiv>
20001c62:	9b0a      	ldr	r3, [sp, #40]	@ 0x28
20001c64:	006c      	lsls	r4, r5, #1
20001c66:	021e      	lsls	r6, r3, #8
20001c68:	1964      	adds	r4, r4, r5
20001c6a:	4b30      	ldr	r3, [pc, #192]	@ (20001d2c <clock_configure_int_divider+0xe4>)
20001c6c:	00a4      	lsls	r4, r4, #2
20001c6e:	18e4      	adds	r4, r4, r3
20001c70:	6863      	ldr	r3, [r4, #4]
20001c72:	4680      	mov	r8, r0
20001c74:	429e      	cmp	r6, r3
20001c76:	d900      	bls.n	20001c7a <clock_configure_int_divider+0x32>
20001c78:	6066      	str	r6, [r4, #4]
20001c7a:	1f2f      	subs	r7, r5, #4
20001c7c:	b2fb      	uxtb	r3, r7
20001c7e:	469a      	mov	sl, r3
20001c80:	2b01      	cmp	r3, #1
20001c82:	d92f      	bls.n	20001ce4 <clock_configure_int_divider+0x9c>
20001c84:	23c0      	movs	r3, #192	@ 0xc0
20001c86:	2280      	movs	r2, #128	@ 0x80
20001c88:	4f29      	ldr	r7, [pc, #164]	@ (20001d30 <clock_configure_int_divider+0xe8>)
20001c8a:	00ad      	lsls	r5, r5, #2
20001c8c:	019b      	lsls	r3, r3, #6
20001c8e:	5979      	ldr	r1, [r7, r5]
20001c90:	0112      	lsls	r2, r2, #4
20001c92:	18e3      	adds	r3, r4, r3
20001c94:	601a      	str	r2, [r3, #0]
20001c96:	2900      	cmp	r1, #0
20001c98:	d11b      	bne.n	20001cd2 <clock_configure_int_divider+0x8a>
20001c9a:	464b      	mov	r3, r9
20001c9c:	6822      	ldr	r2, [r4, #0]
20001c9e:	015b      	lsls	r3, r3, #5
20001ca0:	4053      	eors	r3, r2
20001ca2:	22e0      	movs	r2, #224	@ 0xe0
20001ca4:	4013      	ands	r3, r2
20001ca6:	2280      	movs	r2, #128	@ 0x80
20001ca8:	0152      	lsls	r2, r2, #5
20001caa:	18a2      	adds	r2, r4, r2
20001cac:	6013      	str	r3, [r2, #0]
20001cae:	4653      	mov	r3, sl
20001cb0:	2b01      	cmp	r3, #1
20001cb2:	d92f      	bls.n	20001d14 <clock_configure_int_divider+0xcc>
20001cb4:	2380      	movs	r3, #128	@ 0x80
20001cb6:	2280      	movs	r2, #128	@ 0x80
20001cb8:	019b      	lsls	r3, r3, #6
20001cba:	18e3      	adds	r3, r4, r3
20001cbc:	0112      	lsls	r2, r2, #4
20001cbe:	601a      	str	r2, [r3, #0]
20001cc0:	4643      	mov	r3, r8
20001cc2:	6066      	str	r6, [r4, #4]
20001cc4:	517b      	str	r3, [r7, r5]
20001cc6:	bcf0      	pop	{r4, r5, r6, r7}
20001cc8:	46bb      	mov	fp, r7
20001cca:	46b2      	mov	sl, r6
20001ccc:	46a9      	mov	r9, r5
20001cce:	46a0      	mov	r8, r4
20001cd0:	bdf8      	pop	{r3, r4, r5, r6, r7, pc}
20001cd2:	6978      	ldr	r0, [r7, #20]
20001cd4:	f000 fa7c 	bl	200021d0 <__wrap___aeabi_uidiv>
20001cd8:	3001      	adds	r0, #1
20001cda:	0043      	lsls	r3, r0, #1
20001cdc:	181b      	adds	r3, r3, r0
20001cde:	3b03      	subs	r3, #3
20001ce0:	d2fd      	bcs.n	20001cde <clock_configure_int_divider+0x96>
20001ce2:	e7da      	b.n	20001c9a <clock_configure_int_divider+0x52>
20001ce4:	465b      	mov	r3, fp
20001ce6:	2b01      	cmp	r3, #1
20001ce8:	d1cc      	bne.n	20001c84 <clock_configure_int_divider+0x3c>
20001cea:	23c0      	movs	r3, #192	@ 0xc0
20001cec:	2203      	movs	r2, #3
20001cee:	019b      	lsls	r3, r3, #6
20001cf0:	18e3      	adds	r3, r4, r3
20001cf2:	601a      	str	r2, [r3, #0]
20001cf4:	3a02      	subs	r2, #2
20001cf6:	68a3      	ldr	r3, [r4, #8]
20001cf8:	421a      	tst	r2, r3
20001cfa:	d0fc      	beq.n	20001cf6 <clock_configure_int_divider+0xae>
20001cfc:	464a      	mov	r2, r9
20001cfe:	6823      	ldr	r3, [r4, #0]
20001d00:	0152      	lsls	r2, r2, #5
20001d02:	405a      	eors	r2, r3
20001d04:	23e0      	movs	r3, #224	@ 0xe0
20001d06:	4013      	ands	r3, r2
20001d08:	2280      	movs	r2, #128	@ 0x80
20001d0a:	0152      	lsls	r2, r2, #5
20001d0c:	18a2      	adds	r2, r4, r2
20001d0e:	4f08      	ldr	r7, [pc, #32]	@ (20001d30 <clock_configure_int_divider+0xe8>)
20001d10:	6013      	str	r3, [r2, #0]
20001d12:	00ad      	lsls	r5, r5, #2
20001d14:	4658      	mov	r0, fp
20001d16:	2303      	movs	r3, #3
20001d18:	6821      	ldr	r1, [r4, #0]
20001d1a:	4041      	eors	r1, r0
20001d1c:	400b      	ands	r3, r1
20001d1e:	6013      	str	r3, [r2, #0]
20001d20:	2201      	movs	r2, #1
20001d22:	4082      	lsls	r2, r0
20001d24:	68a3      	ldr	r3, [r4, #8]
20001d26:	421a      	tst	r2, r3
20001d28:	d0fc      	beq.n	20001d24 <clock_configure_int_divider+0xdc>
20001d2a:	e7c3      	b.n	20001cb4 <clock_configure_int_divider+0x6c>
20001d2c:	40008000 	.word	0x40008000
20001d30:	20005f38 	.word	0x20005f38

20001d34 <clock_configure_undivided>:
20001d34:	b5f0      	push	{r4, r5, r6, r7, lr}
20001d36:	46d6      	mov	lr, sl
20001d38:	464f      	mov	r7, r9
20001d3a:	4646      	mov	r6, r8
20001d3c:	0044      	lsls	r4, r0, #1
20001d3e:	4698      	mov	r8, r3
20001d40:	1824      	adds	r4, r4, r0
20001d42:	4b32      	ldr	r3, [pc, #200]	@ (20001e0c <clock_configure_undivided+0xd8>)
20001d44:	00a4      	lsls	r4, r4, #2
20001d46:	18e4      	adds	r4, r4, r3
20001d48:	6863      	ldr	r3, [r4, #4]
20001d4a:	468a      	mov	sl, r1
20001d4c:	4691      	mov	r9, r2
20001d4e:	b5c0      	push	{r6, r7, lr}
20001d50:	2bff      	cmp	r3, #255	@ 0xff
20001d52:	d802      	bhi.n	20001d5a <clock_configure_undivided+0x26>
20001d54:	2380      	movs	r3, #128	@ 0x80
20001d56:	005b      	lsls	r3, r3, #1
20001d58:	6063      	str	r3, [r4, #4]
20001d5a:	1f06      	subs	r6, r0, #4
20001d5c:	b2f6      	uxtb	r6, r6
20001d5e:	2e01      	cmp	r6, #1
20001d60:	d92f      	bls.n	20001dc2 <clock_configure_undivided+0x8e>
20001d62:	23c0      	movs	r3, #192	@ 0xc0
20001d64:	2280      	movs	r2, #128	@ 0x80
20001d66:	4f2a      	ldr	r7, [pc, #168]	@ (20001e10 <clock_configure_undivided+0xdc>)
20001d68:	0085      	lsls	r5, r0, #2
20001d6a:	019b      	lsls	r3, r3, #6
20001d6c:	5979      	ldr	r1, [r7, r5]
20001d6e:	0112      	lsls	r2, r2, #4
20001d70:	18e3      	adds	r3, r4, r3
20001d72:	601a      	str	r2, [r3, #0]
20001d74:	2900      	cmp	r1, #0
20001d76:	d11b      	bne.n	20001db0 <clock_configure_undivided+0x7c>
20001d78:	464b      	mov	r3, r9
20001d7a:	6822      	ldr	r2, [r4, #0]
20001d7c:	015b      	lsls	r3, r3, #5
20001d7e:	4053      	eors	r3, r2
20001d80:	22e0      	movs	r2, #224	@ 0xe0
20001d82:	4013      	ands	r3, r2
20001d84:	2280      	movs	r2, #128	@ 0x80
20001d86:	0152      	lsls	r2, r2, #5
20001d88:	18a2      	adds	r2, r4, r2
20001d8a:	6013      	str	r3, [r2, #0]
20001d8c:	2e01      	cmp	r6, #1
20001d8e:	d930      	bls.n	20001df2 <clock_configure_undivided+0xbe>
20001d90:	2380      	movs	r3, #128	@ 0x80
20001d92:	2280      	movs	r2, #128	@ 0x80
20001d94:	019b      	lsls	r3, r3, #6
20001d96:	18e3      	adds	r3, r4, r3
20001d98:	0112      	lsls	r2, r2, #4
20001d9a:	601a      	str	r2, [r3, #0]
20001d9c:	2380      	movs	r3, #128	@ 0x80
20001d9e:	005b      	lsls	r3, r3, #1
20001da0:	6063      	str	r3, [r4, #4]
20001da2:	4643      	mov	r3, r8
20001da4:	517b      	str	r3, [r7, r5]
20001da6:	bce0      	pop	{r5, r6, r7}
20001da8:	46ba      	mov	sl, r7
20001daa:	46b1      	mov	r9, r6
20001dac:	46a8      	mov	r8, r5
20001dae:	bdf0      	pop	{r4, r5, r6, r7, pc}
20001db0:	6978      	ldr	r0, [r7, #20]
20001db2:	f000 fa0d 	bl	200021d0 <__wrap___aeabi_uidiv>
20001db6:	3001      	adds	r0, #1
20001db8:	0043      	lsls	r3, r0, #1
20001dba:	181b      	adds	r3, r3, r0
20001dbc:	3b03      	subs	r3, #3
20001dbe:	d2fd      	bcs.n	20001dbc <clock_configure_undivided+0x88>
20001dc0:	e7da      	b.n	20001d78 <clock_configure_undivided+0x44>
20001dc2:	4653      	mov	r3, sl
20001dc4:	2b01      	cmp	r3, #1
20001dc6:	d1cc      	bne.n	20001d62 <clock_configure_undivided+0x2e>
20001dc8:	23c0      	movs	r3, #192	@ 0xc0
20001dca:	2203      	movs	r2, #3
20001dcc:	019b      	lsls	r3, r3, #6
20001dce:	18e3      	adds	r3, r4, r3
20001dd0:	601a      	str	r2, [r3, #0]
20001dd2:	3a02      	subs	r2, #2
20001dd4:	68a3      	ldr	r3, [r4, #8]
20001dd6:	421a      	tst	r2, r3
20001dd8:	d0fc      	beq.n	20001dd4 <clock_configure_undivided+0xa0>
20001dda:	464a      	mov	r2, r9
20001ddc:	6823      	ldr	r3, [r4, #0]
20001dde:	0152      	lsls	r2, r2, #5
20001de0:	405a      	eors	r2, r3
20001de2:	23e0      	movs	r3, #224	@ 0xe0
20001de4:	4013      	ands	r3, r2
20001de6:	2280      	movs	r2, #128	@ 0x80
20001de8:	0152      	lsls	r2, r2, #5
20001dea:	18a2      	adds	r2, r4, r2
20001dec:	4f08      	ldr	r7, [pc, #32]	@ (20001e10 <clock_configure_undivided+0xdc>)
20001dee:	6013      	str	r3, [r2, #0]
20001df0:	0085      	lsls	r5, r0, #2
20001df2:	4650      	mov	r0, sl
20001df4:	2303      	movs	r3, #3
20001df6:	6821      	ldr	r1, [r4, #0]
20001df8:	4041      	eors	r1, r0
20001dfa:	400b      	ands	r3, r1
20001dfc:	6013      	str	r3, [r2, #0]
20001dfe:	2201      	movs	r2, #1
20001e00:	4082      	lsls	r2, r0
20001e02:	68a3      	ldr	r3, [r4, #8]
20001e04:	421a      	tst	r2, r3
20001e06:	d0fc      	beq.n	20001e02 <clock_configure_undivided+0xce>
20001e08:	e7c2      	b.n	20001d90 <clock_configure_undivided+0x5c>
20001e0a:	46c0      	nop			@ (mov r8, r8)
20001e0c:	40008000 	.word	0x40008000
20001e10:	20005f38 	.word	0x20005f38

20001e14 <clock_get_hz>:
20001e14:	4b01      	ldr	r3, [pc, #4]	@ (20001e1c <clock_get_hz+0x8>)
20001e16:	0080      	lsls	r0, r0, #2
20001e18:	58c0      	ldr	r0, [r0, r3]
20001e1a:	4770      	bx	lr
20001e1c:	20005f38 	.word	0x20005f38

20001e20 <pll_init>:
20001e20:	b5f0      	push	{r4, r5, r6, r7, lr}
20001e22:	46c6      	mov	lr, r8
20001e24:	0004      	movs	r4, r0
20001e26:	b500      	push	{lr}
20001e28:	4823      	ldr	r0, [pc, #140]	@ (20001eb8 <pll_init+0x98>)
20001e2a:	0016      	movs	r6, r2
20001e2c:	4698      	mov	r8, r3
20001e2e:	000d      	movs	r5, r1
20001e30:	f000 f9ce 	bl	200021d0 <__wrap___aeabi_uidiv>
20001e34:	0001      	movs	r1, r0
20001e36:	0030      	movs	r0, r6
20001e38:	f000 f9ca 	bl	200021d0 <__wrap___aeabi_uidiv>
20001e3c:	4643      	mov	r3, r8
20001e3e:	9a06      	ldr	r2, [sp, #24]
20001e40:	041b      	lsls	r3, r3, #16
20001e42:	0312      	lsls	r2, r2, #12
20001e44:	4313      	orrs	r3, r2
20001e46:	469c      	mov	ip, r3
20001e48:	6823      	ldr	r3, [r4, #0]
20001e4a:	0006      	movs	r6, r0
20001e4c:	2b00      	cmp	r3, #0
20001e4e:	db22      	blt.n	20001e96 <pll_init+0x76>
20001e50:	4b1a      	ldr	r3, [pc, #104]	@ (20001ebc <pll_init+0x9c>)
20001e52:	481b      	ldr	r0, [pc, #108]	@ (20001ec0 <pll_init+0xa0>)
20001e54:	18e2      	adds	r2, r4, r3
20001e56:	1e53      	subs	r3, r2, #1
20001e58:	419a      	sbcs	r2, r3
20001e5a:	2380      	movs	r3, #128	@ 0x80
20001e5c:	4252      	negs	r2, r2
20001e5e:	0b12      	lsrs	r2, r2, #12
20001e60:	019b      	lsls	r3, r3, #6
20001e62:	0312      	lsls	r2, r2, #12
20001e64:	18d2      	adds	r2, r2, r3
20001e66:	4b17      	ldr	r3, [pc, #92]	@ (20001ec4 <pll_init+0xa4>)
20001e68:	601a      	str	r2, [r3, #0]
20001e6a:	4b17      	ldr	r3, [pc, #92]	@ (20001ec8 <pll_init+0xa8>)
20001e6c:	601a      	str	r2, [r3, #0]
20001e6e:	0013      	movs	r3, r2
20001e70:	6801      	ldr	r1, [r0, #0]
20001e72:	438b      	bics	r3, r1
20001e74:	d1fb      	bne.n	20001e6e <pll_init+0x4e>
20001e76:	2221      	movs	r2, #33	@ 0x21
20001e78:	4b14      	ldr	r3, [pc, #80]	@ (20001ecc <pll_init+0xac>)
20001e7a:	6025      	str	r5, [r4, #0]
20001e7c:	18e3      	adds	r3, r4, r3
20001e7e:	60a6      	str	r6, [r4, #8]
20001e80:	601a      	str	r2, [r3, #0]
20001e82:	6822      	ldr	r2, [r4, #0]
20001e84:	2a00      	cmp	r2, #0
20001e86:	dafc      	bge.n	20001e82 <pll_init+0x62>
20001e88:	4662      	mov	r2, ip
20001e8a:	60e2      	str	r2, [r4, #12]
20001e8c:	2208      	movs	r2, #8
20001e8e:	601a      	str	r2, [r3, #0]
20001e90:	bc80      	pop	{r7}
20001e92:	46b8      	mov	r8, r7
20001e94:	bdf0      	pop	{r4, r5, r6, r7, pc}
20001e96:	233f      	movs	r3, #63	@ 0x3f
20001e98:	6822      	ldr	r2, [r4, #0]
20001e9a:	4013      	ands	r3, r2
20001e9c:	42ab      	cmp	r3, r5
20001e9e:	d1d7      	bne.n	20001e50 <pll_init+0x30>
20001ea0:	68a3      	ldr	r3, [r4, #8]
20001ea2:	051b      	lsls	r3, r3, #20
20001ea4:	0d1b      	lsrs	r3, r3, #20
20001ea6:	4283      	cmp	r3, r0
20001ea8:	d1d2      	bne.n	20001e50 <pll_init+0x30>
20001eaa:	22ee      	movs	r2, #238	@ 0xee
20001eac:	68e3      	ldr	r3, [r4, #12]
20001eae:	02d2      	lsls	r2, r2, #11
20001eb0:	4013      	ands	r3, r2
20001eb2:	4563      	cmp	r3, ip
20001eb4:	d1cc      	bne.n	20001e50 <pll_init+0x30>
20001eb6:	e7eb      	b.n	20001e90 <pll_init+0x70>
20001eb8:	00b71b00 	.word	0x00b71b00
20001ebc:	bffd4000 	.word	0xbffd4000
20001ec0:	4000c008 	.word	0x4000c008
20001ec4:	4000e000 	.word	0x4000e000
20001ec8:	4000f000 	.word	0x4000f000
20001ecc:	00003004 	.word	0x00003004

20001ed0 <watchdog_reboot>:
20001ed0:	b510      	push	{r4, lr}
20001ed2:	2480      	movs	r4, #128	@ 0x80
20001ed4:	4b1c      	ldr	r3, [pc, #112]	@ (20001f48 <watchdog_reboot+0x78>)
20001ed6:	05e4      	lsls	r4, r4, #23
20001ed8:	601c      	str	r4, [r3, #0]
20001eda:	2800      	cmp	r0, #0
20001edc:	d01a      	beq.n	20001f14 <watchdog_reboot+0x44>
20001ede:	2301      	movs	r3, #1
20001ee0:	4c1a      	ldr	r4, [pc, #104]	@ (20001f4c <watchdog_reboot+0x7c>)
20001ee2:	4318      	orrs	r0, r3
20001ee4:	4b1a      	ldr	r3, [pc, #104]	@ (20001f50 <watchdog_reboot+0x80>)
20001ee6:	61dc      	str	r4, [r3, #28]
20001ee8:	4c1a      	ldr	r4, [pc, #104]	@ (20001f54 <watchdog_reboot+0x84>)
20001eea:	4044      	eors	r4, r0
20001eec:	621c      	str	r4, [r3, #32]
20001eee:	6259      	str	r1, [r3, #36]	@ 0x24
20001ef0:	6298      	str	r0, [r3, #40]	@ 0x28
20001ef2:	2180      	movs	r1, #128	@ 0x80
20001ef4:	4b14      	ldr	r3, [pc, #80]	@ (20001f48 <watchdog_reboot+0x78>)
20001ef6:	05c9      	lsls	r1, r1, #23
20001ef8:	6019      	str	r1, [r3, #0]
20001efa:	4817      	ldr	r0, [pc, #92]	@ (20001f58 <watchdog_reboot+0x88>)
20001efc:	4917      	ldr	r1, [pc, #92]	@ (20001f5c <watchdog_reboot+0x8c>)
20001efe:	6008      	str	r0, [r1, #0]
20001f00:	21e0      	movs	r1, #224	@ 0xe0
20001f02:	04c9      	lsls	r1, r1, #19
20001f04:	6019      	str	r1, [r3, #0]
20001f06:	2a00      	cmp	r2, #0
20001f08:	d107      	bne.n	20001f1a <watchdog_reboot+0x4a>
20001f0a:	2280      	movs	r2, #128	@ 0x80
20001f0c:	4b14      	ldr	r3, [pc, #80]	@ (20001f60 <watchdog_reboot+0x90>)
20001f0e:	0612      	lsls	r2, r2, #24
20001f10:	601a      	str	r2, [r3, #0]
20001f12:	bd10      	pop	{r4, pc}
20001f14:	4b0e      	ldr	r3, [pc, #56]	@ (20001f50 <watchdog_reboot+0x80>)
20001f16:	61d8      	str	r0, [r3, #28]
20001f18:	e7eb      	b.n	20001ef2 <watchdog_reboot+0x22>
20001f1a:	0153      	lsls	r3, r2, #5
20001f1c:	1a9b      	subs	r3, r3, r2
20001f1e:	009b      	lsls	r3, r3, #2
20001f20:	189a      	adds	r2, r3, r2
20001f22:	2380      	movs	r3, #128	@ 0x80
20001f24:	0112      	lsls	r2, r2, #4
20001f26:	045b      	lsls	r3, r3, #17
20001f28:	429a      	cmp	r2, r3
20001f2a:	d209      	bcs.n	20001f40 <watchdog_reboot+0x70>
20001f2c:	0013      	movs	r3, r2
20001f2e:	490d      	ldr	r1, [pc, #52]	@ (20001f64 <watchdog_reboot+0x94>)
20001f30:	600b      	str	r3, [r1, #0]
20001f32:	4b07      	ldr	r3, [pc, #28]	@ (20001f50 <watchdog_reboot+0x80>)
20001f34:	605a      	str	r2, [r3, #4]
20001f36:	2280      	movs	r2, #128	@ 0x80
20001f38:	4b09      	ldr	r3, [pc, #36]	@ (20001f60 <watchdog_reboot+0x90>)
20001f3a:	05d2      	lsls	r2, r2, #23
20001f3c:	601a      	str	r2, [r3, #0]
20001f3e:	e7e8      	b.n	20001f12 <watchdog_reboot+0x42>
20001f40:	4b09      	ldr	r3, [pc, #36]	@ (20001f68 <watchdog_reboot+0x98>)
20001f42:	001a      	movs	r2, r3
20001f44:	e7f3      	b.n	20001f2e <watchdog_reboot+0x5e>
20001f46:	46c0      	nop			@ (mov r8, r8)
20001f48:	4005b000 	.word	0x4005b000
20001f4c:	b007c0d3 	.word	0xb007c0d3
20001f50:	40058000 	.word	0x40058000
20001f54:	4ff83f2d 	.word	0x4ff83f2d
20001f58:	0001fffc 	.word	0x0001fffc
20001f5c:	40012008 	.word	0x40012008
20001f60:	4005a000 	.word	0x4005a000
20001f64:	20006398 	.word	0x20006398
20001f68:	00ffffff 	.word	0x00ffffff

20001f6c <tick_start>:
20001f6c:	2380      	movs	r3, #128	@ 0x80
20001f6e:	4a02      	ldr	r2, [pc, #8]	@ (20001f78 <tick_start+0xc>)
20001f70:	009b      	lsls	r3, r3, #2
20001f72:	430b      	orrs	r3, r1
20001f74:	62d3      	str	r3, [r2, #44]	@ 0x2c
20001f76:	4770      	bx	lr
20001f78:	40058000 	.word	0x40058000

20001f7c <rom_func_lookup>:
20001f7c:	2300      	movs	r3, #0
20001f7e:	b510      	push	{r4, lr}
20001f80:	0001      	movs	r1, r0
20001f82:	8a98      	ldrh	r0, [r3, #20]
20001f84:	8b1b      	ldrh	r3, [r3, #24]
20001f86:	4798      	blx	r3
20001f88:	bd10      	pop	{r4, pc}
20001f8a:	46c0      	nop			@ (mov r8, r8)

20001f8c <rom_data_lookup>:
20001f8c:	2316      	movs	r3, #22
20001f8e:	b510      	push	{r4, lr}
20001f90:	0001      	movs	r1, r0
20001f92:	8818      	ldrh	r0, [r3, #0]
20001f94:	885b      	ldrh	r3, [r3, #2]
20001f96:	4798      	blx	r3
20001f98:	bd10      	pop	{r4, pc}
20001f9a:	46c0      	nop			@ (mov r8, r8)

20001f9c <rom_funcs_lookup>:
20001f9c:	b5f8      	push	{r3, r4, r5, r6, r7, lr}
20001f9e:	4647      	mov	r7, r8
20001fa0:	46ce      	mov	lr, r9
20001fa2:	b580      	push	{r7, lr}
20001fa4:	1e0f      	subs	r7, r1, #0
20001fa6:	d018      	beq.n	20001fda <rom_funcs_lookup+0x3e>
20001fa8:	2314      	movs	r3, #20
20001faa:	4699      	mov	r9, r3
20001fac:	3304      	adds	r3, #4
20001fae:	0004      	movs	r4, r0
20001fb0:	2500      	movs	r5, #0
20001fb2:	2601      	movs	r6, #1
20001fb4:	4698      	mov	r8, r3
20001fb6:	464b      	mov	r3, r9
20001fb8:	8818      	ldrh	r0, [r3, #0]
20001fba:	4643      	mov	r3, r8
20001fbc:	6821      	ldr	r1, [r4, #0]
20001fbe:	881b      	ldrh	r3, [r3, #0]
20001fc0:	4798      	blx	r3
20001fc2:	c401      	stmia	r4!, {r0}
20001fc4:	1e43      	subs	r3, r0, #1
20001fc6:	4198      	sbcs	r0, r3
20001fc8:	3501      	adds	r5, #1
20001fca:	4006      	ands	r6, r0
20001fcc:	42af      	cmp	r7, r5
20001fce:	d1f2      	bne.n	20001fb6 <rom_funcs_lookup+0x1a>
20001fd0:	0030      	movs	r0, r6
20001fd2:	bcc0      	pop	{r6, r7}
20001fd4:	46b9      	mov	r9, r7
20001fd6:	46b0      	mov	r8, r6
20001fd8:	bdf8      	pop	{r3, r4, r5, r6, r7, pc}
20001fda:	2601      	movs	r6, #1
20001fdc:	e7f8      	b.n	20001fd0 <rom_funcs_lookup+0x34>
20001fde:	46c0      	nop			@ (mov r8, r8)

20001fe0 <rom_reset_usb_boot_extra>:
20001fe0:	2300      	movs	r3, #0
20001fe2:	b570      	push	{r4, r5, r6, lr}
20001fe4:	0004      	movs	r4, r0
20001fe6:	000d      	movs	r5, r1
20001fe8:	8a98      	ldrh	r0, [r3, #20]
20001fea:	4905      	ldr	r1, [pc, #20]	@ (20002000 <rom_reset_usb_boot_extra+0x20>)
20001fec:	8b1b      	ldrh	r3, [r3, #24]
20001fee:	4798      	blx	r3
20001ff0:	0003      	movs	r3, r0
20001ff2:	2000      	movs	r0, #0
20001ff4:	2c00      	cmp	r4, #0
20001ff6:	db01      	blt.n	20001ffc <rom_reset_usb_boot_extra+0x1c>
20001ff8:	3001      	adds	r0, #1
20001ffa:	40a0      	lsls	r0, r4
20001ffc:	0029      	movs	r1, r5
20001ffe:	4798      	blx	r3
20002000:	00004255 	.word	0x00004255

20002004 <xosc_init>:
20002004:	23aa      	movs	r3, #170	@ 0xaa
20002006:	4a06      	ldr	r2, [pc, #24]	@ (20002020 <xosc_init+0x1c>)
20002008:	011b      	lsls	r3, r3, #4
2000200a:	6013      	str	r3, [r2, #0]
2000200c:	238d      	movs	r3, #141	@ 0x8d
2000200e:	005b      	lsls	r3, r3, #1
20002010:	60d3      	str	r3, [r2, #12]
20002012:	4904      	ldr	r1, [pc, #16]	@ (20002024 <xosc_init+0x20>)
20002014:	4b04      	ldr	r3, [pc, #16]	@ (20002028 <xosc_init+0x24>)
20002016:	6019      	str	r1, [r3, #0]
20002018:	6853      	ldr	r3, [r2, #4]
2000201a:	2b00      	cmp	r3, #0
2000201c:	dafc      	bge.n	20002018 <xosc_init+0x14>
2000201e:	4770      	bx	lr
20002020:	40024000 	.word	0x40024000
20002024:	00fab000 	.word	0x00fab000
20002028:	40026000 	.word	0x40026000

2000202c <first_per_core_initializer>:
2000202c:	4770      	bx	lr
2000202e:	46c0      	nop			@ (mov r8, r8)

20002030 <hard_assertion_failure>:
20002030:	b510      	push	{r4, lr}
20002032:	4801      	ldr	r0, [pc, #4]	@ (20002038 <hard_assertion_failure+0x8>)
20002034:	f7fe ff78 	bl	20000f28 <panic>
20002038:	20005180 	.word	0x20005180

2000203c <runtime_run_initializers>:
2000203c:	b570      	push	{r4, r5, r6, lr}
2000203e:	4d07      	ldr	r5, [pc, #28]	@ (2000205c <runtime_run_initializers+0x20>)
20002040:	4e07      	ldr	r6, [pc, #28]	@ (20002060 <runtime_run_initializers+0x24>)
20002042:	42b5      	cmp	r5, r6
20002044:	d209      	bcs.n	2000205a <runtime_run_initializers+0x1e>
20002046:	2400      	movs	r4, #0
20002048:	3e01      	subs	r6, #1
2000204a:	1b76      	subs	r6, r6, r5
2000204c:	08b6      	lsrs	r6, r6, #2
2000204e:	3601      	adds	r6, #1
20002050:	cd08      	ldmia	r5!, {r3}
20002052:	3401      	adds	r4, #1
20002054:	4798      	blx	r3
20002056:	42b4      	cmp	r4, r6
20002058:	d1fa      	bne.n	20002050 <runtime_run_initializers+0x14>
2000205a:	bd70      	pop	{r4, r5, r6, pc}
2000205c:	200055c0 	.word	0x200055c0
20002060:	200055f8 	.word	0x200055f8

20002064 <runtime_init_early_resets>:
20002064:	4b05      	ldr	r3, [pc, #20]	@ (2000207c <runtime_init_early_resets+0x18>)
20002066:	4a06      	ldr	r2, [pc, #24]	@ (20002080 <runtime_init_early_resets+0x1c>)
20002068:	4906      	ldr	r1, [pc, #24]	@ (20002084 <runtime_init_early_resets+0x20>)
2000206a:	601a      	str	r2, [r3, #0]
2000206c:	4a06      	ldr	r2, [pc, #24]	@ (20002088 <runtime_init_early_resets+0x24>)
2000206e:	4b07      	ldr	r3, [pc, #28]	@ (2000208c <runtime_init_early_resets+0x28>)
20002070:	601a      	str	r2, [r3, #0]
20002072:	0010      	movs	r0, r2
20002074:	680b      	ldr	r3, [r1, #0]
20002076:	4398      	bics	r0, r3
20002078:	d1fb      	bne.n	20002072 <runtime_init_early_resets+0xe>
2000207a:	4770      	bx	lr
2000207c:	4000e000 	.word	0x4000e000
20002080:	fefbcdbf 	.word	0xfefbcdbf
20002084:	4000c008 	.word	0x4000c008
20002088:	003c7ffe 	.word	0x003c7ffe
2000208c:	4000f000 	.word	0x4000f000

20002090 <runtime_init_usb_power_down>:
20002090:	4b04      	ldr	r3, [pc, #16]	@ (200020a4 <runtime_init_usb_power_down+0x14>)
20002092:	6cdb      	ldr	r3, [r3, #76]	@ 0x4c
20002094:	2b00      	cmp	r3, #0
20002096:	d103      	bne.n	200020a0 <runtime_init_usb_power_down+0x10>
20002098:	2280      	movs	r2, #128	@ 0x80
2000209a:	4b03      	ldr	r3, [pc, #12]	@ (200020a8 <runtime_init_usb_power_down+0x18>)
2000209c:	02d2      	lsls	r2, r2, #11
2000209e:	601a      	str	r2, [r3, #0]
200020a0:	4770      	bx	lr
200020a2:	46c0      	nop			@ (mov r8, r8)
200020a4:	50110000 	.word	0x50110000
200020a8:	5011204c 	.word	0x5011204c

200020ac <runtime_init_post_clock_resets>:
200020ac:	4a04      	ldr	r2, [pc, #16]	@ (200020c0 <runtime_init_post_clock_resets+0x14>)
200020ae:	4b05      	ldr	r3, [pc, #20]	@ (200020c4 <runtime_init_post_clock_resets+0x18>)
200020b0:	601a      	str	r2, [r3, #0]
200020b2:	4a05      	ldr	r2, [pc, #20]	@ (200020c8 <runtime_init_post_clock_resets+0x1c>)
200020b4:	6813      	ldr	r3, [r2, #0]
200020b6:	01db      	lsls	r3, r3, #7
200020b8:	3380      	adds	r3, #128	@ 0x80
200020ba:	d1fb      	bne.n	200020b4 <runtime_init_post_clock_resets+0x8>
200020bc:	4770      	bx	lr
200020be:	46c0      	nop			@ (mov r8, r8)
200020c0:	01ffffff 	.word	0x01ffffff
200020c4:	4000f000 	.word	0x4000f000
200020c8:	4000c008 	.word	0x4000c008

200020cc <runtime_init_rp2040_gpio_ie_disable>:
200020cc:	2240      	movs	r2, #64	@ 0x40
200020ce:	4b03      	ldr	r3, [pc, #12]	@ (200020dc <runtime_init_rp2040_gpio_ie_disable+0x10>)
200020d0:	679a      	str	r2, [r3, #120]	@ 0x78
200020d2:	675a      	str	r2, [r3, #116]	@ 0x74
200020d4:	671a      	str	r2, [r3, #112]	@ 0x70
200020d6:	66da      	str	r2, [r3, #108]	@ 0x6c
200020d8:	4770      	bx	lr
200020da:	46c0      	nop			@ (mov r8, r8)
200020dc:	4001f000 	.word	0x4001f000

200020e0 <runtime_init_spin_locks_reset>:
200020e0:	b510      	push	{r4, lr}
200020e2:	f7fe ffd7 	bl	20001094 <spin_locks_reset>
200020e6:	bd10      	pop	{r4, pc}

200020e8 <runtime_init_clocks>:
200020e8:	2300      	movs	r3, #0
200020ea:	b510      	push	{r4, lr}
200020ec:	4c29      	ldr	r4, [pc, #164]	@ (20002194 <runtime_init_clocks+0xac>)
200020ee:	b082      	sub	sp, #8
200020f0:	67a3      	str	r3, [r4, #120]	@ 0x78
200020f2:	f7ff ff87 	bl	20002004 <xosc_init>
200020f6:	2201      	movs	r2, #1
200020f8:	4b27      	ldr	r3, [pc, #156]	@ (20002198 <runtime_init_clocks+0xb0>)
200020fa:	601a      	str	r2, [r3, #0]
200020fc:	6c63      	ldr	r3, [r4, #68]	@ 0x44
200020fe:	2b01      	cmp	r3, #1
20002100:	d1fc      	bne.n	200020fc <runtime_init_clocks+0x14>
20002102:	2203      	movs	r2, #3
20002104:	4b25      	ldr	r3, [pc, #148]	@ (2000219c <runtime_init_clocks+0xb4>)
20002106:	601a      	str	r2, [r3, #0]
20002108:	4a22      	ldr	r2, [pc, #136]	@ (20002194 <runtime_init_clocks+0xac>)
2000210a:	6b93      	ldr	r3, [r2, #56]	@ 0x38
2000210c:	2b01      	cmp	r3, #1
2000210e:	d1fc      	bne.n	2000210a <runtime_init_clocks+0x22>
20002110:	3301      	adds	r3, #1
20002112:	9300      	str	r3, [sp, #0]
20002114:	2101      	movs	r1, #1
20002116:	4a22      	ldr	r2, [pc, #136]	@ (200021a0 <runtime_init_clocks+0xb8>)
20002118:	4822      	ldr	r0, [pc, #136]	@ (200021a4 <runtime_init_clocks+0xbc>)
2000211a:	3304      	adds	r3, #4
2000211c:	f7ff fe80 	bl	20001e20 <pll_init>
20002120:	2305      	movs	r3, #5
20002122:	2101      	movs	r1, #1
20002124:	9300      	str	r3, [sp, #0]
20002126:	4a20      	ldr	r2, [pc, #128]	@ (200021a8 <runtime_init_clocks+0xc0>)
20002128:	4820      	ldr	r0, [pc, #128]	@ (200021ac <runtime_init_clocks+0xc4>)
2000212a:	f7ff fe79 	bl	20001e20 <pll_init>
2000212e:	2200      	movs	r2, #0
20002130:	2102      	movs	r1, #2
20002132:	2004      	movs	r0, #4
20002134:	4b1e      	ldr	r3, [pc, #120]	@ (200021b0 <runtime_init_clocks+0xc8>)
20002136:	f7ff fdfd 	bl	20001d34 <clock_configure_undivided>
2000213a:	2200      	movs	r2, #0
2000213c:	2101      	movs	r1, #1
2000213e:	2005      	movs	r0, #5
20002140:	4b1c      	ldr	r3, [pc, #112]	@ (200021b4 <runtime_init_clocks+0xcc>)
20002142:	f7ff fdf7 	bl	20001d34 <clock_configure_undivided>
20002146:	2200      	movs	r2, #0
20002148:	2100      	movs	r1, #0
2000214a:	2007      	movs	r0, #7
2000214c:	4b1a      	ldr	r3, [pc, #104]	@ (200021b8 <runtime_init_clocks+0xd0>)
2000214e:	f7ff fdf1 	bl	20001d34 <clock_configure_undivided>
20002152:	2200      	movs	r2, #0
20002154:	2100      	movs	r1, #0
20002156:	2008      	movs	r0, #8
20002158:	4b17      	ldr	r3, [pc, #92]	@ (200021b8 <runtime_init_clocks+0xd0>)
2000215a:	f7ff fdeb 	bl	20001d34 <clock_configure_undivided>
2000215e:	2380      	movs	r3, #128	@ 0x80
20002160:	00db      	lsls	r3, r3, #3
20002162:	9300      	str	r3, [sp, #0]
20002164:	2200      	movs	r2, #0
20002166:	2100      	movs	r1, #0
20002168:	2009      	movs	r0, #9
2000216a:	4b13      	ldr	r3, [pc, #76]	@ (200021b8 <runtime_init_clocks+0xd0>)
2000216c:	f7ff fd6c 	bl	20001c48 <clock_configure_int_divider>
20002170:	2200      	movs	r2, #0
20002172:	4b10      	ldr	r3, [pc, #64]	@ (200021b4 <runtime_init_clocks+0xcc>)
20002174:	2100      	movs	r1, #0
20002176:	2006      	movs	r0, #6
20002178:	f7ff fddc 	bl	20001d34 <clock_configure_undivided>
2000217c:	2004      	movs	r0, #4
2000217e:	f7ff fe49 	bl	20001e14 <clock_get_hz>
20002182:	490e      	ldr	r1, [pc, #56]	@ (200021bc <runtime_init_clocks+0xd4>)
20002184:	f000 f824 	bl	200021d0 <__wrap___aeabi_uidiv>
20002188:	0001      	movs	r1, r0
2000218a:	2000      	movs	r0, #0
2000218c:	f7ff feee 	bl	20001f6c <tick_start>
20002190:	b002      	add	sp, #8
20002192:	bd10      	pop	{r4, pc}
20002194:	40008000 	.word	0x40008000
20002198:	4000b03c 	.word	0x4000b03c
2000219c:	4000b030 	.word	0x4000b030
200021a0:	59682f00 	.word	0x59682f00
200021a4:	40028000 	.word	0x40028000
200021a8:	47868c00 	.word	0x47868c00
200021ac:	4002c000 	.word	0x4002c000
200021b0:	00b71b00 	.word	0x00b71b00
200021b4:	07735940 	.word	0x07735940
200021b8:	02dc6c00 	.word	0x02dc6c00
200021bc:	000f4240 	.word	0x000f4240

200021c0 <__aeabi_bits_init>:
200021c0:	4801      	ldr	r0, [pc, #4]	@ (200021c8 <__aeabi_bits_init+0x8>)
200021c2:	2104      	movs	r1, #4
200021c4:	4b01      	ldr	r3, [pc, #4]	@ (200021cc <__aeabi_bits_init+0xc>)
200021c6:	4718      	bx	r3
200021c8:	20005560 	.word	0x20005560
200021cc:	20001f9d 	.word	0x20001f9d

200021d0 <__wrap___aeabi_uidiv>:
200021d0:	4a11      	ldr	r2, [pc, #68]	@ (20002218 <divmod_u32u32_savestate+0x18>)
200021d2:	6f93      	ldr	r3, [r2, #120]	@ 0x78
200021d4:	089b      	lsrs	r3, r3, #2
200021d6:	d213      	bcs.n	20002200 <divmod_u32u32_savestate>

200021d8 <divmod_u32u32_unsafe>:
200021d8:	6610      	str	r0, [r2, #96]	@ 0x60
200021da:	6651      	str	r1, [r2, #100]	@ 0x64
200021dc:	2900      	cmp	r1, #0
200021de:	d005      	beq.n	200021ec <divmod_u32u32_unsafe+0x14>
200021e0:	e7ff      	b.n	200021e2 <divmod_u32u32_unsafe+0xa>
200021e2:	e7ff      	b.n	200021e4 <divmod_u32u32_unsafe+0xc>
200021e4:	e7ff      	b.n	200021e6 <divmod_u32u32_unsafe+0xe>
200021e6:	6f51      	ldr	r1, [r2, #116]	@ 0x74
200021e8:	6f10      	ldr	r0, [r2, #112]	@ 0x70
200021ea:	4770      	bx	lr
200021ec:	b504      	push	{r2, lr}
200021ee:	2800      	cmp	r0, #0
200021f0:	d001      	beq.n	200021f6 <divmod_u32u32_unsafe+0x1e>
200021f2:	2000      	movs	r0, #0
200021f4:	43c0      	mvns	r0, r0
200021f6:	f002 ff4d 	bl	20005094 <__aeabi_idiv0>
200021fa:	2100      	movs	r1, #0
200021fc:	bd04      	pop	{r2, pc}
200021fe:	46c0      	nop			@ (mov r8, r8)

20002200 <divmod_u32u32_savestate>:
20002200:	b5f0      	push	{r4, r5, r6, r7, lr}
20002202:	6e14      	ldr	r4, [r2, #96]	@ 0x60
20002204:	6e55      	ldr	r5, [r2, #100]	@ 0x64
20002206:	6f57      	ldr	r7, [r2, #116]	@ 0x74
20002208:	6f16      	ldr	r6, [r2, #112]	@ 0x70
2000220a:	f7ff ffe5 	bl	200021d8 <divmod_u32u32_unsafe>
2000220e:	6614      	str	r4, [r2, #96]	@ 0x60
20002210:	6655      	str	r5, [r2, #100]	@ 0x64
20002212:	6757      	str	r7, [r2, #116]	@ 0x74
20002214:	6716      	str	r6, [r2, #112]	@ 0x70
20002216:	bdf0      	pop	{r4, r5, r6, r7, pc}
20002218:	d0000000 	.word	0xd0000000

2000221c <__aeabi_double_init>:
2000221c:	2313      	movs	r3, #19
2000221e:	b570      	push	{r4, r5, r6, lr}
20002220:	781d      	ldrb	r5, [r3, #0]
20002222:	2d01      	cmp	r5, #1
20002224:	d019      	beq.n	2000225a <__aeabi_double_init+0x3e>
20002226:	dd14      	ble.n	20002252 <__aeabi_double_init+0x36>
20002228:	481f      	ldr	r0, [pc, #124]	@ (200022a8 <__aeabi_double_init+0x8c>)
2000222a:	f7ff feaf 	bl	20001f8c <rom_data_lookup>
2000222e:	0006      	movs	r6, r0
20002230:	481e      	ldr	r0, [pc, #120]	@ (200022ac <__aeabi_double_init+0x90>)
20002232:	f7ff feab 	bl	20001f8c <rom_data_lookup>
20002236:	4c1e      	ldr	r4, [pc, #120]	@ (200022b0 <__aeabi_double_init+0x94>)
20002238:	2280      	movs	r2, #128	@ 0x80
2000223a:	0031      	movs	r1, r6
2000223c:	0020      	movs	r0, r4
2000223e:	f000 f8c7 	bl	200023d0 <__wrap___aeabi_memcpy>
20002242:	2d02      	cmp	r5, #2
20002244:	d02d      	beq.n	200022a2 <__aeabi_double_init+0x86>
20002246:	481b      	ldr	r0, [pc, #108]	@ (200022b4 <__aeabi_double_init+0x98>)
20002248:	f7ff fe98 	bl	20001f7c <rom_func_lookup>
2000224c:	4b1a      	ldr	r3, [pc, #104]	@ (200022b8 <__aeabi_double_init+0x9c>)
2000224e:	6018      	str	r0, [r3, #0]
20002250:	bd70      	pop	{r4, r5, r6, pc}
20002252:	4b1a      	ldr	r3, [pc, #104]	@ (200022bc <__aeabi_double_init+0xa0>)
20002254:	4c16      	ldr	r4, [pc, #88]	@ (200022b0 <__aeabi_double_init+0x94>)
20002256:	64a3      	str	r3, [r4, #72]	@ 0x48
20002258:	e7f5      	b.n	20002246 <__aeabi_double_init+0x2a>
2000225a:	4b18      	ldr	r3, [pc, #96]	@ (200022bc <__aeabi_double_init+0xa0>)
2000225c:	4c14      	ldr	r4, [pc, #80]	@ (200022b0 <__aeabi_double_init+0x94>)
2000225e:	6023      	str	r3, [r4, #0]
20002260:	6063      	str	r3, [r4, #4]
20002262:	60a3      	str	r3, [r4, #8]
20002264:	60e3      	str	r3, [r4, #12]
20002266:	6123      	str	r3, [r4, #16]
20002268:	6163      	str	r3, [r4, #20]
2000226a:	61a3      	str	r3, [r4, #24]
2000226c:	61e3      	str	r3, [r4, #28]
2000226e:	6223      	str	r3, [r4, #32]
20002270:	6263      	str	r3, [r4, #36]	@ 0x24
20002272:	62a3      	str	r3, [r4, #40]	@ 0x28
20002274:	62e3      	str	r3, [r4, #44]	@ 0x2c
20002276:	6323      	str	r3, [r4, #48]	@ 0x30
20002278:	6363      	str	r3, [r4, #52]	@ 0x34
2000227a:	63a3      	str	r3, [r4, #56]	@ 0x38
2000227c:	63e3      	str	r3, [r4, #60]	@ 0x3c
2000227e:	6423      	str	r3, [r4, #64]	@ 0x40
20002280:	6463      	str	r3, [r4, #68]	@ 0x44
20002282:	64a3      	str	r3, [r4, #72]	@ 0x48
20002284:	64e3      	str	r3, [r4, #76]	@ 0x4c
20002286:	6523      	str	r3, [r4, #80]	@ 0x50
20002288:	6563      	str	r3, [r4, #84]	@ 0x54
2000228a:	65a3      	str	r3, [r4, #88]	@ 0x58
2000228c:	65e3      	str	r3, [r4, #92]	@ 0x5c
2000228e:	6623      	str	r3, [r4, #96]	@ 0x60
20002290:	6663      	str	r3, [r4, #100]	@ 0x64
20002292:	66a3      	str	r3, [r4, #104]	@ 0x68
20002294:	66e3      	str	r3, [r4, #108]	@ 0x6c
20002296:	6723      	str	r3, [r4, #112]	@ 0x70
20002298:	6763      	str	r3, [r4, #116]	@ 0x74
2000229a:	67a3      	str	r3, [r4, #120]	@ 0x78
2000229c:	67e3      	str	r3, [r4, #124]	@ 0x7c
2000229e:	64a3      	str	r3, [r4, #72]	@ 0x48
200022a0:	e7d1      	b.n	20002246 <__aeabi_double_init+0x2a>
200022a2:	4b06      	ldr	r3, [pc, #24]	@ (200022bc <__aeabi_double_init+0xa0>)
200022a4:	64a3      	str	r3, [r4, #72]	@ 0x48
200022a6:	e7ce      	b.n	20002246 <__aeabi_double_init+0x2a>
200022a8:	00004453 	.word	0x00004453
200022ac:	00004653 	.word	0x00004653
200022b0:	20005850 	.word	0x20005850
200022b4:	0000334c 	.word	0x0000334c
200022b8:	200063c0 	.word	0x200063c0
200022bc:	200022c1 	.word	0x200022c1

200022c0 <double_table_shim_on_use_helper>:
200022c0:	b507      	push	{r0, r1, r2, lr}
200022c2:	4660      	mov	r0, ip
200022c4:	8801      	ldrh	r1, [r0, #0]
200022c6:	0a0a      	lsrs	r2, r1, #8
200022c8:	3002      	adds	r0, #2
200022ca:	2adf      	cmp	r2, #223	@ 0xdf
200022cc:	d1fa      	bne.n	200022c4 <double_table_shim_on_use_helper+0x4>
200022ce:	b2c9      	uxtb	r1, r1
200022d0:	0882      	lsrs	r2, r0, #2
200022d2:	d304      	bcc.n	200022de <double_table_shim_on_use_helper+0x1e>
200022d4:	8802      	ldrh	r2, [r0, #0]
200022d6:	8840      	ldrh	r0, [r0, #2]
200022d8:	0400      	lsls	r0, r0, #16
200022da:	4310      	orrs	r0, r2
200022dc:	e000      	b.n	200022e0 <double_table_shim_on_use_helper+0x20>
200022de:	6800      	ldr	r0, [r0, #0]
200022e0:	4a01      	ldr	r2, [pc, #4]	@ (200022e8 <double_table_shim_on_use_helper+0x28>)
200022e2:	5050      	str	r0, [r2, r1]
200022e4:	9003      	str	r0, [sp, #12]
200022e6:	bd07      	pop	{r0, r1, r2, pc}
200022e8:	20005850 	.word	0x20005850

200022ec <__wrap___aeabi_lmul>:
200022ec:	4351      	muls	r1, r2
200022ee:	4343      	muls	r3, r0
200022f0:	18c9      	adds	r1, r1, r3
200022f2:	468c      	mov	ip, r1
200022f4:	0c11      	lsrs	r1, r2, #16
200022f6:	b283      	uxth	r3, r0
200022f8:	434b      	muls	r3, r1
200022fa:	b410      	push	{r4}
200022fc:	0c04      	lsrs	r4, r0, #16
200022fe:	4361      	muls	r1, r4
20002300:	b292      	uxth	r2, r2
20002302:	b280      	uxth	r0, r0
20002304:	4350      	muls	r0, r2
20002306:	4362      	muls	r2, r4
20002308:	041c      	lsls	r4, r3, #16
2000230a:	0c1b      	lsrs	r3, r3, #16
2000230c:	1900      	adds	r0, r0, r4
2000230e:	bc10      	pop	{r4}
20002310:	4159      	adcs	r1, r3
20002312:	0413      	lsls	r3, r2, #16
20002314:	0c12      	lsrs	r2, r2, #16
20002316:	18c0      	adds	r0, r0, r3
20002318:	4151      	adcs	r1, r2
2000231a:	4461      	add	r1, ip
2000231c:	4770      	bx	lr
	...

20002320 <__aeabi_float_init>:
20002320:	2313      	movs	r3, #19
20002322:	b510      	push	{r4, lr}
20002324:	781c      	ldrb	r4, [r3, #0]
20002326:	4813      	ldr	r0, [pc, #76]	@ (20002374 <__aeabi_float_init+0x54>)
20002328:	f7ff fe30 	bl	20001f8c <rom_data_lookup>
2000232c:	2c01      	cmp	r4, #1
2000232e:	d00b      	beq.n	20002348 <__aeabi_float_init+0x28>
20002330:	dd04      	ble.n	2000233c <__aeabi_float_init+0x1c>
20002332:	0001      	movs	r1, r0
20002334:	2280      	movs	r2, #128	@ 0x80
20002336:	4810      	ldr	r0, [pc, #64]	@ (20002378 <__aeabi_float_init+0x58>)
20002338:	f000 f84a 	bl	200023d0 <__wrap___aeabi_memcpy>
2000233c:	480f      	ldr	r0, [pc, #60]	@ (2000237c <__aeabi_float_init+0x5c>)
2000233e:	f7ff fe1d 	bl	20001f7c <rom_func_lookup>
20002342:	4b0f      	ldr	r3, [pc, #60]	@ (20002380 <__aeabi_float_init+0x60>)
20002344:	6018      	str	r0, [r3, #0]
20002346:	bd10      	pop	{r4, pc}
20002348:	4c0b      	ldr	r4, [pc, #44]	@ (20002378 <__aeabi_float_init+0x58>)
2000234a:	0001      	movs	r1, r0
2000234c:	2254      	movs	r2, #84	@ 0x54
2000234e:	0020      	movs	r0, r4
20002350:	f000 f83e 	bl	200023d0 <__wrap___aeabi_memcpy>
20002354:	4b0b      	ldr	r3, [pc, #44]	@ (20002384 <__aeabi_float_init+0x64>)
20002356:	6563      	str	r3, [r4, #84]	@ 0x54
20002358:	65a3      	str	r3, [r4, #88]	@ 0x58
2000235a:	65e3      	str	r3, [r4, #92]	@ 0x5c
2000235c:	6623      	str	r3, [r4, #96]	@ 0x60
2000235e:	6663      	str	r3, [r4, #100]	@ 0x64
20002360:	66a3      	str	r3, [r4, #104]	@ 0x68
20002362:	66e3      	str	r3, [r4, #108]	@ 0x6c
20002364:	6723      	str	r3, [r4, #112]	@ 0x70
20002366:	6763      	str	r3, [r4, #116]	@ 0x74
20002368:	67a3      	str	r3, [r4, #120]	@ 0x78
2000236a:	67e3      	str	r3, [r4, #124]	@ 0x7c
2000236c:	6223      	str	r3, [r4, #32]
2000236e:	61e3      	str	r3, [r4, #28]
20002370:	e7e4      	b.n	2000233c <__aeabi_float_init+0x1c>
20002372:	46c0      	nop			@ (mov r8, r8)
20002374:	00004653 	.word	0x00004653
20002378:	20005950 	.word	0x20005950
2000237c:	0000334c 	.word	0x0000334c
20002380:	200063c0 	.word	0x200063c0
20002384:	20002389 	.word	0x20002389

20002388 <float_table_shim_on_use_helper>:
20002388:	b507      	push	{r0, r1, r2, lr}
2000238a:	4660      	mov	r0, ip
2000238c:	8801      	ldrh	r1, [r0, #0]
2000238e:	0a0a      	lsrs	r2, r1, #8
20002390:	3002      	adds	r0, #2
20002392:	2adf      	cmp	r2, #223	@ 0xdf
20002394:	d1fa      	bne.n	2000238c <float_table_shim_on_use_helper+0x4>
20002396:	b2c9      	uxtb	r1, r1
20002398:	0882      	lsrs	r2, r0, #2
2000239a:	d304      	bcc.n	200023a6 <float_table_shim_on_use_helper+0x1e>
2000239c:	8802      	ldrh	r2, [r0, #0]
2000239e:	8840      	ldrh	r0, [r0, #2]
200023a0:	0400      	lsls	r0, r0, #16
200023a2:	4310      	orrs	r0, r2
200023a4:	e000      	b.n	200023a8 <float_table_shim_on_use_helper+0x20>
200023a6:	6800      	ldr	r0, [r0, #0]
200023a8:	4a01      	ldr	r2, [pc, #4]	@ (200023b0 <float_table_shim_on_use_helper+0x28>)
200023aa:	5050      	str	r0, [r2, r1]
200023ac:	9003      	str	r0, [sp, #12]
200023ae:	bd07      	pop	{r0, r1, r2, pc}
200023b0:	20005950 	.word	0x20005950

200023b4 <__aeabi_mem_init>:
200023b4:	4801      	ldr	r0, [pc, #4]	@ (200023bc <__aeabi_mem_init+0x8>)
200023b6:	2104      	movs	r1, #4
200023b8:	4b01      	ldr	r3, [pc, #4]	@ (200023c0 <__aeabi_mem_init+0xc>)
200023ba:	4718      	bx	r3
200023bc:	20005570 	.word	0x20005570
200023c0:	20001f9d 	.word	0x20001f9d

200023c4 <__wrap_memset>:
200023c4:	4b01      	ldr	r3, [pc, #4]	@ (200023cc <__wrap_memset+0x8>)
200023c6:	681b      	ldr	r3, [r3, #0]
200023c8:	4718      	bx	r3
200023ca:	0000      	.short	0x0000
200023cc:	20005570 	.word	0x20005570

200023d0 <__wrap___aeabi_memcpy>:
200023d0:	4b01      	ldr	r3, [pc, #4]	@ (200023d8 <__wrap___aeabi_memcpy+0x8>)
200023d2:	685b      	ldr	r3, [r3, #4]
200023d4:	4718      	bx	r3
200023d6:	0000      	.short	0x0000
200023d8:	20005570 	.word	0x20005570

200023dc <_out_char>:
200023dc:	b510      	push	{r4, lr}
200023de:	2800      	cmp	r0, #0
200023e0:	d100      	bne.n	200023e4 <_out_char+0x8>
200023e2:	bd10      	pop	{r4, pc}
200023e4:	f000 f91c 	bl	20002620 <__wrap_putchar>
200023e8:	e7fb      	b.n	200023e2 <_out_char+0x6>
200023ea:	46c0      	nop			@ (mov r8, r8)

200023ec <weak_raw_vprintf>:
200023ec:	b510      	push	{r4, lr}
200023ee:	4a09      	ldr	r2, [pc, #36]	@ (20002414 <weak_raw_vprintf+0x28>)
200023f0:	0003      	movs	r3, r0
200023f2:	6814      	ldr	r4, [r2, #0]
200023f4:	b084      	sub	sp, #16
200023f6:	2c00      	cmp	r4, #0
200023f8:	d008      	beq.n	2000240c <weak_raw_vprintf+0x20>
200023fa:	2201      	movs	r2, #1
200023fc:	9100      	str	r1, [sp, #0]
200023fe:	4806      	ldr	r0, [pc, #24]	@ (20002418 <weak_raw_vprintf+0x2c>)
20002400:	4252      	negs	r2, r2
20002402:	a903      	add	r1, sp, #12
20002404:	47a0      	blx	r4
20002406:	2001      	movs	r0, #1
20002408:	b004      	add	sp, #16
2000240a:	bd10      	pop	{r4, pc}
2000240c:	f000 f952 	bl	200026b4 <__wrap_puts>
20002410:	2000      	movs	r0, #0
20002412:	e7f9      	b.n	20002408 <weak_raw_vprintf+0x1c>
20002414:	20006394 	.word	0x20006394
20002418:	200023dd 	.word	0x200023dd

2000241c <_exit>:
2000241c:	be00      	bkpt	0x0000
2000241e:	e7fd      	b.n	2000241c <_exit>

20002420 <exit>:
20002420:	b510      	push	{r4, lr}
20002422:	f7ff fffb 	bl	2000241c <_exit>
20002426:	46c0      	nop			@ (mov r8, r8)

20002428 <runtime_init>:
20002428:	b570      	push	{r4, r5, r6, lr}
2000242a:	f7ff fe07 	bl	2000203c <runtime_run_initializers>
2000242e:	4d07      	ldr	r5, [pc, #28]	@ (2000244c <runtime_init+0x24>)
20002430:	4e07      	ldr	r6, [pc, #28]	@ (20002450 <runtime_init+0x28>)
20002432:	42b5      	cmp	r5, r6
20002434:	d209      	bcs.n	2000244a <runtime_init+0x22>
20002436:	2400      	movs	r4, #0
20002438:	3e01      	subs	r6, #1
2000243a:	1b76      	subs	r6, r6, r5
2000243c:	08b6      	lsrs	r6, r6, #2
2000243e:	3601      	adds	r6, #1
20002440:	cd08      	ldmia	r5!, {r3}
20002442:	3401      	adds	r4, #1
20002444:	4798      	blx	r3
20002446:	42b4      	cmp	r4, r6
20002448:	d1fa      	bne.n	20002440 <runtime_init+0x18>
2000244a:	bd70      	pop	{r4, r5, r6, pc}
2000244c:	200055f8 	.word	0x200055f8
20002450:	200055fc 	.word	0x200055fc

20002454 <stdio_out_chars_no_crlf>:
20002454:	0003      	movs	r3, r0
20002456:	b510      	push	{r4, lr}
20002458:	0008      	movs	r0, r1
2000245a:	0011      	movs	r1, r2
2000245c:	681b      	ldr	r3, [r3, #0]
2000245e:	4798      	blx	r3
20002460:	bd10      	pop	{r4, pc}
20002462:	46c0      	nop			@ (mov r8, r8)

20002464 <stdio_out_chars_crlf>:
20002464:	b5f8      	push	{r3, r4, r5, r6, r7, lr}
20002466:	7d43      	ldrb	r3, [r0, #21]
20002468:	0007      	movs	r7, r0
2000246a:	000d      	movs	r5, r1
2000246c:	0016      	movs	r6, r2
2000246e:	2b00      	cmp	r3, #0
20002470:	d038      	beq.n	200024e4 <stdio_out_chars_crlf+0x80>
20002472:	2a00      	cmp	r2, #0
20002474:	dd1a      	ble.n	200024ac <stdio_out_chars_crlf+0x48>
20002476:	780b      	ldrb	r3, [r1, #0]
20002478:	2b0a      	cmp	r3, #10
2000247a:	d018      	beq.n	200024ae <stdio_out_chars_crlf+0x4a>
2000247c:	2000      	movs	r0, #0
2000247e:	2e01      	cmp	r6, #1
20002480:	d009      	beq.n	20002496 <stdio_out_chars_crlf+0x32>
20002482:	2401      	movs	r4, #1
20002484:	0021      	movs	r1, r4
20002486:	5c6b      	ldrb	r3, [r5, r1]
20002488:	3401      	adds	r4, #1
2000248a:	2b0a      	cmp	r3, #10
2000248c:	d01a      	beq.n	200024c4 <stdio_out_chars_crlf+0x60>
2000248e:	42b4      	cmp	r4, r6
20002490:	d1f8      	bne.n	20002484 <stdio_out_chars_crlf+0x20>
20002492:	4286      	cmp	r6, r0
20002494:	dd03      	ble.n	2000249e <stdio_out_chars_crlf+0x3a>
20002496:	1a31      	subs	r1, r6, r0
20002498:	683b      	ldr	r3, [r7, #0]
2000249a:	1828      	adds	r0, r5, r0
2000249c:	4798      	blx	r3
2000249e:	19ad      	adds	r5, r5, r6
200024a0:	3d01      	subs	r5, #1
200024a2:	782b      	ldrb	r3, [r5, #0]
200024a4:	3b0d      	subs	r3, #13
200024a6:	425a      	negs	r2, r3
200024a8:	4153      	adcs	r3, r2
200024aa:	753b      	strb	r3, [r7, #20]
200024ac:	bdf8      	pop	{r3, r4, r5, r6, r7, pc}
200024ae:	7d03      	ldrb	r3, [r0, #20]
200024b0:	2b00      	cmp	r3, #0
200024b2:	d1e3      	bne.n	2000247c <stdio_out_chars_crlf+0x18>
200024b4:	2102      	movs	r1, #2
200024b6:	480e      	ldr	r0, [pc, #56]	@ (200024f0 <stdio_out_chars_crlf+0x8c>)
200024b8:	683b      	ldr	r3, [r7, #0]
200024ba:	4798      	blx	r3
200024bc:	2e01      	cmp	r6, #1
200024be:	d0ee      	beq.n	2000249e <stdio_out_chars_crlf+0x3a>
200024c0:	2001      	movs	r0, #1
200024c2:	e7de      	b.n	20002482 <stdio_out_chars_crlf+0x1e>
200024c4:	1e6b      	subs	r3, r5, #1
200024c6:	5c5b      	ldrb	r3, [r3, r1]
200024c8:	2b0d      	cmp	r3, #13
200024ca:	d0e0      	beq.n	2000248e <stdio_out_chars_crlf+0x2a>
200024cc:	4288      	cmp	r0, r1
200024ce:	da03      	bge.n	200024d8 <stdio_out_chars_crlf+0x74>
200024d0:	1a09      	subs	r1, r1, r0
200024d2:	683b      	ldr	r3, [r7, #0]
200024d4:	1828      	adds	r0, r5, r0
200024d6:	4798      	blx	r3
200024d8:	4805      	ldr	r0, [pc, #20]	@ (200024f0 <stdio_out_chars_crlf+0x8c>)
200024da:	2102      	movs	r1, #2
200024dc:	683b      	ldr	r3, [r7, #0]
200024de:	4798      	blx	r3
200024e0:	0020      	movs	r0, r4
200024e2:	e7d4      	b.n	2000248e <stdio_out_chars_crlf+0x2a>
200024e4:	6803      	ldr	r3, [r0, #0]
200024e6:	0011      	movs	r1, r2
200024e8:	0028      	movs	r0, r5
200024ea:	4798      	blx	r3
200024ec:	e7de      	b.n	200024ac <stdio_out_chars_crlf+0x48>
200024ee:	46c0      	nop			@ (mov r8, r8)
200024f0:	2000526c 	.word	0x2000526c

200024f4 <stdio_put_string>:
200024f4:	b5f0      	push	{r4, r5, r6, r7, lr}
200024f6:	4646      	mov	r6, r8
200024f8:	46d6      	mov	lr, sl
200024fa:	464f      	mov	r7, r9
200024fc:	b5c0      	push	{r6, r7, lr}
200024fe:	b082      	sub	sp, #8
20002500:	4690      	mov	r8, r2
20002502:	001c      	movs	r4, r3
20002504:	0006      	movs	r6, r0
20002506:	000d      	movs	r5, r1
20002508:	f7ff fb94 	bl	20001c34 <time_us_64>
2000250c:	2300      	movs	r3, #0
2000250e:	4a2f      	ldr	r2, [pc, #188]	@ (200025cc <stdio_put_string+0xd8>)
20002510:	1812      	adds	r2, r2, r0
20002512:	414b      	adcs	r3, r1
20002514:	2b00      	cmp	r3, #0
20002516:	da02      	bge.n	2000251e <stdio_put_string+0x2a>
20002518:	2201      	movs	r2, #1
2000251a:	4b2d      	ldr	r3, [pc, #180]	@ (200025d0 <stdio_put_string+0xdc>)
2000251c:	4252      	negs	r2, r2
2000251e:	492d      	ldr	r1, [pc, #180]	@ (200025d4 <stdio_put_string+0xe0>)
20002520:	0008      	movs	r0, r1
20002522:	468a      	mov	sl, r1
20002524:	f7fd fe76 	bl	20000214 <mutex_try_enter_block_until>
20002528:	4681      	mov	r9, r0
2000252a:	1c6b      	adds	r3, r5, #1
2000252c:	d103      	bne.n	20002536 <stdio_put_string+0x42>
2000252e:	0030      	movs	r0, r6
20002530:	f002 fdb2 	bl	20005098 <strlen>
20002534:	0005      	movs	r5, r0
20002536:	2c00      	cmp	r4, #0
20002538:	d027      	beq.n	2000258a <stdio_put_string+0x96>
2000253a:	4f27      	ldr	r7, [pc, #156]	@ (200025d8 <stdio_put_string+0xe4>)
2000253c:	4b27      	ldr	r3, [pc, #156]	@ (200025dc <stdio_put_string+0xe8>)
2000253e:	681c      	ldr	r4, [r3, #0]
20002540:	2c00      	cmp	r4, #0
20002542:	d018      	beq.n	20002576 <stdio_put_string+0x82>
20002544:	4643      	mov	r3, r8
20002546:	2b00      	cmp	r3, #0
20002548:	d121      	bne.n	2000258e <stdio_put_string+0x9a>
2000254a:	4b25      	ldr	r3, [pc, #148]	@ (200025e0 <stdio_put_string+0xec>)
2000254c:	4698      	mov	r8, r3
2000254e:	e002      	b.n	20002556 <stdio_put_string+0x62>
20002550:	6924      	ldr	r4, [r4, #16]
20002552:	2c00      	cmp	r4, #0
20002554:	d00f      	beq.n	20002576 <stdio_put_string+0x82>
20002556:	6823      	ldr	r3, [r4, #0]
20002558:	2b00      	cmp	r3, #0
2000255a:	d0f9      	beq.n	20002550 <stdio_put_string+0x5c>
2000255c:	4643      	mov	r3, r8
2000255e:	681b      	ldr	r3, [r3, #0]
20002560:	2b00      	cmp	r3, #0
20002562:	d001      	beq.n	20002568 <stdio_put_string+0x74>
20002564:	429c      	cmp	r4, r3
20002566:	d1f3      	bne.n	20002550 <stdio_put_string+0x5c>
20002568:	0020      	movs	r0, r4
2000256a:	002a      	movs	r2, r5
2000256c:	0031      	movs	r1, r6
2000256e:	47b8      	blx	r7
20002570:	6924      	ldr	r4, [r4, #16]
20002572:	2c00      	cmp	r4, #0
20002574:	d1ef      	bne.n	20002556 <stdio_put_string+0x62>
20002576:	464b      	mov	r3, r9
20002578:	2b00      	cmp	r3, #0
2000257a:	d123      	bne.n	200025c4 <stdio_put_string+0xd0>
2000257c:	0028      	movs	r0, r5
2000257e:	b002      	add	sp, #8
20002580:	bce0      	pop	{r5, r6, r7}
20002582:	46ba      	mov	sl, r7
20002584:	46b1      	mov	r9, r6
20002586:	46a8      	mov	r8, r5
20002588:	bdf0      	pop	{r4, r5, r6, r7, pc}
2000258a:	4f16      	ldr	r7, [pc, #88]	@ (200025e4 <stdio_put_string+0xf0>)
2000258c:	e7d6      	b.n	2000253c <stdio_put_string+0x48>
2000258e:	4b14      	ldr	r3, [pc, #80]	@ (200025e0 <stdio_put_string+0xec>)
20002590:	4698      	mov	r8, r3
20002592:	e002      	b.n	2000259a <stdio_put_string+0xa6>
20002594:	6924      	ldr	r4, [r4, #16]
20002596:	2c00      	cmp	r4, #0
20002598:	d0ed      	beq.n	20002576 <stdio_put_string+0x82>
2000259a:	6823      	ldr	r3, [r4, #0]
2000259c:	2b00      	cmp	r3, #0
2000259e:	d0f9      	beq.n	20002594 <stdio_put_string+0xa0>
200025a0:	4643      	mov	r3, r8
200025a2:	681b      	ldr	r3, [r3, #0]
200025a4:	2b00      	cmp	r3, #0
200025a6:	d001      	beq.n	200025ac <stdio_put_string+0xb8>
200025a8:	42a3      	cmp	r3, r4
200025aa:	d1f3      	bne.n	20002594 <stdio_put_string+0xa0>
200025ac:	002a      	movs	r2, r5
200025ae:	0031      	movs	r1, r6
200025b0:	0020      	movs	r0, r4
200025b2:	47b8      	blx	r7
200025b4:	466b      	mov	r3, sp
200025b6:	220a      	movs	r2, #10
200025b8:	0020      	movs	r0, r4
200025ba:	71da      	strb	r2, [r3, #7]
200025bc:	1dd9      	adds	r1, r3, #7
200025be:	3a09      	subs	r2, #9
200025c0:	47b8      	blx	r7
200025c2:	e7e7      	b.n	20002594 <stdio_put_string+0xa0>
200025c4:	4650      	mov	r0, sl
200025c6:	f7fd feb7 	bl	20000338 <mutex_exit>
200025ca:	e7d7      	b.n	2000257c <stdio_put_string+0x88>
200025cc:	000f4240 	.word	0x000f4240
200025d0:	7fffffff 	.word	0x7fffffff
200025d4:	200055b8 	.word	0x200055b8
200025d8:	20002465 	.word	0x20002465
200025dc:	20005f88 	.word	0x20005f88
200025e0:	20005f90 	.word	0x20005f90
200025e4:	20002455 	.word	0x20002455

200025e8 <stdio_set_driver_enabled>:
200025e8:	4a0a      	ldr	r2, [pc, #40]	@ (20002614 <stdio_set_driver_enabled+0x2c>)
200025ea:	6813      	ldr	r3, [r2, #0]
200025ec:	2b00      	cmp	r3, #0
200025ee:	d105      	bne.n	200025fc <stdio_set_driver_enabled+0x14>
200025f0:	e00c      	b.n	2000260c <stdio_set_driver_enabled+0x24>
200025f2:	001a      	movs	r2, r3
200025f4:	691b      	ldr	r3, [r3, #16]
200025f6:	3210      	adds	r2, #16
200025f8:	2b00      	cmp	r3, #0
200025fa:	d007      	beq.n	2000260c <stdio_set_driver_enabled+0x24>
200025fc:	4283      	cmp	r3, r0
200025fe:	d1f8      	bne.n	200025f2 <stdio_set_driver_enabled+0xa>
20002600:	2900      	cmp	r1, #0
20002602:	d102      	bne.n	2000260a <stdio_set_driver_enabled+0x22>
20002604:	6918      	ldr	r0, [r3, #16]
20002606:	6010      	str	r0, [r2, #0]
20002608:	6119      	str	r1, [r3, #16]
2000260a:	4770      	bx	lr
2000260c:	2900      	cmp	r1, #0
2000260e:	d0fc      	beq.n	2000260a <stdio_set_driver_enabled+0x22>
20002610:	6010      	str	r0, [r2, #0]
20002612:	e7fa      	b.n	2000260a <stdio_set_driver_enabled+0x22>
20002614:	20005f88 	.word	0x20005f88

20002618 <stdio_init_all>:
20002618:	b510      	push	{r4, lr}
2000261a:	f000 fa7b 	bl	20002b14 <stdio_usb_init>
2000261e:	bd10      	pop	{r4, pc}

20002620 <__wrap_putchar>:
20002620:	b5f0      	push	{r4, r5, r6, r7, lr}
20002622:	46ce      	mov	lr, r9
20002624:	4647      	mov	r7, r8
20002626:	b580      	push	{r7, lr}
20002628:	b083      	sub	sp, #12
2000262a:	466b      	mov	r3, sp
2000262c:	0006      	movs	r6, r0
2000262e:	1ddd      	adds	r5, r3, #7
20002630:	7028      	strb	r0, [r5, #0]
20002632:	f7ff faff 	bl	20001c34 <time_us_64>
20002636:	2300      	movs	r3, #0
20002638:	4a19      	ldr	r2, [pc, #100]	@ (200026a0 <__wrap_putchar+0x80>)
2000263a:	1812      	adds	r2, r2, r0
2000263c:	414b      	adcs	r3, r1
2000263e:	2b00      	cmp	r3, #0
20002640:	da02      	bge.n	20002648 <__wrap_putchar+0x28>
20002642:	2201      	movs	r2, #1
20002644:	4b17      	ldr	r3, [pc, #92]	@ (200026a4 <__wrap_putchar+0x84>)
20002646:	4252      	negs	r2, r2
20002648:	4917      	ldr	r1, [pc, #92]	@ (200026a8 <__wrap_putchar+0x88>)
2000264a:	0008      	movs	r0, r1
2000264c:	4689      	mov	r9, r1
2000264e:	f7fd fde1 	bl	20000214 <mutex_try_enter_block_until>
20002652:	4b16      	ldr	r3, [pc, #88]	@ (200026ac <__wrap_putchar+0x8c>)
20002654:	4680      	mov	r8, r0
20002656:	681c      	ldr	r4, [r3, #0]
20002658:	2c00      	cmp	r4, #0
2000265a:	d014      	beq.n	20002686 <__wrap_putchar+0x66>
2000265c:	4f14      	ldr	r7, [pc, #80]	@ (200026b0 <__wrap_putchar+0x90>)
2000265e:	e002      	b.n	20002666 <__wrap_putchar+0x46>
20002660:	6924      	ldr	r4, [r4, #16]
20002662:	2c00      	cmp	r4, #0
20002664:	d00f      	beq.n	20002686 <__wrap_putchar+0x66>
20002666:	6823      	ldr	r3, [r4, #0]
20002668:	2b00      	cmp	r3, #0
2000266a:	d0f9      	beq.n	20002660 <__wrap_putchar+0x40>
2000266c:	683b      	ldr	r3, [r7, #0]
2000266e:	2b00      	cmp	r3, #0
20002670:	d001      	beq.n	20002676 <__wrap_putchar+0x56>
20002672:	429c      	cmp	r4, r3
20002674:	d1f4      	bne.n	20002660 <__wrap_putchar+0x40>
20002676:	0020      	movs	r0, r4
20002678:	2201      	movs	r2, #1
2000267a:	0029      	movs	r1, r5
2000267c:	f7ff fef2 	bl	20002464 <stdio_out_chars_crlf>
20002680:	6924      	ldr	r4, [r4, #16]
20002682:	2c00      	cmp	r4, #0
20002684:	d1ef      	bne.n	20002666 <__wrap_putchar+0x46>
20002686:	4643      	mov	r3, r8
20002688:	2b00      	cmp	r3, #0
2000268a:	d105      	bne.n	20002698 <__wrap_putchar+0x78>
2000268c:	0030      	movs	r0, r6
2000268e:	b003      	add	sp, #12
20002690:	bcc0      	pop	{r6, r7}
20002692:	46b9      	mov	r9, r7
20002694:	46b0      	mov	r8, r6
20002696:	bdf0      	pop	{r4, r5, r6, r7, pc}
20002698:	4648      	mov	r0, r9
2000269a:	f7fd fe4d 	bl	20000338 <mutex_exit>
2000269e:	e7f5      	b.n	2000268c <__wrap_putchar+0x6c>
200026a0:	000f4240 	.word	0x000f4240
200026a4:	7fffffff 	.word	0x7fffffff
200026a8:	200055b8 	.word	0x200055b8
200026ac:	20005f88 	.word	0x20005f88
200026b0:	20005f90 	.word	0x20005f90

200026b4 <__wrap_puts>:
200026b4:	b570      	push	{r4, r5, r6, lr}
200026b6:	0004      	movs	r4, r0
200026b8:	f002 fcee 	bl	20005098 <strlen>
200026bc:	2301      	movs	r3, #1
200026be:	0001      	movs	r1, r0
200026c0:	0005      	movs	r5, r0
200026c2:	2201      	movs	r2, #1
200026c4:	0020      	movs	r0, r4
200026c6:	f7ff ff15 	bl	200024f4 <stdio_put_string>
200026ca:	4b08      	ldr	r3, [pc, #32]	@ (200026ec <__wrap_puts+0x38>)
200026cc:	681c      	ldr	r4, [r3, #0]
200026ce:	2c00      	cmp	r4, #0
200026d0:	d006      	beq.n	200026e0 <__wrap_puts+0x2c>
200026d2:	6863      	ldr	r3, [r4, #4]
200026d4:	2b00      	cmp	r3, #0
200026d6:	d005      	beq.n	200026e4 <__wrap_puts+0x30>
200026d8:	4798      	blx	r3
200026da:	6924      	ldr	r4, [r4, #16]
200026dc:	2c00      	cmp	r4, #0
200026de:	d1f8      	bne.n	200026d2 <__wrap_puts+0x1e>
200026e0:	0028      	movs	r0, r5
200026e2:	bd70      	pop	{r4, r5, r6, pc}
200026e4:	6924      	ldr	r4, [r4, #16]
200026e6:	2c00      	cmp	r4, #0
200026e8:	d1f3      	bne.n	200026d2 <__wrap_puts+0x1e>
200026ea:	e7f9      	b.n	200026e0 <__wrap_puts+0x2c>
200026ec:	20005f88 	.word	0x20005f88

200026f0 <resetd_init>:
200026f0:	4770      	bx	lr
200026f2:	46c0      	nop			@ (mov r8, r8)

200026f4 <resetd_reset>:
200026f4:	2200      	movs	r2, #0
200026f6:	4b01      	ldr	r3, [pc, #4]	@ (200026fc <resetd_reset+0x8>)
200026f8:	701a      	strb	r2, [r3, #0]
200026fa:	4770      	bx	lr
200026fc:	200063e5 	.word	0x200063e5

20002700 <resetd_open>:
20002700:	794b      	ldrb	r3, [r1, #5]
20002702:	2000      	movs	r0, #0
20002704:	2bff      	cmp	r3, #255	@ 0xff
20002706:	d10b      	bne.n	20002720 <resetd_open+0x20>
20002708:	798b      	ldrb	r3, [r1, #6]
2000270a:	2b00      	cmp	r3, #0
2000270c:	d108      	bne.n	20002720 <resetd_open+0x20>
2000270e:	79cb      	ldrb	r3, [r1, #7]
20002710:	2b01      	cmp	r3, #1
20002712:	d105      	bne.n	20002720 <resetd_open+0x20>
20002714:	2a08      	cmp	r2, #8
20002716:	d903      	bls.n	20002720 <resetd_open+0x20>
20002718:	4b02      	ldr	r3, [pc, #8]	@ (20002724 <resetd_open+0x24>)
2000271a:	788a      	ldrb	r2, [r1, #2]
2000271c:	3009      	adds	r0, #9
2000271e:	701a      	strb	r2, [r3, #0]
20002720:	4770      	bx	lr
20002722:	46c0      	nop			@ (mov r8, r8)
20002724:	200063e5 	.word	0x200063e5

20002728 <resetd_xfer_cb>:
20002728:	2001      	movs	r0, #1
2000272a:	4770      	bx	lr

2000272c <resetd_control_xfer_cb>:
2000272c:	b510      	push	{r4, lr}
2000272e:	2901      	cmp	r1, #1
20002730:	d113      	bne.n	2000275a <resetd_control_xfer_cb+0x2e>
20002732:	4912      	ldr	r1, [pc, #72]	@ (2000277c <resetd_control_xfer_cb+0x50>)
20002734:	7953      	ldrb	r3, [r2, #5]
20002736:	7910      	ldrb	r0, [r2, #4]
20002738:	7809      	ldrb	r1, [r1, #0]
2000273a:	021b      	lsls	r3, r3, #8
2000273c:	4303      	orrs	r3, r0
2000273e:	2000      	movs	r0, #0
20002740:	4299      	cmp	r1, r3
20002742:	d000      	beq.n	20002746 <resetd_control_xfer_cb+0x1a>
20002744:	bd10      	pop	{r4, pc}
20002746:	7853      	ldrb	r3, [r2, #1]
20002748:	2b01      	cmp	r3, #1
2000274a:	d008      	beq.n	2000275e <resetd_control_xfer_cb+0x32>
2000274c:	2b02      	cmp	r3, #2
2000274e:	d1f9      	bne.n	20002744 <resetd_control_xfer_cb+0x18>
20002750:	2264      	movs	r2, #100	@ 0x64
20002752:	2100      	movs	r1, #0
20002754:	2000      	movs	r0, #0
20002756:	f7ff fbbb 	bl	20001ed0 <watchdog_reboot>
2000275a:	2001      	movs	r0, #1
2000275c:	e7f2      	b.n	20002744 <resetd_control_xfer_cb+0x18>
2000275e:	78d3      	ldrb	r3, [r2, #3]
20002760:	7891      	ldrb	r1, [r2, #2]
20002762:	021b      	lsls	r3, r3, #8
20002764:	4319      	orrs	r1, r3
20002766:	0a48      	lsrs	r0, r1, #9
20002768:	05db      	lsls	r3, r3, #23
2000276a:	d401      	bmi.n	20002770 <resetd_control_xfer_cb+0x44>
2000276c:	2001      	movs	r0, #1
2000276e:	4240      	negs	r0, r0
20002770:	237f      	movs	r3, #127	@ 0x7f
20002772:	058a      	lsls	r2, r1, #22
20002774:	0fd2      	lsrs	r2, r2, #31
20002776:	4019      	ands	r1, r3
20002778:	f7ff fc32 	bl	20001fe0 <rom_reset_usb_boot_extra>
2000277c:	200063e5 	.word	0x200063e5

20002780 <tud_descriptor_bos_cb>:
20002780:	4800      	ldr	r0, [pc, #0]	@ (20002784 <tud_descriptor_bos_cb+0x4>)
20002782:	4770      	bx	lr
20002784:	20005338 	.word	0x20005338

20002788 <tud_vendor_control_xfer_cb>:
20002788:	4694      	mov	ip, r2
2000278a:	2301      	movs	r3, #1
2000278c:	b510      	push	{r4, lr}
2000278e:	2901      	cmp	r1, #1
20002790:	d10a      	bne.n	200027a8 <tud_vendor_control_xfer_cb+0x20>
20002792:	7852      	ldrb	r2, [r2, #1]
20002794:	2300      	movs	r3, #0
20002796:	2a01      	cmp	r2, #1
20002798:	d106      	bne.n	200027a8 <tud_vendor_control_xfer_cb+0x20>
2000279a:	4662      	mov	r2, ip
2000279c:	7911      	ldrb	r1, [r2, #4]
2000279e:	7952      	ldrb	r2, [r2, #5]
200027a0:	0212      	lsls	r2, r2, #8
200027a2:	430a      	orrs	r2, r1
200027a4:	2a07      	cmp	r2, #7
200027a6:	d001      	beq.n	200027ac <tud_vendor_control_xfer_cb+0x24>
200027a8:	0018      	movs	r0, r3
200027aa:	bd10      	pop	{r4, pc}
200027ac:	33a6      	adds	r3, #166	@ 0xa6
200027ae:	4661      	mov	r1, ip
200027b0:	4a02      	ldr	r2, [pc, #8]	@ (200027bc <tud_vendor_control_xfer_cb+0x34>)
200027b2:	f001 fa47 	bl	20003c44 <tud_control_xfer>
200027b6:	0003      	movs	r3, r0
200027b8:	e7f6      	b.n	200027a8 <tud_vendor_control_xfer_cb+0x20>
200027ba:	46c0      	nop			@ (mov r8, r8)
200027bc:	20005290 	.word	0x20005290

200027c0 <usbd_app_driver_get_cb>:
200027c0:	2301      	movs	r3, #1
200027c2:	7003      	strb	r3, [r0, #0]
200027c4:	4800      	ldr	r0, [pc, #0]	@ (200027c8 <usbd_app_driver_get_cb+0x8>)
200027c6:	4770      	bx	lr
200027c8:	20005270 	.word	0x20005270

200027cc <tud_cdc_line_coding_cb>:
200027cc:	784b      	ldrb	r3, [r1, #1]
200027ce:	780a      	ldrb	r2, [r1, #0]
200027d0:	021b      	lsls	r3, r3, #8
200027d2:	4313      	orrs	r3, r2
200027d4:	788a      	ldrb	r2, [r1, #2]
200027d6:	b510      	push	{r4, lr}
200027d8:	0412      	lsls	r2, r2, #16
200027da:	431a      	orrs	r2, r3
200027dc:	78cb      	ldrb	r3, [r1, #3]
200027de:	061b      	lsls	r3, r3, #24
200027e0:	4313      	orrs	r3, r2
200027e2:	2296      	movs	r2, #150	@ 0x96
200027e4:	00d2      	lsls	r2, r2, #3
200027e6:	4293      	cmp	r3, r2
200027e8:	d000      	beq.n	200027ec <tud_cdc_line_coding_cb+0x20>
200027ea:	bd10      	pop	{r4, pc}
200027ec:	2200      	movs	r2, #0
200027ee:	2001      	movs	r0, #1
200027f0:	0011      	movs	r1, r2
200027f2:	4240      	negs	r0, r0
200027f4:	f7ff fbf4 	bl	20001fe0 <rom_reset_usb_boot_extra>

200027f8 <stdio_usb_set_chars_available_callback>:
200027f8:	4b02      	ldr	r3, [pc, #8]	@ (20002804 <stdio_usb_set_chars_available_callback+0xc>)
200027fa:	6018      	str	r0, [r3, #0]
200027fc:	4b02      	ldr	r3, [pc, #8]	@ (20002808 <stdio_usb_set_chars_available_callback+0x10>)
200027fe:	6019      	str	r1, [r3, #0]
20002800:	4770      	bx	lr
20002802:	46c0      	nop			@ (mov r8, r8)
20002804:	20005f28 	.word	0x20005f28
20002808:	20005f2c 	.word	0x20005f2c

2000280c <usb_irq>:
2000280c:	b510      	push	{r4, lr}
2000280e:	4b02      	ldr	r3, [pc, #8]	@ (20002818 <usb_irq+0xc>)
20002810:	7818      	ldrb	r0, [r3, #0]
20002812:	f7fe fc8f 	bl	20001134 <irq_set_pending>
20002816:	bd10      	pop	{r4, pc}
20002818:	200063e6 	.word	0x200063e6

2000281c <timer_task>:
2000281c:	4b15      	ldr	r3, [pc, #84]	@ (20002874 <timer_task+0x58>)
2000281e:	b570      	push	{r4, r5, r6, lr}
20002820:	681a      	ldr	r2, [r3, #0]
20002822:	2a00      	cmp	r2, #0
20002824:	d022      	beq.n	2000286c <timer_task+0x50>
20002826:	f3ef 8110 	mrs	r1, PRIMASK
2000282a:	b672      	cpsid	i
2000282c:	6810      	ldr	r0, [r2, #0]
2000282e:	2800      	cmp	r0, #0
20002830:	d0fc      	beq.n	2000282c <timer_task+0x10>
20002832:	f3bf 8f5f 	dmb	sy
20002836:	2000      	movs	r0, #0
20002838:	4a0f      	ldr	r2, [pc, #60]	@ (20002878 <timer_task+0x5c>)
2000283a:	6059      	str	r1, [r3, #4]
2000283c:	7010      	strb	r0, [r2, #0]
2000283e:	681b      	ldr	r3, [r3, #0]
20002840:	f3bf 8f5f 	dmb	sy
20002844:	6018      	str	r0, [r3, #0]
20002846:	f381 8810 	msr	PRIMASK, r1
2000284a:	2400      	movs	r4, #0
2000284c:	2500      	movs	r5, #0
2000284e:	4e0b      	ldr	r6, [pc, #44]	@ (2000287c <timer_task+0x60>)
20002850:	7830      	ldrb	r0, [r6, #0]
20002852:	f7fe fc63 	bl	2000111c <irq_is_enabled>
20002856:	2800      	cmp	r0, #0
20002858:	d104      	bne.n	20002864 <timer_task+0x48>
2000285a:	2400      	movs	r4, #0
2000285c:	2500      	movs	r5, #0
2000285e:	0029      	movs	r1, r5
20002860:	0020      	movs	r0, r4
20002862:	bd70      	pop	{r4, r5, r6, pc}
20002864:	7830      	ldrb	r0, [r6, #0]
20002866:	f7fe fc65 	bl	20001134 <irq_set_pending>
2000286a:	e7f8      	b.n	2000285e <timer_task+0x42>
2000286c:	24fa      	movs	r4, #250	@ 0xfa
2000286e:	2500      	movs	r5, #0
20002870:	00a4      	lsls	r4, r4, #2
20002872:	e7ec      	b.n	2000284e <timer_task+0x32>
20002874:	200063a0 	.word	0x200063a0
20002878:	200063e7 	.word	0x200063e7
2000287c:	200063e6 	.word	0x200063e6

20002880 <stdio_usb_in_chars>:
20002880:	b570      	push	{r4, r5, r6, lr}
20002882:	0005      	movs	r5, r0
20002884:	2000      	movs	r0, #0
20002886:	000e      	movs	r6, r1
20002888:	f001 faf4 	bl	20003e74 <tud_cdc_n_connected>
2000288c:	2800      	cmp	r0, #0
2000288e:	d034      	beq.n	200028fa <stdio_usb_in_chars+0x7a>
20002890:	2000      	movs	r0, #0
20002892:	f001 fb05 	bl	20003ea0 <tud_cdc_n_available>
20002896:	2800      	cmp	r0, #0
20002898:	d02f      	beq.n	200028fa <stdio_usb_in_chars+0x7a>
2000289a:	f7ff f9cb 	bl	20001c34 <time_us_64>
2000289e:	2300      	movs	r3, #0
200028a0:	4a17      	ldr	r2, [pc, #92]	@ (20002900 <stdio_usb_in_chars+0x80>)
200028a2:	1812      	adds	r2, r2, r0
200028a4:	414b      	adcs	r3, r1
200028a6:	2b00      	cmp	r3, #0
200028a8:	db16      	blt.n	200028d8 <stdio_usb_in_chars+0x58>
200028aa:	4c16      	ldr	r4, [pc, #88]	@ (20002904 <stdio_usb_in_chars+0x84>)
200028ac:	0020      	movs	r0, r4
200028ae:	f7fd fcb1 	bl	20000214 <mutex_try_enter_block_until>
200028b2:	2800      	cmp	r0, #0
200028b4:	d021      	beq.n	200028fa <stdio_usb_in_chars+0x7a>
200028b6:	2000      	movs	r0, #0
200028b8:	f001 fadc 	bl	20003e74 <tud_cdc_n_connected>
200028bc:	2800      	cmp	r0, #0
200028be:	d10f      	bne.n	200028e0 <stdio_usb_in_chars+0x60>
200028c0:	2001      	movs	r0, #1
200028c2:	2100      	movs	r1, #0
200028c4:	4240      	negs	r0, r0
200028c6:	f000 fcf3 	bl	200032b0 <tud_task_ext>
200028ca:	2503      	movs	r5, #3
200028cc:	426d      	negs	r5, r5
200028ce:	0020      	movs	r0, r4
200028d0:	f7fd fd32 	bl	20000338 <mutex_exit>
200028d4:	0028      	movs	r0, r5
200028d6:	bd70      	pop	{r4, r5, r6, pc}
200028d8:	2201      	movs	r2, #1
200028da:	4b0b      	ldr	r3, [pc, #44]	@ (20002908 <stdio_usb_in_chars+0x88>)
200028dc:	4252      	negs	r2, r2
200028de:	e7e4      	b.n	200028aa <stdio_usb_in_chars+0x2a>
200028e0:	2000      	movs	r0, #0
200028e2:	f001 fadd 	bl	20003ea0 <tud_cdc_n_available>
200028e6:	2800      	cmp	r0, #0
200028e8:	d0ea      	beq.n	200028c0 <stdio_usb_in_chars+0x40>
200028ea:	0029      	movs	r1, r5
200028ec:	0032      	movs	r2, r6
200028ee:	2000      	movs	r0, #0
200028f0:	f001 fae0 	bl	20003eb4 <tud_cdc_n_read>
200028f4:	1e05      	subs	r5, r0, #0
200028f6:	d1ea      	bne.n	200028ce <stdio_usb_in_chars+0x4e>
200028f8:	e7e7      	b.n	200028ca <stdio_usb_in_chars+0x4a>
200028fa:	2503      	movs	r5, #3
200028fc:	426d      	negs	r5, r5
200028fe:	e7e9      	b.n	200028d4 <stdio_usb_in_chars+0x54>
20002900:	000f4240 	.word	0x000f4240
20002904:	200063c8 	.word	0x200063c8
20002908:	7fffffff 	.word	0x7fffffff

2000290c <stdio_usb_out_flush>:
2000290c:	b510      	push	{r4, lr}
2000290e:	f7ff f991 	bl	20001c34 <time_us_64>
20002912:	2300      	movs	r3, #0
20002914:	4a0d      	ldr	r2, [pc, #52]	@ (2000294c <stdio_usb_out_flush+0x40>)
20002916:	1812      	adds	r2, r2, r0
20002918:	414b      	adcs	r3, r1
2000291a:	2b00      	cmp	r3, #0
2000291c:	da02      	bge.n	20002924 <stdio_usb_out_flush+0x18>
2000291e:	2201      	movs	r2, #1
20002920:	4b0b      	ldr	r3, [pc, #44]	@ (20002950 <stdio_usb_out_flush+0x44>)
20002922:	4252      	negs	r2, r2
20002924:	480b      	ldr	r0, [pc, #44]	@ (20002954 <stdio_usb_out_flush+0x48>)
20002926:	f7fd fc75 	bl	20000214 <mutex_try_enter_block_until>
2000292a:	2800      	cmp	r0, #0
2000292c:	d00c      	beq.n	20002948 <stdio_usb_out_flush+0x3c>
2000292e:	2001      	movs	r0, #1
20002930:	2100      	movs	r1, #0
20002932:	4240      	negs	r0, r0
20002934:	f000 fcbc 	bl	200032b0 <tud_task_ext>
20002938:	2000      	movs	r0, #0
2000293a:	f001 faff 	bl	20003f3c <tud_cdc_n_write_flush>
2000293e:	2800      	cmp	r0, #0
20002940:	d1f5      	bne.n	2000292e <stdio_usb_out_flush+0x22>
20002942:	4804      	ldr	r0, [pc, #16]	@ (20002954 <stdio_usb_out_flush+0x48>)
20002944:	f7fd fcf8 	bl	20000338 <mutex_exit>
20002948:	bd10      	pop	{r4, pc}
2000294a:	46c0      	nop			@ (mov r8, r8)
2000294c:	000f4240 	.word	0x000f4240
20002950:	7fffffff 	.word	0x7fffffff
20002954:	200063c8 	.word	0x200063c8

20002958 <stdio_usb_out_chars>:
20002958:	b5f8      	push	{r3, r4, r5, r6, r7, lr}
2000295a:	46ce      	mov	lr, r9
2000295c:	4647      	mov	r7, r8
2000295e:	b580      	push	{r7, lr}
20002960:	0005      	movs	r5, r0
20002962:	000c      	movs	r4, r1
20002964:	f7ff f966 	bl	20001c34 <time_us_64>
20002968:	2300      	movs	r3, #0
2000296a:	4a34      	ldr	r2, [pc, #208]	@ (20002a3c <stdio_usb_out_chars+0xe4>)
2000296c:	1812      	adds	r2, r2, r0
2000296e:	414b      	adcs	r3, r1
20002970:	2b00      	cmp	r3, #0
20002972:	da02      	bge.n	2000297a <stdio_usb_out_chars+0x22>
20002974:	2201      	movs	r2, #1
20002976:	4b32      	ldr	r3, [pc, #200]	@ (20002a40 <stdio_usb_out_chars+0xe8>)
20002978:	4252      	negs	r2, r2
2000297a:	4932      	ldr	r1, [pc, #200]	@ (20002a44 <stdio_usb_out_chars+0xec>)
2000297c:	0008      	movs	r0, r1
2000297e:	4688      	mov	r8, r1
20002980:	f7fd fc48 	bl	20000214 <mutex_try_enter_block_until>
20002984:	2800      	cmp	r0, #0
20002986:	d103      	bne.n	20002990 <stdio_usb_out_chars+0x38>
20002988:	bcc0      	pop	{r6, r7}
2000298a:	46b9      	mov	r9, r7
2000298c:	46b0      	mov	r8, r6
2000298e:	bdf8      	pop	{r3, r4, r5, r6, r7, pc}
20002990:	2000      	movs	r0, #0
20002992:	f001 fa6f 	bl	20003e74 <tud_cdc_n_connected>
20002996:	2800      	cmp	r0, #0
20002998:	d048      	beq.n	20002a2c <stdio_usb_out_chars+0xd4>
2000299a:	2600      	movs	r6, #0
2000299c:	2c00      	cmp	r4, #0
2000299e:	dd41      	ble.n	20002a24 <stdio_usb_out_chars+0xcc>
200029a0:	4b29      	ldr	r3, [pc, #164]	@ (20002a48 <stdio_usb_out_chars+0xf0>)
200029a2:	4699      	mov	r9, r3
200029a4:	e013      	b.n	200029ce <stdio_usb_out_chars+0x76>
200029a6:	19a9      	adds	r1, r5, r6
200029a8:	2000      	movs	r0, #0
200029aa:	f001 fb03 	bl	20003fb4 <tud_cdc_n_write>
200029ae:	0007      	movs	r7, r0
200029b0:	2001      	movs	r0, #1
200029b2:	2100      	movs	r1, #0
200029b4:	4240      	negs	r0, r0
200029b6:	f000 fc7b 	bl	200032b0 <tud_task_ext>
200029ba:	2000      	movs	r0, #0
200029bc:	f001 fabe 	bl	20003f3c <tud_cdc_n_write_flush>
200029c0:	f7ff f938 	bl	20001c34 <time_us_64>
200029c4:	4b20      	ldr	r3, [pc, #128]	@ (20002a48 <stdio_usb_out_chars+0xf0>)
200029c6:	19f6      	adds	r6, r6, r7
200029c8:	c303      	stmia	r3!, {r0, r1}
200029ca:	42b4      	cmp	r4, r6
200029cc:	dd2a      	ble.n	20002a24 <stdio_usb_out_chars+0xcc>
200029ce:	2000      	movs	r0, #0
200029d0:	f001 fb10 	bl	20003ff4 <tud_cdc_n_write_available>
200029d4:	1ba7      	subs	r7, r4, r6
200029d6:	0002      	movs	r2, r0
200029d8:	42b8      	cmp	r0, r7
200029da:	dd00      	ble.n	200029de <stdio_usb_out_chars+0x86>
200029dc:	003a      	movs	r2, r7
200029de:	2a00      	cmp	r2, #0
200029e0:	d1e1      	bne.n	200029a6 <stdio_usb_out_chars+0x4e>
200029e2:	2001      	movs	r0, #1
200029e4:	2100      	movs	r1, #0
200029e6:	4240      	negs	r0, r0
200029e8:	f000 fc62 	bl	200032b0 <tud_task_ext>
200029ec:	2000      	movs	r0, #0
200029ee:	f001 faa5 	bl	20003f3c <tud_cdc_n_write_flush>
200029f2:	2000      	movs	r0, #0
200029f4:	f001 fa3e 	bl	20003e74 <tud_cdc_n_connected>
200029f8:	2800      	cmp	r0, #0
200029fa:	d013      	beq.n	20002a24 <stdio_usb_out_chars+0xcc>
200029fc:	2000      	movs	r0, #0
200029fe:	f001 faf9 	bl	20003ff4 <tud_cdc_n_write_available>
20002a02:	2800      	cmp	r0, #0
20002a04:	d1e1      	bne.n	200029ca <stdio_usb_out_chars+0x72>
20002a06:	f7ff f915 	bl	20001c34 <time_us_64>
20002a0a:	464b      	mov	r3, r9
20002a0c:	000f      	movs	r7, r1
20002a0e:	cb0c      	ldmia	r3, {r2, r3}
20002a10:	2100      	movs	r1, #0
20002a12:	4684      	mov	ip, r0
20002a14:	480d      	ldr	r0, [pc, #52]	@ (20002a4c <stdio_usb_out_chars+0xf4>)
20002a16:	1812      	adds	r2, r2, r0
20002a18:	414b      	adcs	r3, r1
20002a1a:	429f      	cmp	r7, r3
20002a1c:	d802      	bhi.n	20002a24 <stdio_usb_out_chars+0xcc>
20002a1e:	d1d4      	bne.n	200029ca <stdio_usb_out_chars+0x72>
20002a20:	4594      	cmp	ip, r2
20002a22:	d9d2      	bls.n	200029ca <stdio_usb_out_chars+0x72>
20002a24:	4640      	mov	r0, r8
20002a26:	f7fd fc87 	bl	20000338 <mutex_exit>
20002a2a:	e7ad      	b.n	20002988 <stdio_usb_out_chars+0x30>
20002a2c:	2000      	movs	r0, #0
20002a2e:	2100      	movs	r1, #0
20002a30:	4b05      	ldr	r3, [pc, #20]	@ (20002a48 <stdio_usb_out_chars+0xf0>)
20002a32:	c303      	stmia	r3!, {r0, r1}
20002a34:	4640      	mov	r0, r8
20002a36:	f7fd fc7f 	bl	20000338 <mutex_exit>
20002a3a:	e7a5      	b.n	20002988 <stdio_usb_out_chars+0x30>
20002a3c:	000f4240 	.word	0x000f4240
20002a40:	7fffffff 	.word	0x7fffffff
20002a44:	200063c8 	.word	0x200063c8
20002a48:	20005848 	.word	0x20005848
20002a4c:	0007a120 	.word	0x0007a120

20002a50 <low_priority_worker_irq>:
20002a50:	b530      	push	{r4, r5, lr}
20002a52:	2100      	movs	r1, #0
20002a54:	b085      	sub	sp, #20
20002a56:	4828      	ldr	r0, [pc, #160]	@ (20002af8 <low_priority_worker_irq+0xa8>)
20002a58:	f7fd fbbc 	bl	200001d4 <mutex_try_enter>
20002a5c:	2800      	cmp	r0, #0
20002a5e:	d11c      	bne.n	20002a9a <low_priority_worker_irq+0x4a>
20002a60:	4b26      	ldr	r3, [pc, #152]	@ (20002afc <low_priority_worker_irq+0xac>)
20002a62:	681a      	ldr	r2, [r3, #0]
20002a64:	2a00      	cmp	r2, #0
20002a66:	d016      	beq.n	20002a96 <low_priority_worker_irq+0x46>
20002a68:	f3ef 8110 	mrs	r1, PRIMASK
20002a6c:	b672      	cpsid	i
20002a6e:	6810      	ldr	r0, [r2, #0]
20002a70:	2800      	cmp	r0, #0
20002a72:	d0fc      	beq.n	20002a6e <low_priority_worker_irq+0x1e>
20002a74:	f3bf 8f5f 	dmb	sy
20002a78:	2401      	movs	r4, #1
20002a7a:	4821      	ldr	r0, [pc, #132]	@ (20002b00 <low_priority_worker_irq+0xb0>)
20002a7c:	6059      	str	r1, [r3, #4]
20002a7e:	7802      	ldrb	r2, [r0, #0]
20002a80:	681b      	ldr	r3, [r3, #0]
20002a82:	b2d2      	uxtb	r2, r2
20002a84:	7004      	strb	r4, [r0, #0]
20002a86:	f3bf 8f5f 	dmb	sy
20002a8a:	2000      	movs	r0, #0
20002a8c:	6018      	str	r0, [r3, #0]
20002a8e:	f381 8810 	msr	PRIMASK, r1
20002a92:	2a00      	cmp	r2, #0
20002a94:	d017      	beq.n	20002ac6 <low_priority_worker_irq+0x76>
20002a96:	b005      	add	sp, #20
20002a98:	bd30      	pop	{r4, r5, pc}
20002a9a:	2001      	movs	r0, #1
20002a9c:	2100      	movs	r1, #0
20002a9e:	4240      	negs	r0, r0
20002aa0:	f000 fc06 	bl	200032b0 <tud_task_ext>
20002aa4:	2000      	movs	r0, #0
20002aa6:	f001 f9fb 	bl	20003ea0 <tud_cdc_n_available>
20002aaa:	0005      	movs	r5, r0
20002aac:	4812      	ldr	r0, [pc, #72]	@ (20002af8 <low_priority_worker_irq+0xa8>)
20002aae:	f7fd fc43 	bl	20000338 <mutex_exit>
20002ab2:	2d00      	cmp	r5, #0
20002ab4:	d0ef      	beq.n	20002a96 <low_priority_worker_irq+0x46>
20002ab6:	4b13      	ldr	r3, [pc, #76]	@ (20002b04 <low_priority_worker_irq+0xb4>)
20002ab8:	681b      	ldr	r3, [r3, #0]
20002aba:	2b00      	cmp	r3, #0
20002abc:	d0eb      	beq.n	20002a96 <low_priority_worker_irq+0x46>
20002abe:	4a12      	ldr	r2, [pc, #72]	@ (20002b08 <low_priority_worker_irq+0xb8>)
20002ac0:	6810      	ldr	r0, [r2, #0]
20002ac2:	4798      	blx	r3
20002ac4:	e7e7      	b.n	20002a96 <low_priority_worker_irq+0x46>
20002ac6:	f7fe ff1f 	bl	20001908 <alarm_pool_get_default>
20002aca:	0004      	movs	r4, r0
20002acc:	f7ff f8b2 	bl	20001c34 <time_us_64>
20002ad0:	22fa      	movs	r2, #250	@ 0xfa
20002ad2:	2300      	movs	r3, #0
20002ad4:	0092      	lsls	r2, r2, #2
20002ad6:	1812      	adds	r2, r2, r0
20002ad8:	414b      	adcs	r3, r1
20002ada:	2b00      	cmp	r3, #0
20002adc:	da02      	bge.n	20002ae4 <low_priority_worker_irq+0x94>
20002ade:	2201      	movs	r2, #1
20002ae0:	4b0a      	ldr	r3, [pc, #40]	@ (20002b0c <low_priority_worker_irq+0xbc>)
20002ae2:	4252      	negs	r2, r2
20002ae4:	2101      	movs	r1, #1
20002ae6:	9102      	str	r1, [sp, #8]
20002ae8:	2100      	movs	r1, #0
20002aea:	9101      	str	r1, [sp, #4]
20002aec:	4908      	ldr	r1, [pc, #32]	@ (20002b10 <low_priority_worker_irq+0xc0>)
20002aee:	0020      	movs	r0, r4
20002af0:	9100      	str	r1, [sp, #0]
20002af2:	f7fe ff0d 	bl	20001910 <alarm_pool_add_alarm_at>
20002af6:	e7ce      	b.n	20002a96 <low_priority_worker_irq+0x46>
20002af8:	200063c8 	.word	0x200063c8
20002afc:	200063a0 	.word	0x200063a0
20002b00:	200063e7 	.word	0x200063e7
20002b04:	20005f28 	.word	0x20005f28
20002b08:	20005f2c 	.word	0x20005f2c
20002b0c:	7fffffff 	.word	0x7fffffff
20002b10:	2000281d 	.word	0x2000281d

20002b14 <stdio_usb_init>:
20002b14:	23d0      	movs	r3, #208	@ 0xd0
20002b16:	b510      	push	{r4, lr}
20002b18:	061b      	lsls	r3, r3, #24
20002b1a:	b084      	sub	sp, #16
20002b1c:	681c      	ldr	r4, [r3, #0]
20002b1e:	f7fe fef3 	bl	20001908 <alarm_pool_get_default>
20002b22:	f7fe fff3 	bl	20001b0c <alarm_pool_core_num>
20002b26:	42a0      	cmp	r0, r4
20002b28:	d002      	beq.n	20002b30 <stdio_usb_init+0x1c>
20002b2a:	2000      	movs	r0, #0
20002b2c:	b004      	add	sp, #16
20002b2e:	bd10      	pop	{r4, pc}
20002b30:	4b28      	ldr	r3, [pc, #160]	@ (20002bd4 <stdio_usb_init+0xc0>)
20002b32:	2100      	movs	r1, #0
20002b34:	2000      	movs	r0, #0
20002b36:	781b      	ldrb	r3, [r3, #0]
20002b38:	f001 fd44 	bl	200045c4 <tusb_rhport_init>
20002b3c:	4826      	ldr	r0, [pc, #152]	@ (20002bd8 <stdio_usb_init+0xc4>)
20002b3e:	6803      	ldr	r3, [r0, #0]
20002b40:	2b00      	cmp	r3, #0
20002b42:	d044      	beq.n	20002bce <stdio_usb_init+0xba>
20002b44:	2001      	movs	r0, #1
20002b46:	f7fe fc77 	bl	20001438 <user_irq_claim_unused>
20002b4a:	23ff      	movs	r3, #255	@ 0xff
20002b4c:	4c23      	ldr	r4, [pc, #140]	@ (20002bdc <stdio_usb_init+0xc8>)
20002b4e:	4924      	ldr	r1, [pc, #144]	@ (20002be0 <stdio_usb_init+0xcc>)
20002b50:	7020      	strb	r0, [r4, #0]
20002b52:	4018      	ands	r0, r3
20002b54:	f7fe fb06 	bl	20001164 <irq_set_exclusive_handler>
20002b58:	7820      	ldrb	r0, [r4, #0]
20002b5a:	2101      	movs	r1, #1
20002b5c:	f7fe facc 	bl	200010f8 <irq_set_enabled>
20002b60:	2005      	movs	r0, #5
20002b62:	f7fe faef 	bl	20001144 <irq_has_shared_handler>
20002b66:	2800      	cmp	r0, #0
20002b68:	d124      	bne.n	20002bb4 <stdio_usb_init+0xa0>
20002b6a:	2208      	movs	r2, #8
20002b6c:	2100      	movs	r1, #0
20002b6e:	481d      	ldr	r0, [pc, #116]	@ (20002be4 <stdio_usb_init+0xd0>)
20002b70:	f7ff fc28 	bl	200023c4 <__wrap_memset>
20002b74:	f7fe fec8 	bl	20001908 <alarm_pool_get_default>
20002b78:	0004      	movs	r4, r0
20002b7a:	f7ff f85b 	bl	20001c34 <time_us_64>
20002b7e:	22fa      	movs	r2, #250	@ 0xfa
20002b80:	2300      	movs	r3, #0
20002b82:	0092      	lsls	r2, r2, #2
20002b84:	1812      	adds	r2, r2, r0
20002b86:	414b      	adcs	r3, r1
20002b88:	2b00      	cmp	r3, #0
20002b8a:	da02      	bge.n	20002b92 <stdio_usb_init+0x7e>
20002b8c:	2201      	movs	r2, #1
20002b8e:	4b16      	ldr	r3, [pc, #88]	@ (20002be8 <stdio_usb_init+0xd4>)
20002b90:	4252      	negs	r2, r2
20002b92:	2101      	movs	r1, #1
20002b94:	9102      	str	r1, [sp, #8]
20002b96:	2100      	movs	r1, #0
20002b98:	9101      	str	r1, [sp, #4]
20002b9a:	4914      	ldr	r1, [pc, #80]	@ (20002bec <stdio_usb_init+0xd8>)
20002b9c:	0020      	movs	r0, r4
20002b9e:	9100      	str	r1, [sp, #0]
20002ba0:	f7fe feb6 	bl	20001910 <alarm_pool_add_alarm_at>
20002ba4:	2800      	cmp	r0, #0
20002ba6:	dbc0      	blt.n	20002b2a <stdio_usb_init+0x16>
20002ba8:	4811      	ldr	r0, [pc, #68]	@ (20002bf0 <stdio_usb_init+0xdc>)
20002baa:	2101      	movs	r1, #1
20002bac:	f7ff fd1c 	bl	200025e8 <stdio_set_driver_enabled>
20002bb0:	2001      	movs	r0, #1
20002bb2:	e7bb      	b.n	20002b2c <stdio_usb_init+0x18>
20002bb4:	2001      	movs	r0, #1
20002bb6:	f7fe fa5d 	bl	20001074 <spin_lock_claim_unused>
20002bba:	0001      	movs	r1, r0
20002bbc:	4809      	ldr	r0, [pc, #36]	@ (20002be4 <stdio_usb_init+0xd0>)
20002bbe:	f7fe fc9b 	bl	200014f8 <critical_section_init_with_lock_num>
20002bc2:	2200      	movs	r2, #0
20002bc4:	2005      	movs	r0, #5
20002bc6:	490b      	ldr	r1, [pc, #44]	@ (20002bf4 <stdio_usb_init+0xe0>)
20002bc8:	f7fe faf6 	bl	200011b8 <irq_add_shared_handler>
20002bcc:	e7ec      	b.n	20002ba8 <stdio_usb_init+0x94>
20002bce:	f7fe fc77 	bl	200014c0 <mutex_init>
20002bd2:	e7b7      	b.n	20002b44 <stdio_usb_init+0x30>
20002bd4:	200054e4 	.word	0x200054e4
20002bd8:	200063c8 	.word	0x200063c8
20002bdc:	200063e6 	.word	0x200063e6
20002be0:	20002a51 	.word	0x20002a51
20002be4:	200063a0 	.word	0x200063a0
20002be8:	7fffffff 	.word	0x7fffffff
20002bec:	2000281d 	.word	0x2000281d
20002bf0:	20005580 	.word	0x20005580
20002bf4:	2000280d 	.word	0x2000280d

20002bf8 <tud_descriptor_device_cb>:
20002bf8:	4800      	ldr	r0, [pc, #0]	@ (20002bfc <tud_descriptor_device_cb+0x4>)
20002bfa:	4770      	bx	lr
20002bfc:	200053d4 	.word	0x200053d4

20002c00 <tud_descriptor_configuration_cb>:
20002c00:	4800      	ldr	r0, [pc, #0]	@ (20002c04 <tud_descriptor_configuration_cb+0x4>)
20002c02:	4770      	bx	lr
20002c04:	20005380 	.word	0x20005380

20002c08 <tud_descriptor_string_cb>:
20002c08:	b510      	push	{r4, lr}
20002c0a:	0004      	movs	r4, r0
20002c0c:	4816      	ldr	r0, [pc, #88]	@ (20002c68 <tud_descriptor_string_cb+0x60>)
20002c0e:	7803      	ldrb	r3, [r0, #0]
20002c10:	2b00      	cmp	r3, #0
20002c12:	d020      	beq.n	20002c56 <tud_descriptor_string_cb+0x4e>
20002c14:	2c00      	cmp	r4, #0
20002c16:	d106      	bne.n	20002c26 <tud_descriptor_string_cb+0x1e>
20002c18:	4b14      	ldr	r3, [pc, #80]	@ (20002c6c <tud_descriptor_string_cb+0x64>)
20002c1a:	4815      	ldr	r0, [pc, #84]	@ (20002c70 <tud_descriptor_string_cb+0x68>)
20002c1c:	8043      	strh	r3, [r0, #2]
20002c1e:	3b06      	subs	r3, #6
20002c20:	3bff      	subs	r3, #255	@ 0xff
20002c22:	8003      	strh	r3, [r0, #0]
20002c24:	bd10      	pop	{r4, pc}
20002c26:	2c05      	cmp	r4, #5
20002c28:	d81c      	bhi.n	20002c64 <tud_descriptor_string_cb+0x5c>
20002c2a:	4b12      	ldr	r3, [pc, #72]	@ (20002c74 <tud_descriptor_string_cb+0x6c>)
20002c2c:	00a4      	lsls	r4, r4, #2
20002c2e:	58e4      	ldr	r4, [r4, r3]
20002c30:	480f      	ldr	r0, [pc, #60]	@ (20002c70 <tud_descriptor_string_cb+0x68>)
20002c32:	2301      	movs	r3, #1
20002c34:	1c81      	adds	r1, r0, #2
20002c36:	3c01      	subs	r4, #1
20002c38:	e004      	b.n	20002c44 <tud_descriptor_string_cb+0x3c>
20002c3a:	3301      	adds	r3, #1
20002c3c:	800a      	strh	r2, [r1, #0]
20002c3e:	3102      	adds	r1, #2
20002c40:	2b14      	cmp	r3, #20
20002c42:	d00c      	beq.n	20002c5e <tud_descriptor_string_cb+0x56>
20002c44:	5ce2      	ldrb	r2, [r4, r3]
20002c46:	2a00      	cmp	r2, #0
20002c48:	d1f7      	bne.n	20002c3a <tud_descriptor_string_cb+0x32>
20002c4a:	22c0      	movs	r2, #192	@ 0xc0
20002c4c:	b2db      	uxtb	r3, r3
20002c4e:	005b      	lsls	r3, r3, #1
20002c50:	0092      	lsls	r2, r2, #2
20002c52:	4313      	orrs	r3, r2
20002c54:	e7e5      	b.n	20002c22 <tud_descriptor_string_cb+0x1a>
20002c56:	2111      	movs	r1, #17
20002c58:	f000 f818 	bl	20002c8c <pico_get_unique_board_id_string>
20002c5c:	e7da      	b.n	20002c14 <tud_descriptor_string_cb+0xc>
20002c5e:	23ca      	movs	r3, #202	@ 0xca
20002c60:	009b      	lsls	r3, r3, #2
20002c62:	e7de      	b.n	20002c22 <tud_descriptor_string_cb+0x1a>
20002c64:	2000      	movs	r0, #0
20002c66:	e7dd      	b.n	20002c24 <tud_descriptor_string_cb+0x1c>
20002c68:	200063d0 	.word	0x200063d0
20002c6c:	00000409 	.word	0x00000409
20002c70:	20005f60 	.word	0x20005f60
20002c74:	20005368 	.word	0x20005368

20002c78 <_retrieve_unique_id_on_boot>:
20002c78:	b510      	push	{r4, lr}
20002c7a:	2208      	movs	r2, #8
20002c7c:	21ee      	movs	r1, #238	@ 0xee
20002c7e:	4802      	ldr	r0, [pc, #8]	@ (20002c88 <_retrieve_unique_id_on_boot+0x10>)
20002c80:	f7ff fba0 	bl	200023c4 <__wrap_memset>
20002c84:	bd10      	pop	{r4, pc}
20002c86:	46c0      	nop			@ (mov r8, r8)
20002c88:	200063b8 	.word	0x200063b8

20002c8c <pico_get_unique_board_id_string>:
20002c8c:	b530      	push	{r4, r5, lr}
20002c8e:	2901      	cmp	r1, #1
20002c90:	d100      	bne.n	20002c94 <pico_get_unique_board_id_string+0x8>
20002c92:	e0bb      	b.n	20002e0c <pico_get_unique_board_id_string+0x180>
20002c94:	4b74      	ldr	r3, [pc, #464]	@ (20002e68 <pico_get_unique_board_id_string+0x1dc>)
20002c96:	3901      	subs	r1, #1
20002c98:	781a      	ldrb	r2, [r3, #0]
20002c9a:	1112      	asrs	r2, r2, #4
20002c9c:	0014      	movs	r4, r2
20002c9e:	3430      	adds	r4, #48	@ 0x30
20002ca0:	2a09      	cmp	r2, #9
20002ca2:	dd00      	ble.n	20002ca6 <pico_get_unique_board_id_string+0x1a>
20002ca4:	e0b5      	b.n	20002e12 <pico_get_unique_board_id_string+0x186>
20002ca6:	7004      	strb	r4, [r0, #0]
20002ca8:	2901      	cmp	r1, #1
20002caa:	d100      	bne.n	20002cae <pico_get_unique_board_id_string+0x22>
20002cac:	e0da      	b.n	20002e64 <pico_get_unique_board_id_string+0x1d8>
20002cae:	220f      	movs	r2, #15
20002cb0:	781c      	ldrb	r4, [r3, #0]
20002cb2:	4022      	ands	r2, r4
20002cb4:	0014      	movs	r4, r2
20002cb6:	3430      	adds	r4, #48	@ 0x30
20002cb8:	2a09      	cmp	r2, #9
20002cba:	d900      	bls.n	20002cbe <pico_get_unique_board_id_string+0x32>
20002cbc:	e0ac      	b.n	20002e18 <pico_get_unique_board_id_string+0x18c>
20002cbe:	7044      	strb	r4, [r0, #1]
20002cc0:	2902      	cmp	r1, #2
20002cc2:	d100      	bne.n	20002cc6 <pico_get_unique_board_id_string+0x3a>
20002cc4:	e0ce      	b.n	20002e64 <pico_get_unique_board_id_string+0x1d8>
20002cc6:	785a      	ldrb	r2, [r3, #1]
20002cc8:	4694      	mov	ip, r2
20002cca:	1112      	asrs	r2, r2, #4
20002ccc:	0014      	movs	r4, r2
20002cce:	3430      	adds	r4, #48	@ 0x30
20002cd0:	2a09      	cmp	r2, #9
20002cd2:	dd00      	ble.n	20002cd6 <pico_get_unique_board_id_string+0x4a>
20002cd4:	e0a3      	b.n	20002e1e <pico_get_unique_board_id_string+0x192>
20002cd6:	7084      	strb	r4, [r0, #2]
20002cd8:	2903      	cmp	r1, #3
20002cda:	d100      	bne.n	20002cde <pico_get_unique_board_id_string+0x52>
20002cdc:	e0c2      	b.n	20002e64 <pico_get_unique_board_id_string+0x1d8>
20002cde:	4664      	mov	r4, ip
20002ce0:	220f      	movs	r2, #15
20002ce2:	4022      	ands	r2, r4
20002ce4:	0014      	movs	r4, r2
20002ce6:	3430      	adds	r4, #48	@ 0x30
20002ce8:	2a09      	cmp	r2, #9
20002cea:	d900      	bls.n	20002cee <pico_get_unique_board_id_string+0x62>
20002cec:	e09a      	b.n	20002e24 <pico_get_unique_board_id_string+0x198>
20002cee:	70c4      	strb	r4, [r0, #3]
20002cf0:	2904      	cmp	r1, #4
20002cf2:	d100      	bne.n	20002cf6 <pico_get_unique_board_id_string+0x6a>
20002cf4:	e0b6      	b.n	20002e64 <pico_get_unique_board_id_string+0x1d8>
20002cf6:	789a      	ldrb	r2, [r3, #2]
20002cf8:	4694      	mov	ip, r2
20002cfa:	1112      	asrs	r2, r2, #4
20002cfc:	0014      	movs	r4, r2
20002cfe:	3430      	adds	r4, #48	@ 0x30
20002d00:	2a09      	cmp	r2, #9
20002d02:	dd00      	ble.n	20002d06 <pico_get_unique_board_id_string+0x7a>
20002d04:	e091      	b.n	20002e2a <pico_get_unique_board_id_string+0x19e>
20002d06:	7104      	strb	r4, [r0, #4]
20002d08:	2905      	cmp	r1, #5
20002d0a:	d100      	bne.n	20002d0e <pico_get_unique_board_id_string+0x82>
20002d0c:	e0aa      	b.n	20002e64 <pico_get_unique_board_id_string+0x1d8>
20002d0e:	4664      	mov	r4, ip
20002d10:	220f      	movs	r2, #15
20002d12:	4022      	ands	r2, r4
20002d14:	0014      	movs	r4, r2
20002d16:	3430      	adds	r4, #48	@ 0x30
20002d18:	2a09      	cmp	r2, #9
20002d1a:	d900      	bls.n	20002d1e <pico_get_unique_board_id_string+0x92>
20002d1c:	e088      	b.n	20002e30 <pico_get_unique_board_id_string+0x1a4>
20002d1e:	7144      	strb	r4, [r0, #5]
20002d20:	2906      	cmp	r1, #6
20002d22:	d100      	bne.n	20002d26 <pico_get_unique_board_id_string+0x9a>
20002d24:	e09e      	b.n	20002e64 <pico_get_unique_board_id_string+0x1d8>
20002d26:	2530      	movs	r5, #48	@ 0x30
20002d28:	46ac      	mov	ip, r5
20002d2a:	78dc      	ldrb	r4, [r3, #3]
20002d2c:	1122      	asrs	r2, r4, #4
20002d2e:	4494      	add	ip, r2
20002d30:	2a09      	cmp	r2, #9
20002d32:	dd00      	ble.n	20002d36 <pico_get_unique_board_id_string+0xaa>
20002d34:	e07f      	b.n	20002e36 <pico_get_unique_board_id_string+0x1aa>
20002d36:	4662      	mov	r2, ip
20002d38:	7182      	strb	r2, [r0, #6]
20002d3a:	2907      	cmp	r1, #7
20002d3c:	d100      	bne.n	20002d40 <pico_get_unique_board_id_string+0xb4>
20002d3e:	e091      	b.n	20002e64 <pico_get_unique_board_id_string+0x1d8>
20002d40:	220f      	movs	r2, #15
20002d42:	4022      	ands	r2, r4
20002d44:	0014      	movs	r4, r2
20002d46:	3430      	adds	r4, #48	@ 0x30
20002d48:	2a09      	cmp	r2, #9
20002d4a:	d900      	bls.n	20002d4e <pico_get_unique_board_id_string+0xc2>
20002d4c:	e077      	b.n	20002e3e <pico_get_unique_board_id_string+0x1b2>
20002d4e:	71c4      	strb	r4, [r0, #7]
20002d50:	2908      	cmp	r1, #8
20002d52:	d100      	bne.n	20002d56 <pico_get_unique_board_id_string+0xca>
20002d54:	e086      	b.n	20002e64 <pico_get_unique_board_id_string+0x1d8>
20002d56:	2530      	movs	r5, #48	@ 0x30
20002d58:	46ac      	mov	ip, r5
20002d5a:	791c      	ldrb	r4, [r3, #4]
20002d5c:	1122      	asrs	r2, r4, #4
20002d5e:	4494      	add	ip, r2
20002d60:	2a09      	cmp	r2, #9
20002d62:	dd00      	ble.n	20002d66 <pico_get_unique_board_id_string+0xda>
20002d64:	e06e      	b.n	20002e44 <pico_get_unique_board_id_string+0x1b8>
20002d66:	4662      	mov	r2, ip
20002d68:	7202      	strb	r2, [r0, #8]
20002d6a:	2909      	cmp	r1, #9
20002d6c:	d100      	bne.n	20002d70 <pico_get_unique_board_id_string+0xe4>
20002d6e:	e079      	b.n	20002e64 <pico_get_unique_board_id_string+0x1d8>
20002d70:	220f      	movs	r2, #15
20002d72:	4022      	ands	r2, r4
20002d74:	0014      	movs	r4, r2
20002d76:	3430      	adds	r4, #48	@ 0x30
20002d78:	2a09      	cmp	r2, #9
20002d7a:	d867      	bhi.n	20002e4c <pico_get_unique_board_id_string+0x1c0>
20002d7c:	7244      	strb	r4, [r0, #9]
20002d7e:	290a      	cmp	r1, #10
20002d80:	d100      	bne.n	20002d84 <pico_get_unique_board_id_string+0xf8>
20002d82:	e06f      	b.n	20002e64 <pico_get_unique_board_id_string+0x1d8>
20002d84:	2530      	movs	r5, #48	@ 0x30
20002d86:	46ac      	mov	ip, r5
20002d88:	795c      	ldrb	r4, [r3, #5]
20002d8a:	1122      	asrs	r2, r4, #4
20002d8c:	4494      	add	ip, r2
20002d8e:	2a09      	cmp	r2, #9
20002d90:	dc5f      	bgt.n	20002e52 <pico_get_unique_board_id_string+0x1c6>
20002d92:	4662      	mov	r2, ip
20002d94:	7282      	strb	r2, [r0, #10]
20002d96:	290b      	cmp	r1, #11
20002d98:	d064      	beq.n	20002e64 <pico_get_unique_board_id_string+0x1d8>
20002d9a:	220f      	movs	r2, #15
20002d9c:	4022      	ands	r2, r4
20002d9e:	0014      	movs	r4, r2
20002da0:	3430      	adds	r4, #48	@ 0x30
20002da2:	2a09      	cmp	r2, #9
20002da4:	d859      	bhi.n	20002e5a <pico_get_unique_board_id_string+0x1ce>
20002da6:	72c4      	strb	r4, [r0, #11]
20002da8:	290c      	cmp	r1, #12
20002daa:	d05b      	beq.n	20002e64 <pico_get_unique_board_id_string+0x1d8>
20002dac:	2530      	movs	r5, #48	@ 0x30
20002dae:	46ac      	mov	ip, r5
20002db0:	799c      	ldrb	r4, [r3, #6]
20002db2:	1122      	asrs	r2, r4, #4
20002db4:	4494      	add	ip, r2
20002db6:	2a09      	cmp	r2, #9
20002db8:	dd02      	ble.n	20002dc0 <pico_get_unique_board_id_string+0x134>
20002dba:	3507      	adds	r5, #7
20002dbc:	46ac      	mov	ip, r5
20002dbe:	4494      	add	ip, r2
20002dc0:	4662      	mov	r2, ip
20002dc2:	7302      	strb	r2, [r0, #12]
20002dc4:	290d      	cmp	r1, #13
20002dc6:	d04d      	beq.n	20002e64 <pico_get_unique_board_id_string+0x1d8>
20002dc8:	220f      	movs	r2, #15
20002dca:	4022      	ands	r2, r4
20002dcc:	0014      	movs	r4, r2
20002dce:	3430      	adds	r4, #48	@ 0x30
20002dd0:	2a09      	cmp	r2, #9
20002dd2:	d901      	bls.n	20002dd8 <pico_get_unique_board_id_string+0x14c>
20002dd4:	3237      	adds	r2, #55	@ 0x37
20002dd6:	0014      	movs	r4, r2
20002dd8:	7344      	strb	r4, [r0, #13]
20002dda:	290e      	cmp	r1, #14
20002ddc:	d042      	beq.n	20002e64 <pico_get_unique_board_id_string+0x1d8>
20002dde:	79da      	ldrb	r2, [r3, #7]
20002de0:	1113      	asrs	r3, r2, #4
20002de2:	001c      	movs	r4, r3
20002de4:	3430      	adds	r4, #48	@ 0x30
20002de6:	2b09      	cmp	r3, #9
20002de8:	dd01      	ble.n	20002dee <pico_get_unique_board_id_string+0x162>
20002dea:	3337      	adds	r3, #55	@ 0x37
20002dec:	001c      	movs	r4, r3
20002dee:	7384      	strb	r4, [r0, #14]
20002df0:	290f      	cmp	r1, #15
20002df2:	d037      	beq.n	20002e64 <pico_get_unique_board_id_string+0x1d8>
20002df4:	230f      	movs	r3, #15
20002df6:	4013      	ands	r3, r2
20002df8:	001a      	movs	r2, r3
20002dfa:	3237      	adds	r2, #55	@ 0x37
20002dfc:	2b09      	cmp	r3, #9
20002dfe:	d801      	bhi.n	20002e04 <pico_get_unique_board_id_string+0x178>
20002e00:	3330      	adds	r3, #48	@ 0x30
20002e02:	001a      	movs	r2, r3
20002e04:	73c2      	strb	r2, [r0, #15]
20002e06:	2910      	cmp	r1, #16
20002e08:	d02c      	beq.n	20002e64 <pico_get_unique_board_id_string+0x1d8>
20002e0a:	3010      	adds	r0, #16
20002e0c:	2300      	movs	r3, #0
20002e0e:	7003      	strb	r3, [r0, #0]
20002e10:	bd30      	pop	{r4, r5, pc}
20002e12:	3237      	adds	r2, #55	@ 0x37
20002e14:	0014      	movs	r4, r2
20002e16:	e746      	b.n	20002ca6 <pico_get_unique_board_id_string+0x1a>
20002e18:	3237      	adds	r2, #55	@ 0x37
20002e1a:	0014      	movs	r4, r2
20002e1c:	e74f      	b.n	20002cbe <pico_get_unique_board_id_string+0x32>
20002e1e:	3237      	adds	r2, #55	@ 0x37
20002e20:	0014      	movs	r4, r2
20002e22:	e758      	b.n	20002cd6 <pico_get_unique_board_id_string+0x4a>
20002e24:	3237      	adds	r2, #55	@ 0x37
20002e26:	0014      	movs	r4, r2
20002e28:	e761      	b.n	20002cee <pico_get_unique_board_id_string+0x62>
20002e2a:	3237      	adds	r2, #55	@ 0x37
20002e2c:	0014      	movs	r4, r2
20002e2e:	e76a      	b.n	20002d06 <pico_get_unique_board_id_string+0x7a>
20002e30:	3237      	adds	r2, #55	@ 0x37
20002e32:	0014      	movs	r4, r2
20002e34:	e773      	b.n	20002d1e <pico_get_unique_board_id_string+0x92>
20002e36:	3507      	adds	r5, #7
20002e38:	46ac      	mov	ip, r5
20002e3a:	4494      	add	ip, r2
20002e3c:	e77b      	b.n	20002d36 <pico_get_unique_board_id_string+0xaa>
20002e3e:	3237      	adds	r2, #55	@ 0x37
20002e40:	0014      	movs	r4, r2
20002e42:	e784      	b.n	20002d4e <pico_get_unique_board_id_string+0xc2>
20002e44:	3507      	adds	r5, #7
20002e46:	46ac      	mov	ip, r5
20002e48:	4494      	add	ip, r2
20002e4a:	e78c      	b.n	20002d66 <pico_get_unique_board_id_string+0xda>
20002e4c:	3237      	adds	r2, #55	@ 0x37
20002e4e:	0014      	movs	r4, r2
20002e50:	e794      	b.n	20002d7c <pico_get_unique_board_id_string+0xf0>
20002e52:	3507      	adds	r5, #7
20002e54:	46ac      	mov	ip, r5
20002e56:	4494      	add	ip, r2
20002e58:	e79b      	b.n	20002d92 <pico_get_unique_board_id_string+0x106>
20002e5a:	3237      	adds	r2, #55	@ 0x37
20002e5c:	0014      	movs	r4, r2
20002e5e:	72c4      	strb	r4, [r0, #11]
20002e60:	290c      	cmp	r1, #12
20002e62:	d1a3      	bne.n	20002dac <pico_get_unique_board_id_string+0x120>
20002e64:	1840      	adds	r0, r0, r1
20002e66:	e7d1      	b.n	20002e0c <pico_get_unique_board_id_string+0x180>
20002e68:	200063b8 	.word	0x200063b8

20002e6c <dcd_init>:
20002e6c:	b5f8      	push	{r3, r4, r5, r6, r7, lr}
20002e6e:	f000 f947 	bl	20003100 <rp2040_usb_init>
20002e72:	230c      	movs	r3, #12
20002e74:	4d19      	ldr	r5, [pc, #100]	@ (20002edc <dcd_init+0x70>)
20002e76:	22ff      	movs	r2, #255	@ 0xff
20002e78:	67ab      	str	r3, [r5, #120]	@ 0x78
20002e7a:	2005      	movs	r0, #5
20002e7c:	4918      	ldr	r1, [pc, #96]	@ (20002ee0 <dcd_init+0x74>)
20002e7e:	f7fe f99b 	bl	200011b8 <irq_add_shared_handler>
20002e82:	4c18      	ldr	r4, [pc, #96]	@ (20002ee4 <dcd_init+0x78>)
20002e84:	2240      	movs	r2, #64	@ 0x40
20002e86:	2100      	movs	r1, #0
20002e88:	0020      	movs	r0, r4
20002e8a:	f7ff fa9b 	bl	200023c4 <__wrap_memset>
20002e8e:	2740      	movs	r7, #64	@ 0x40
20002e90:	2300      	movs	r3, #0
20002e92:	2601      	movs	r6, #1
20002e94:	2121      	movs	r1, #33	@ 0x21
20002e96:	4a14      	ldr	r2, [pc, #80]	@ (20002ee8 <dcd_init+0x7c>)
20002e98:	7066      	strb	r6, [r4, #1]
20002e9a:	8327      	strh	r7, [r4, #24]
20002e9c:	60a2      	str	r2, [r4, #8]
20002e9e:	6013      	str	r3, [r2, #0]
20002ea0:	5463      	strb	r3, [r4, r1]
20002ea2:	315f      	adds	r1, #95	@ 0x5f
20002ea4:	8461      	strh	r1, [r4, #34]	@ 0x22
20002ea6:	3945      	subs	r1, #69	@ 0x45
20002ea8:	5463      	strb	r3, [r4, r1]
20002eaa:	4a10      	ldr	r2, [pc, #64]	@ (20002eec <dcd_init+0x80>)
20002eac:	4910      	ldr	r1, [pc, #64]	@ (20002ef0 <dcd_init+0x84>)
20002eae:	6063      	str	r3, [r4, #4]
20002eb0:	60e2      	str	r2, [r4, #12]
20002eb2:	8727      	strh	r7, [r4, #56]	@ 0x38
20002eb4:	62a1      	str	r1, [r4, #40]	@ 0x28
20002eb6:	600b      	str	r3, [r1, #0]
20002eb8:	6263      	str	r3, [r4, #36]	@ 0x24
20002eba:	62e2      	str	r2, [r4, #44]	@ 0x2c
20002ebc:	f7fd fa50 	bl	20000360 <reset_non_control_endpoints>
20002ec0:	2380      	movs	r3, #128	@ 0x80
20002ec2:	059b      	lsls	r3, r3, #22
20002ec4:	642e      	str	r6, [r5, #64]	@ 0x40
20002ec6:	64eb      	str	r3, [r5, #76]	@ 0x4c
20002ec8:	2390      	movs	r3, #144	@ 0x90
20002eca:	4a0a      	ldr	r2, [pc, #40]	@ (20002ef4 <dcd_init+0x88>)
20002ecc:	2001      	movs	r0, #1
20002ece:	50ea      	str	r2, [r5, r3]
20002ed0:	2280      	movs	r2, #128	@ 0x80
20002ed2:	4b09      	ldr	r3, [pc, #36]	@ (20002ef8 <dcd_init+0x8c>)
20002ed4:	0252      	lsls	r2, r2, #9
20002ed6:	64da      	str	r2, [r3, #76]	@ 0x4c
20002ed8:	bdf8      	pop	{r3, r4, r5, r6, r7, pc}
20002eda:	46c0      	nop			@ (mov r8, r8)
20002edc:	50110000 	.word	0x50110000
20002ee0:	20000451 	.word	0x20000451
20002ee4:	20005f94 	.word	0x20005f94
20002ee8:	50100084 	.word	0x50100084
20002eec:	50100100 	.word	0x50100100
20002ef0:	50100080 	.word	0x50100080
20002ef4:	0001d010 	.word	0x0001d010
20002ef8:	50112000 	.word	0x50112000

20002efc <dcd_int_enable>:
20002efc:	b510      	push	{r4, lr}
20002efe:	2101      	movs	r1, #1
20002f00:	2005      	movs	r0, #5
20002f02:	f7fe f8f9 	bl	200010f8 <irq_set_enabled>
20002f06:	bd10      	pop	{r4, pc}

20002f08 <dcd_set_address>:
20002f08:	b510      	push	{r4, lr}
20002f0a:	2200      	movs	r2, #0
20002f0c:	2100      	movs	r1, #0
20002f0e:	4802      	ldr	r0, [pc, #8]	@ (20002f18 <dcd_set_address+0x10>)
20002f10:	f000 f916 	bl	20003140 <hw_endpoint_xfer_start>
20002f14:	bd10      	pop	{r4, pc}
20002f16:	46c0      	nop			@ (mov r8, r8)
20002f18:	20005fb4 	.word	0x20005fb4

20002f1c <dcd_sof_enable>:
20002f1c:	4b04      	ldr	r3, [pc, #16]	@ (20002f30 <dcd_sof_enable+0x14>)
20002f1e:	7019      	strb	r1, [r3, #0]
20002f20:	2900      	cmp	r1, #0
20002f22:	d004      	beq.n	20002f2e <dcd_sof_enable+0x12>
20002f24:	2180      	movs	r1, #128	@ 0x80
20002f26:	2390      	movs	r3, #144	@ 0x90
20002f28:	4a02      	ldr	r2, [pc, #8]	@ (20002f34 <dcd_sof_enable+0x18>)
20002f2a:	0289      	lsls	r1, r1, #10
20002f2c:	50d1      	str	r1, [r2, r3]
20002f2e:	4770      	bx	lr
20002f30:	200063e2 	.word	0x200063e2
20002f34:	50112000 	.word	0x50112000

20002f38 <dcd_edpt0_status_complete>:
20002f38:	780b      	ldrb	r3, [r1, #0]
20002f3a:	065b      	lsls	r3, r3, #25
20002f3c:	d000      	beq.n	20002f40 <dcd_edpt0_status_complete+0x8>
20002f3e:	4770      	bx	lr
20002f40:	784b      	ldrb	r3, [r1, #1]
20002f42:	2b05      	cmp	r3, #5
20002f44:	d1fb      	bne.n	20002f3e <dcd_edpt0_status_complete+0x6>
20002f46:	788a      	ldrb	r2, [r1, #2]
20002f48:	4b01      	ldr	r3, [pc, #4]	@ (20002f50 <dcd_edpt0_status_complete+0x18>)
20002f4a:	601a      	str	r2, [r3, #0]
20002f4c:	e7f7      	b.n	20002f3e <dcd_edpt0_status_complete+0x6>
20002f4e:	46c0      	nop			@ (mov r8, r8)
20002f50:	50110000 	.word	0x50110000

20002f54 <dcd_edpt_open>:
20002f54:	b5f8      	push	{r3, r4, r5, r6, r7, lr}
20002f56:	46ce      	mov	lr, r9
20002f58:	4647      	mov	r7, r8
20002f5a:	78c8      	ldrb	r0, [r1, #3]
20002f5c:	b580      	push	{r7, lr}
20002f5e:	0780      	lsls	r0, r0, #30
20002f60:	0f83      	lsrs	r3, r0, #30
20002f62:	0018      	movs	r0, r3
20002f64:	2b01      	cmp	r3, #1
20002f66:	d061      	beq.n	2000302c <dcd_edpt_open+0xd8>
20002f68:	788b      	ldrb	r3, [r1, #2]
20002f6a:	790a      	ldrb	r2, [r1, #4]
20002f6c:	469c      	mov	ip, r3
20002f6e:	794b      	ldrb	r3, [r1, #5]
20002f70:	217f      	movs	r1, #127	@ 0x7f
20002f72:	021b      	lsls	r3, r3, #8
20002f74:	4313      	orrs	r3, r2
20002f76:	055b      	lsls	r3, r3, #21
20002f78:	0d5e      	lsrs	r6, r3, #21
20002f7a:	4663      	mov	r3, ip
20002f7c:	4019      	ands	r1, r3
20002f7e:	09dc      	lsrs	r4, r3, #7
20002f80:	004b      	lsls	r3, r1, #1
20002f82:	191a      	adds	r2, r3, r4
20002f84:	001f      	movs	r7, r3
20002f86:	4663      	mov	r3, ip
20002f88:	4d2f      	ldr	r5, [pc, #188]	@ (20003048 <dcd_edpt_open+0xf4>)
20002f8a:	0152      	lsls	r2, r2, #5
20002f8c:	18aa      	adds	r2, r5, r2
20002f8e:	7093      	strb	r3, [r2, #2]
20002f90:	2301      	movs	r3, #1
20002f92:	4063      	eors	r3, r4
20002f94:	7053      	strb	r3, [r2, #1]
20002f96:	2300      	movs	r3, #0
20002f98:	8316      	strh	r6, [r2, #24]
20002f9a:	70d3      	strb	r3, [r2, #3]
20002f9c:	76d0      	strb	r0, [r2, #27]
20002f9e:	46b1      	mov	r9, r6
20002fa0:	00ca      	lsls	r2, r1, #3
20002fa2:	2c01      	cmp	r4, #1
20002fa4:	d031      	beq.n	2000300a <dcd_edpt_open+0xb6>
20002fa6:	4e29      	ldr	r6, [pc, #164]	@ (2000304c <dcd_edpt_open+0xf8>)
20002fa8:	1992      	adds	r2, r2, r6
20002faa:	018e      	lsls	r6, r1, #6
20002fac:	46b4      	mov	ip, r6
20002fae:	44ac      	add	ip, r5
20002fb0:	4666      	mov	r6, ip
20002fb2:	60b2      	str	r2, [r6, #8]
20002fb4:	6013      	str	r3, [r2, #0]
20002fb6:	2900      	cmp	r1, #0
20002fb8:	d031      	beq.n	2000301e <dcd_edpt_open+0xca>
20002fba:	4b25      	ldr	r3, [pc, #148]	@ (20003050 <dcd_edpt_open+0xfc>)
20002fbc:	00c9      	lsls	r1, r1, #3
20002fbe:	18c9      	adds	r1, r1, r3
20002fc0:	6071      	str	r1, [r6, #4]
20002fc2:	464b      	mov	r3, r9
20002fc4:	333f      	adds	r3, #63	@ 0x3f
20002fc6:	099b      	lsrs	r3, r3, #6
20002fc8:	2802      	cmp	r0, #2
20002fca:	d036      	beq.n	2000303a <dcd_edpt_open+0xe6>
20002fcc:	019b      	lsls	r3, r3, #6
20002fce:	4821      	ldr	r0, [pc, #132]	@ (20003054 <dcd_edpt_open+0x100>)
20002fd0:	1939      	adds	r1, r7, r4
20002fd2:	6802      	ldr	r2, [r0, #0]
20002fd4:	0149      	lsls	r1, r1, #5
20002fd6:	1869      	adds	r1, r5, r1
20002fd8:	000e      	movs	r6, r1
20002fda:	60ca      	str	r2, [r1, #12]
20002fdc:	491e      	ldr	r1, [pc, #120]	@ (20003058 <dcd_edpt_open+0x104>)
20002fde:	18d3      	adds	r3, r2, r3
20002fe0:	6003      	str	r3, [r0, #0]
20002fe2:	428b      	cmp	r3, r1
20002fe4:	d82b      	bhi.n	2000303e <dcd_edpt_open+0xea>
20002fe6:	193b      	adds	r3, r7, r4
20002fe8:	015b      	lsls	r3, r3, #5
20002fea:	18ed      	adds	r5, r5, r3
20002fec:	7eeb      	ldrb	r3, [r5, #27]
20002fee:	491b      	ldr	r1, [pc, #108]	@ (2000305c <dcd_edpt_open+0x108>)
20002ff0:	069b      	lsls	r3, r3, #26
20002ff2:	404a      	eors	r2, r1
20002ff4:	4313      	orrs	r3, r2
20002ff6:	2280      	movs	r2, #128	@ 0x80
20002ff8:	0612      	lsls	r2, r2, #24
20002ffa:	4313      	orrs	r3, r2
20002ffc:	686a      	ldr	r2, [r5, #4]
20002ffe:	6013      	str	r3, [r2, #0]
20003000:	2001      	movs	r0, #1
20003002:	bcc0      	pop	{r6, r7}
20003004:	46b9      	mov	r9, r7
20003006:	46b0      	mov	r8, r6
20003008:	bdf8      	pop	{r3, r4, r5, r6, r7, pc}
2000300a:	4e15      	ldr	r6, [pc, #84]	@ (20003060 <dcd_edpt_open+0x10c>)
2000300c:	1992      	adds	r2, r2, r6
2000300e:	018e      	lsls	r6, r1, #6
20003010:	46b4      	mov	ip, r6
20003012:	44ac      	add	ip, r5
20003014:	4666      	mov	r6, ip
20003016:	62b2      	str	r2, [r6, #40]	@ 0x28
20003018:	6013      	str	r3, [r2, #0]
2000301a:	2900      	cmp	r1, #0
2000301c:	d108      	bne.n	20003030 <dcd_edpt_open+0xdc>
2000301e:	2300      	movs	r3, #0
20003020:	0164      	lsls	r4, r4, #5
20003022:	192c      	adds	r4, r5, r4
20003024:	6063      	str	r3, [r4, #4]
20003026:	4b0f      	ldr	r3, [pc, #60]	@ (20003064 <dcd_edpt_open+0x110>)
20003028:	60e3      	str	r3, [r4, #12]
2000302a:	e7e9      	b.n	20003000 <dcd_edpt_open+0xac>
2000302c:	2000      	movs	r0, #0
2000302e:	e7e8      	b.n	20003002 <dcd_edpt_open+0xae>
20003030:	4b0a      	ldr	r3, [pc, #40]	@ (2000305c <dcd_edpt_open+0x108>)
20003032:	00c9      	lsls	r1, r1, #3
20003034:	18c9      	adds	r1, r1, r3
20003036:	6271      	str	r1, [r6, #36]	@ 0x24
20003038:	e7c3      	b.n	20002fc2 <dcd_edpt_open+0x6e>
2000303a:	01db      	lsls	r3, r3, #7
2000303c:	e7c7      	b.n	20002fce <dcd_edpt_open+0x7a>
2000303e:	f7fe fff7 	bl	20002030 <hard_assertion_failure>
20003042:	68f2      	ldr	r2, [r6, #12]
20003044:	e7cf      	b.n	20002fe6 <dcd_edpt_open+0x92>
20003046:	46c0      	nop			@ (mov r8, r8)
20003048:	20005f94 	.word	0x20005f94
2000304c:	50100084 	.word	0x50100084
20003050:	50100004 	.word	0x50100004
20003054:	2000639c 	.word	0x2000639c
20003058:	50100fff 	.word	0x50100fff
2000305c:	50100000 	.word	0x50100000
20003060:	50100080 	.word	0x50100080
20003064:	50100100 	.word	0x50100100

20003068 <dcd_edpt_close_all>:
20003068:	b510      	push	{r4, lr}
2000306a:	f7fd f979 	bl	20000360 <reset_non_control_endpoints>
2000306e:	bd10      	pop	{r4, pc}

20003070 <dcd_edpt_xfer>:
20003070:	207f      	movs	r0, #127	@ 0x7f
20003072:	b510      	push	{r4, lr}
20003074:	4008      	ands	r0, r1
20003076:	0040      	lsls	r0, r0, #1
20003078:	09c9      	lsrs	r1, r1, #7
2000307a:	1840      	adds	r0, r0, r1
2000307c:	0011      	movs	r1, r2
2000307e:	4a04      	ldr	r2, [pc, #16]	@ (20003090 <dcd_edpt_xfer+0x20>)
20003080:	0140      	lsls	r0, r0, #5
20003082:	1880      	adds	r0, r0, r2
20003084:	001a      	movs	r2, r3
20003086:	f000 f85b 	bl	20003140 <hw_endpoint_xfer_start>
2000308a:	2001      	movs	r0, #1
2000308c:	bd10      	pop	{r4, pc}
2000308e:	46c0      	nop			@ (mov r8, r8)
20003090:	20005f94 	.word	0x20005f94

20003094 <dcd_edpt_stall>:
20003094:	237f      	movs	r3, #127	@ 0x7f
20003096:	0018      	movs	r0, r3
20003098:	b500      	push	{lr}
2000309a:	4008      	ands	r0, r1
2000309c:	b083      	sub	sp, #12
2000309e:	420b      	tst	r3, r1
200030a0:	d104      	bne.n	200030ac <dcd_edpt_stall+0x18>
200030a2:	424b      	negs	r3, r1
200030a4:	414b      	adcs	r3, r1
200030a6:	4a08      	ldr	r2, [pc, #32]	@ (200030c8 <dcd_edpt_stall+0x34>)
200030a8:	3301      	adds	r3, #1
200030aa:	6693      	str	r3, [r2, #104]	@ 0x68
200030ac:	2280      	movs	r2, #128	@ 0x80
200030ae:	09c9      	lsrs	r1, r1, #7
200030b0:	0040      	lsls	r0, r0, #1
200030b2:	4b06      	ldr	r3, [pc, #24]	@ (200030cc <dcd_edpt_stall+0x38>)
200030b4:	1840      	adds	r0, r0, r1
200030b6:	0140      	lsls	r0, r0, #5
200030b8:	2100      	movs	r1, #0
200030ba:	18c0      	adds	r0, r0, r3
200030bc:	0112      	lsls	r2, r2, #4
200030be:	f7fd fd5d 	bl	20000b7c <_hw_endpoint_buffer_control_update32>
200030c2:	b003      	add	sp, #12
200030c4:	bd00      	pop	{pc}
200030c6:	46c0      	nop			@ (mov r8, r8)
200030c8:	50112000 	.word	0x50112000
200030cc:	20005f94 	.word	0x20005f94

200030d0 <dcd_edpt_clear_stall>:
200030d0:	227f      	movs	r2, #127	@ 0x7f
200030d2:	0013      	movs	r3, r2
200030d4:	b510      	push	{r4, lr}
200030d6:	400b      	ands	r3, r1
200030d8:	420a      	tst	r2, r1
200030da:	d100      	bne.n	200030de <dcd_edpt_clear_stall+0xe>
200030dc:	bd10      	pop	{r4, pc}
200030de:	09c9      	lsrs	r1, r1, #7
200030e0:	005b      	lsls	r3, r3, #1
200030e2:	185b      	adds	r3, r3, r1
200030e4:	4804      	ldr	r0, [pc, #16]	@ (200030f8 <dcd_edpt_clear_stall+0x28>)
200030e6:	015b      	lsls	r3, r3, #5
200030e8:	18c0      	adds	r0, r0, r3
200030ea:	2300      	movs	r3, #0
200030ec:	2200      	movs	r2, #0
200030ee:	4903      	ldr	r1, [pc, #12]	@ (200030fc <dcd_edpt_clear_stall+0x2c>)
200030f0:	70c3      	strb	r3, [r0, #3]
200030f2:	f7fd fd43 	bl	20000b7c <_hw_endpoint_buffer_control_update32>
200030f6:	e7f1      	b.n	200030dc <dcd_edpt_clear_stall+0xc>
200030f8:	20005f94 	.word	0x20005f94
200030fc:	fffff7ff 	.word	0xfffff7ff

20003100 <rp2040_usb_init>:
20003100:	2280      	movs	r2, #128	@ 0x80
20003102:	4b0a      	ldr	r3, [pc, #40]	@ (2000312c <rp2040_usb_init+0x2c>)
20003104:	0452      	lsls	r2, r2, #17
20003106:	b510      	push	{r4, lr}
20003108:	601a      	str	r2, [r3, #0]
2000310a:	4b09      	ldr	r3, [pc, #36]	@ (20003130 <rp2040_usb_init+0x30>)
2000310c:	4909      	ldr	r1, [pc, #36]	@ (20003134 <rp2040_usb_init+0x34>)
2000310e:	601a      	str	r2, [r3, #0]
20003110:	0010      	movs	r0, r2
20003112:	680b      	ldr	r3, [r1, #0]
20003114:	4398      	bics	r0, r3
20003116:	d1fb      	bne.n	20003110 <rp2040_usb_init+0x10>
20003118:	2280      	movs	r2, #128	@ 0x80
2000311a:	2100      	movs	r1, #0
2000311c:	0152      	lsls	r2, r2, #5
2000311e:	4806      	ldr	r0, [pc, #24]	@ (20003138 <rp2040_usb_init+0x38>)
20003120:	f7ff f950 	bl	200023c4 <__wrap_memset>
20003124:	2209      	movs	r2, #9
20003126:	4b05      	ldr	r3, [pc, #20]	@ (2000313c <rp2040_usb_init+0x3c>)
20003128:	675a      	str	r2, [r3, #116]	@ 0x74
2000312a:	bd10      	pop	{r4, pc}
2000312c:	4000e000 	.word	0x4000e000
20003130:	4000f000 	.word	0x4000f000
20003134:	4000c008 	.word	0x4000c008
20003138:	50100000 	.word	0x50100000
2000313c:	50110000 	.word	0x50110000

20003140 <hw_endpoint_xfer_start>:
20003140:	2300      	movs	r3, #0
20003142:	b510      	push	{r4, lr}
20003144:	82c3      	strh	r3, [r0, #22]
20003146:	3301      	adds	r3, #1
20003148:	8282      	strh	r2, [r0, #20]
2000314a:	7683      	strb	r3, [r0, #26]
2000314c:	6101      	str	r1, [r0, #16]
2000314e:	0004      	movs	r4, r0
20003150:	f7fd fce2 	bl	20000b18 <e15_is_bulkin_ep>
20003154:	2800      	cmp	r0, #0
20003156:	d004      	beq.n	20003162 <hw_endpoint_xfer_start+0x22>
20003158:	2180      	movs	r1, #128	@ 0x80
2000315a:	2390      	movs	r3, #144	@ 0x90
2000315c:	4a07      	ldr	r2, [pc, #28]	@ (2000317c <hw_endpoint_xfer_start+0x3c>)
2000315e:	0289      	lsls	r1, r1, #10
20003160:	50d1      	str	r1, [r2, r3]
20003162:	0020      	movs	r0, r4
20003164:	f7fd fcec 	bl	20000b40 <e15_is_critical_frame_period>
20003168:	2800      	cmp	r0, #0
2000316a:	d002      	beq.n	20003172 <hw_endpoint_xfer_start+0x32>
2000316c:	2301      	movs	r3, #1
2000316e:	7723      	strb	r3, [r4, #28]
20003170:	bd10      	pop	{r4, pc}
20003172:	0020      	movs	r0, r4
20003174:	f7fd fd2a 	bl	20000bcc <hw_endpoint_start_next_buffer>
20003178:	e7fa      	b.n	20003170 <hw_endpoint_xfer_start+0x30>
2000317a:	46c0      	nop			@ (mov r8, r8)
2000317c:	50112000 	.word	0x50112000

20003180 <tud_event_hook_cb>:
20003180:	4770      	bx	lr
20003182:	46c0      	nop			@ (mov r8, r8)

20003184 <tud_sof_cb>:
20003184:	4770      	bx	lr
20003186:	46c0      	nop			@ (mov r8, r8)

20003188 <tud_descriptor_device_qualifier_cb>:
20003188:	2000      	movs	r0, #0
2000318a:	4770      	bx	lr

2000318c <tud_descriptor_other_speed_configuration_cb>:
2000318c:	2000      	movs	r0, #0
2000318e:	4770      	bx	lr

20003190 <tud_mount_cb>:
20003190:	4770      	bx	lr
20003192:	46c0      	nop			@ (mov r8, r8)

20003194 <tud_umount_cb>:
20003194:	4770      	bx	lr
20003196:	46c0      	nop			@ (mov r8, r8)

20003198 <tud_suspend_cb>:
20003198:	4770      	bx	lr
2000319a:	46c0      	nop			@ (mov r8, r8)

2000319c <tud_resume_cb>:
2000319c:	4770      	bx	lr
2000319e:	46c0      	nop			@ (mov r8, r8)

200031a0 <tud_mounted>:
200031a0:	4b02      	ldr	r3, [pc, #8]	@ (200031ac <tud_mounted+0xc>)
200031a2:	7858      	ldrb	r0, [r3, #1]
200031a4:	1e43      	subs	r3, r0, #1
200031a6:	4198      	sbcs	r0, r3
200031a8:	b2c0      	uxtb	r0, r0
200031aa:	4770      	bx	lr
200031ac:	20005b38 	.word	0x20005b38

200031b0 <tud_suspended>:
200031b0:	4b02      	ldr	r3, [pc, #8]	@ (200031bc <tud_suspended+0xc>)
200031b2:	7818      	ldrb	r0, [r3, #0]
200031b4:	0740      	lsls	r0, r0, #29
200031b6:	0fc0      	lsrs	r0, r0, #31
200031b8:	4770      	bx	lr
200031ba:	46c0      	nop			@ (mov r8, r8)
200031bc:	20005b38 	.word	0x20005b38

200031c0 <tud_rhport_init>:
200031c0:	b5f0      	push	{r4, r5, r6, r7, lr}
200031c2:	46d6      	mov	lr, sl
200031c4:	464f      	mov	r7, r9
200031c6:	4646      	mov	r6, r8
200031c8:	b5c0      	push	{r6, r7, lr}
200031ca:	4b2e      	ldr	r3, [pc, #184]	@ (20003284 <tud_rhport_init+0xc4>)
200031cc:	4681      	mov	r9, r0
200031ce:	4698      	mov	r8, r3
200031d0:	781b      	ldrb	r3, [r3, #0]
200031d2:	468a      	mov	sl, r1
200031d4:	2bff      	cmp	r3, #255	@ 0xff
200031d6:	d14e      	bne.n	20003276 <tud_rhport_init+0xb6>
200031d8:	2900      	cmp	r1, #0
200031da:	d03e      	beq.n	2000325a <tud_rhport_init+0x9a>
200031dc:	2100      	movs	r1, #0
200031de:	2254      	movs	r2, #84	@ 0x54
200031e0:	4829      	ldr	r0, [pc, #164]	@ (20003288 <tud_rhport_init+0xc8>)
200031e2:	f7ff f8ef 	bl	200023c4 <__wrap_memset>
200031e6:	2200      	movs	r2, #0
200031e8:	4c28      	ldr	r4, [pc, #160]	@ (2000328c <tud_rhport_init+0xcc>)
200031ea:	4b29      	ldr	r3, [pc, #164]	@ (20003290 <tud_rhport_init+0xd0>)
200031ec:	0020      	movs	r0, r4
200031ee:	701a      	strb	r2, [r3, #0]
200031f0:	f7fe f966 	bl	200014c0 <mutex_init>
200031f4:	4b27      	ldr	r3, [pc, #156]	@ (20003294 <tud_rhport_init+0xd4>)
200031f6:	601c      	str	r4, [r3, #0]
200031f8:	4c27      	ldr	r4, [pc, #156]	@ (20003298 <tud_rhport_init+0xd8>)
200031fa:	0020      	movs	r0, r4
200031fc:	3c14      	subs	r4, #20
200031fe:	f7fe f96d 	bl	200014dc <critical_section_init>
20003202:	0020      	movs	r0, r4
20003204:	f001 fdda 	bl	20004dbc <tu_fifo_clear>
20003208:	4b24      	ldr	r3, [pc, #144]	@ (2000329c <tud_rhport_init+0xdc>)
2000320a:	4d25      	ldr	r5, [pc, #148]	@ (200032a0 <tud_rhport_init+0xe0>)
2000320c:	601c      	str	r4, [r3, #0]
2000320e:	4b25      	ldr	r3, [pc, #148]	@ (200032a4 <tud_rhport_init+0xe4>)
20003210:	2b00      	cmp	r3, #0
20003212:	d004      	beq.n	2000321e <tud_rhport_init+0x5e>
20003214:	0028      	movs	r0, r5
20003216:	f7ff fad3 	bl	200027c0 <usbd_app_driver_get_cb>
2000321a:	4b23      	ldr	r3, [pc, #140]	@ (200032a8 <tud_rhport_init+0xe8>)
2000321c:	6018      	str	r0, [r3, #0]
2000321e:	2400      	movs	r4, #0
20003220:	2300      	movs	r3, #0
20003222:	782a      	ldrb	r2, [r5, #0]
20003224:	4f21      	ldr	r7, [pc, #132]	@ (200032ac <tud_rhport_init+0xec>)
20003226:	4e20      	ldr	r6, [pc, #128]	@ (200032a8 <tud_rhport_init+0xe8>)
20003228:	e00f      	b.n	2000324a <tud_rhport_init+0x8a>
2000322a:	6833      	ldr	r3, [r6, #0]
2000322c:	0162      	lsls	r2, r4, #5
2000322e:	189b      	adds	r3, r3, r2
20003230:	2b00      	cmp	r3, #0
20003232:	d012      	beq.n	2000325a <tud_rhport_init+0x9a>
20003234:	685b      	ldr	r3, [r3, #4]
20003236:	2b00      	cmp	r3, #0
20003238:	d00f      	beq.n	2000325a <tud_rhport_init+0x9a>
2000323a:	4798      	blx	r3
2000323c:	782a      	ldrb	r2, [r5, #0]
2000323e:	3401      	adds	r4, #1
20003240:	b2e4      	uxtb	r4, r4
20003242:	1c51      	adds	r1, r2, #1
20003244:	0023      	movs	r3, r4
20003246:	42a1      	cmp	r1, r4
20003248:	db09      	blt.n	2000325e <tud_rhport_init+0x9e>
2000324a:	42a2      	cmp	r2, r4
2000324c:	d8ed      	bhi.n	2000322a <tud_rhport_init+0x6a>
2000324e:	1a9b      	subs	r3, r3, r2
20003250:	015b      	lsls	r3, r3, #5
20003252:	19db      	adds	r3, r3, r7
20003254:	685b      	ldr	r3, [r3, #4]
20003256:	2b00      	cmp	r3, #0
20003258:	d1ef      	bne.n	2000323a <tud_rhport_init+0x7a>
2000325a:	2000      	movs	r0, #0
2000325c:	e00c      	b.n	20003278 <tud_rhport_init+0xb8>
2000325e:	4642      	mov	r2, r8
20003260:	464b      	mov	r3, r9
20003262:	4651      	mov	r1, sl
20003264:	4648      	mov	r0, r9
20003266:	7013      	strb	r3, [r2, #0]
20003268:	f7ff fe00 	bl	20002e6c <dcd_init>
2000326c:	2800      	cmp	r0, #0
2000326e:	d0f4      	beq.n	2000325a <tud_rhport_init+0x9a>
20003270:	4648      	mov	r0, r9
20003272:	f7ff fe43 	bl	20002efc <dcd_int_enable>
20003276:	2001      	movs	r0, #1
20003278:	bce0      	pop	{r5, r6, r7}
2000327a:	46ba      	mov	sl, r7
2000327c:	46b1      	mov	r9, r6
2000327e:	46a8      	mov	r8, r5
20003280:	bdf0      	pop	{r4, r5, r6, r7, pc}
20003282:	46c0      	nop			@ (mov r8, r8)
20003284:	200055b4 	.word	0x200055b4
20003288:	20005b38 	.word	0x20005b38
2000328c:	20005b30 	.word	0x20005b30
20003290:	200063e3 	.word	0x200063e3
20003294:	20005b8c 	.word	0x20005b8c
20003298:	200055ac 	.word	0x200055ac
2000329c:	20005b90 	.word	0x20005b90
200032a0:	200063e1 	.word	0x200063e1
200032a4:	200027c1 	.word	0x200027c1
200032a8:	20005a50 	.word	0x20005a50
200032ac:	20005490 	.word	0x20005490

200032b0 <tud_task_ext>:
200032b0:	b5f0      	push	{r4, r5, r6, r7, lr}
200032b2:	46de      	mov	lr, fp
200032b4:	4657      	mov	r7, sl
200032b6:	464e      	mov	r6, r9
200032b8:	4645      	mov	r5, r8
200032ba:	b5e0      	push	{r5, r6, r7, lr}
200032bc:	4bc6      	ldr	r3, [pc, #792]	@ (200035d8 <tud_task_ext+0x328>)
200032be:	b091      	sub	sp, #68	@ 0x44
200032c0:	9302      	str	r3, [sp, #8]
200032c2:	781b      	ldrb	r3, [r3, #0]
200032c4:	2bff      	cmp	r3, #255	@ 0xff
200032c6:	d100      	bne.n	200032ca <tud_task_ext+0x1a>
200032c8:	e13b      	b.n	20003542 <tud_task_ext+0x292>
200032ca:	4bc4      	ldr	r3, [pc, #784]	@ (200035dc <tud_task_ext+0x32c>)
200032cc:	4ec4      	ldr	r6, [pc, #784]	@ (200035e0 <tud_task_ext+0x330>)
200032ce:	001f      	movs	r7, r3
200032d0:	4bc4      	ldr	r3, [pc, #784]	@ (200035e4 <tud_task_ext+0x334>)
200032d2:	ac0d      	add	r4, sp, #52	@ 0x34
200032d4:	9301      	str	r3, [sp, #4]
200032d6:	4bc4      	ldr	r3, [pc, #784]	@ (200035e8 <tud_task_ext+0x338>)
200032d8:	9300      	str	r3, [sp, #0]
200032da:	6835      	ldr	r5, [r6, #0]
200032dc:	696a      	ldr	r2, [r5, #20]
200032de:	f3ef 8110 	mrs	r1, PRIMASK
200032e2:	b672      	cpsid	i
200032e4:	6813      	ldr	r3, [r2, #0]
200032e6:	2b00      	cmp	r3, #0
200032e8:	d0fc      	beq.n	200032e4 <tud_task_ext+0x34>
200032ea:	f3bf 8f5f 	dmb	sy
200032ee:	61a9      	str	r1, [r5, #24]
200032f0:	0028      	movs	r0, r5
200032f2:	0021      	movs	r1, r4
200032f4:	f001 fb98 	bl	20004a28 <tu_fifo_read>
200032f8:	696a      	ldr	r2, [r5, #20]
200032fa:	69ab      	ldr	r3, [r5, #24]
200032fc:	f3bf 8f5f 	dmb	sy
20003300:	2100      	movs	r1, #0
20003302:	6011      	str	r1, [r2, #0]
20003304:	f383 8810 	msr	PRIMASK, r3
20003308:	2800      	cmp	r0, #0
2000330a:	d100      	bne.n	2000330e <tud_task_ext+0x5e>
2000330c:	e119      	b.n	20003542 <tud_task_ext+0x292>
2000330e:	7863      	ldrb	r3, [r4, #1]
20003310:	2b08      	cmp	r3, #8
20003312:	d8e2      	bhi.n	200032da <tud_task_ext+0x2a>
20003314:	009b      	lsls	r3, r3, #2
20003316:	58fb      	ldr	r3, [r7, r3]
20003318:	469f      	mov	pc, r3
2000331a:	6863      	ldr	r3, [r4, #4]
2000331c:	2b00      	cmp	r3, #0
2000331e:	d0dc      	beq.n	200032da <tud_task_ext+0x2a>
20003320:	68a0      	ldr	r0, [r4, #8]
20003322:	4798      	blx	r3
20003324:	e7d9      	b.n	200032da <tud_task_ext+0x2a>
20003326:	227f      	movs	r2, #127	@ 0x7f
20003328:	7921      	ldrb	r1, [r4, #4]
2000332a:	4dae      	ldr	r5, [pc, #696]	@ (200035e4 <tud_task_ext+0x334>)
2000332c:	400a      	ands	r2, r1
2000332e:	0053      	lsls	r3, r2, #1
20003330:	18eb      	adds	r3, r5, r3
20003332:	4698      	mov	r8, r3
20003334:	09c8      	lsrs	r0, r1, #7
20003336:	4480      	add	r8, r0
20003338:	4640      	mov	r0, r8
2000333a:	2301      	movs	r3, #1
2000333c:	3030      	adds	r0, #48	@ 0x30
2000333e:	7905      	ldrb	r5, [r0, #4]
20003340:	439d      	bics	r5, r3
20003342:	7105      	strb	r5, [r0, #4]
20003344:	7905      	ldrb	r5, [r0, #4]
20003346:	3303      	adds	r3, #3
20003348:	439d      	bics	r5, r3
2000334a:	7105      	strb	r5, [r0, #4]
2000334c:	2a00      	cmp	r2, #0
2000334e:	d100      	bne.n	20003352 <tud_task_ext+0xa2>
20003350:	e0fe      	b.n	20003550 <tud_task_ext+0x2a0>
20003352:	4643      	mov	r3, r8
20003354:	4aa5      	ldr	r2, [pc, #660]	@ (200035ec <tud_task_ext+0x33c>)
20003356:	7d1b      	ldrb	r3, [r3, #20]
20003358:	7812      	ldrb	r2, [r2, #0]
2000335a:	4293      	cmp	r3, r2
2000335c:	d300      	bcc.n	20003360 <tud_task_ext+0xb0>
2000335e:	e0ed      	b.n	2000353c <tud_task_ext+0x28c>
20003360:	4aa3      	ldr	r2, [pc, #652]	@ (200035f0 <tud_task_ext+0x340>)
20003362:	015b      	lsls	r3, r3, #5
20003364:	6815      	ldr	r5, [r2, #0]
20003366:	18ed      	adds	r5, r5, r3
20003368:	2d00      	cmp	r5, #0
2000336a:	d100      	bne.n	2000336e <tud_task_ext+0xbe>
2000336c:	e0e9      	b.n	20003542 <tud_task_ext+0x292>
2000336e:	68a3      	ldr	r3, [r4, #8]
20003370:	7962      	ldrb	r2, [r4, #5]
20003372:	7820      	ldrb	r0, [r4, #0]
20003374:	69ad      	ldr	r5, [r5, #24]
20003376:	47a8      	blx	r5
20003378:	e7af      	b.n	200032da <tud_task_ext+0x2a>
2000337a:	4b9e      	ldr	r3, [pc, #632]	@ (200035f4 <tud_task_ext+0x344>)
2000337c:	781a      	ldrb	r2, [r3, #0]
2000337e:	2a00      	cmp	r2, #0
20003380:	d100      	bne.n	20003384 <tud_task_ext+0xd4>
20003382:	e0de      	b.n	20003542 <tud_task_ext+0x292>
20003384:	781a      	ldrb	r2, [r3, #0]
20003386:	3a01      	subs	r2, #1
20003388:	701a      	strb	r2, [r3, #0]
2000338a:	781b      	ldrb	r3, [r3, #0]
2000338c:	2b00      	cmp	r3, #0
2000338e:	d1a4      	bne.n	200032da <tud_task_ext+0x2a>
20003390:	2201      	movs	r2, #1
20003392:	4d94      	ldr	r5, [pc, #592]	@ (200035e4 <tud_task_ext+0x334>)
20003394:	2101      	movs	r1, #1
20003396:	782b      	ldrb	r3, [r5, #0]
20003398:	2004      	movs	r0, #4
2000339a:	4313      	orrs	r3, r2
2000339c:	702b      	strb	r3, [r5, #0]
2000339e:	2334      	movs	r3, #52	@ 0x34
200033a0:	5cea      	ldrb	r2, [r5, r3]
200033a2:	438a      	bics	r2, r1
200033a4:	54ea      	strb	r2, [r5, r3]
200033a6:	5cea      	ldrb	r2, [r5, r3]
200033a8:	4382      	bics	r2, r0
200033aa:	54ea      	strb	r2, [r5, r3]
200033ac:	3301      	adds	r3, #1
200033ae:	5cea      	ldrb	r2, [r5, r3]
200033b0:	438a      	bics	r2, r1
200033b2:	54ea      	strb	r2, [r5, r3]
200033b4:	5cea      	ldrb	r2, [r5, r3]
200033b6:	4382      	bics	r2, r0
200033b8:	54ea      	strb	r2, [r5, r3]
200033ba:	7823      	ldrb	r3, [r4, #0]
200033bc:	2000      	movs	r0, #0
200033be:	469b      	mov	fp, r3
200033c0:	f000 fc9a 	bl	20003cf8 <usbd_control_set_complete_callback>
200033c4:	2260      	movs	r2, #96	@ 0x60
200033c6:	7923      	ldrb	r3, [r4, #4]
200033c8:	401a      	ands	r2, r3
200033ca:	2a60      	cmp	r2, #96	@ 0x60
200033cc:	d100      	bne.n	200033d0 <tud_task_ext+0x120>
200033ce:	e0ee      	b.n	200035ae <tud_task_ext+0x2fe>
200033d0:	2a40      	cmp	r2, #64	@ 0x40
200033d2:	d100      	bne.n	200033d6 <tud_task_ext+0x126>
200033d4:	e0f4      	b.n	200035c0 <tud_task_ext+0x310>
200033d6:	06db      	lsls	r3, r3, #27
200033d8:	0edb      	lsrs	r3, r3, #27
200033da:	2b01      	cmp	r3, #1
200033dc:	d100      	bne.n	200033e0 <tud_task_ext+0x130>
200033de:	e111      	b.n	20003604 <tud_task_ext+0x354>
200033e0:	2b02      	cmp	r3, #2
200033e2:	d100      	bne.n	200033e6 <tud_task_ext+0x136>
200033e4:	e0c6      	b.n	20003574 <tud_task_ext+0x2c4>
200033e6:	2b00      	cmp	r3, #0
200033e8:	d000      	beq.n	200033ec <tud_task_ext+0x13c>
200033ea:	e0e0      	b.n	200035ae <tud_task_ext+0x2fe>
200033ec:	2a20      	cmp	r2, #32
200033ee:	d100      	bne.n	200033f2 <tud_task_ext+0x142>
200033f0:	e21c      	b.n	2000382c <tud_task_ext+0x57c>
200033f2:	2a00      	cmp	r2, #0
200033f4:	d000      	beq.n	200033f8 <tud_task_ext+0x148>
200033f6:	e0da      	b.n	200035ae <tud_task_ext+0x2fe>
200033f8:	7963      	ldrb	r3, [r4, #5]
200033fa:	2b09      	cmp	r3, #9
200033fc:	d900      	bls.n	20003400 <tud_task_ext+0x150>
200033fe:	e0d6      	b.n	200035ae <tud_task_ext+0x2fe>
20003400:	4a7d      	ldr	r2, [pc, #500]	@ (200035f8 <tud_task_ext+0x348>)
20003402:	009b      	lsls	r3, r3, #2
20003404:	58d3      	ldr	r3, [r2, r3]
20003406:	469f      	mov	pc, r3
20003408:	4d76      	ldr	r5, [pc, #472]	@ (200035e4 <tud_task_ext+0x334>)
2000340a:	782b      	ldrb	r3, [r5, #0]
2000340c:	07db      	lsls	r3, r3, #31
2000340e:	d400      	bmi.n	20003412 <tud_task_ext+0x162>
20003410:	e763      	b.n	200032da <tud_task_ext+0x2a>
20003412:	f7ff fec3 	bl	2000319c <tud_resume_cb>
20003416:	e760      	b.n	200032da <tud_task_ext+0x2a>
20003418:	9b01      	ldr	r3, [sp, #4]
2000341a:	78db      	ldrb	r3, [r3, #3]
2000341c:	07db      	lsls	r3, r3, #31
2000341e:	d400      	bmi.n	20003422 <tud_task_ext+0x172>
20003420:	e75b      	b.n	200032da <tud_task_ext+0x2a>
20003422:	6860      	ldr	r0, [r4, #4]
20003424:	f7ff feae 	bl	20003184 <tud_sof_cb>
20003428:	e757      	b.n	200032da <tud_task_ext+0x2a>
2000342a:	4d6e      	ldr	r5, [pc, #440]	@ (200035e4 <tud_task_ext+0x334>)
2000342c:	782b      	ldrb	r3, [r5, #0]
2000342e:	07db      	lsls	r3, r3, #31
20003430:	d400      	bmi.n	20003434 <tud_task_ext+0x184>
20003432:	e752      	b.n	200032da <tud_task_ext+0x2a>
20003434:	7828      	ldrb	r0, [r5, #0]
20003436:	0700      	lsls	r0, r0, #28
20003438:	0fc0      	lsrs	r0, r0, #31
2000343a:	f7ff fead 	bl	20003198 <tud_suspend_cb>
2000343e:	e74c      	b.n	200032da <tud_task_ext+0x2a>
20003440:	7823      	ldrb	r3, [r4, #0]
20003442:	4969      	ldr	r1, [pc, #420]	@ (200035e8 <tud_task_ext+0x338>)
20003444:	4699      	mov	r9, r3
20003446:	468b      	mov	fp, r1
20003448:	4b68      	ldr	r3, [pc, #416]	@ (200035ec <tud_task_ext+0x33c>)
2000344a:	4969      	ldr	r1, [pc, #420]	@ (200035f0 <tud_task_ext+0x340>)
2000344c:	4698      	mov	r8, r3
2000344e:	468a      	mov	sl, r1
20003450:	0039      	movs	r1, r7
20003452:	781a      	ldrb	r2, [r3, #0]
20003454:	4647      	mov	r7, r8
20003456:	2300      	movs	r3, #0
20003458:	46b0      	mov	r8, r6
2000345a:	2500      	movs	r5, #0
2000345c:	464e      	mov	r6, r9
2000345e:	4689      	mov	r9, r1
20003460:	e010      	b.n	20003484 <tud_task_ext+0x1d4>
20003462:	4653      	mov	r3, sl
20003464:	681b      	ldr	r3, [r3, #0]
20003466:	016a      	lsls	r2, r5, #5
20003468:	189b      	adds	r3, r3, r2
2000346a:	2b00      	cmp	r3, #0
2000346c:	d100      	bne.n	20003470 <tud_task_ext+0x1c0>
2000346e:	e075      	b.n	2000355c <tud_task_ext+0x2ac>
20003470:	68db      	ldr	r3, [r3, #12]
20003472:	0030      	movs	r0, r6
20003474:	4798      	blx	r3
20003476:	783a      	ldrb	r2, [r7, #0]
20003478:	3501      	adds	r5, #1
2000347a:	b2ed      	uxtb	r5, r5
2000347c:	1c51      	adds	r1, r2, #1
2000347e:	002b      	movs	r3, r5
20003480:	428d      	cmp	r5, r1
20003482:	dc43      	bgt.n	2000350c <tud_task_ext+0x25c>
20003484:	4295      	cmp	r5, r2
20003486:	d3ec      	bcc.n	20003462 <tud_task_ext+0x1b2>
20003488:	1a9b      	subs	r3, r3, r2
2000348a:	015b      	lsls	r3, r3, #5
2000348c:	445b      	add	r3, fp
2000348e:	e7ef      	b.n	20003470 <tud_task_ext+0x1c0>
20003490:	7823      	ldrb	r3, [r4, #0]
20003492:	4957      	ldr	r1, [pc, #348]	@ (200035f0 <tud_task_ext+0x340>)
20003494:	4699      	mov	r9, r3
20003496:	4b55      	ldr	r3, [pc, #340]	@ (200035ec <tud_task_ext+0x33c>)
20003498:	468a      	mov	sl, r1
2000349a:	4698      	mov	r8, r3
2000349c:	0031      	movs	r1, r6
2000349e:	46bb      	mov	fp, r7
200034a0:	464e      	mov	r6, r9
200034a2:	781a      	ldrb	r2, [r3, #0]
200034a4:	2500      	movs	r5, #0
200034a6:	2300      	movs	r3, #0
200034a8:	4647      	mov	r7, r8
200034aa:	4689      	mov	r9, r1
200034ac:	e00f      	b.n	200034ce <tud_task_ext+0x21e>
200034ae:	4653      	mov	r3, sl
200034b0:	681b      	ldr	r3, [r3, #0]
200034b2:	016a      	lsls	r2, r5, #5
200034b4:	189b      	adds	r3, r3, r2
200034b6:	2b00      	cmp	r3, #0
200034b8:	d054      	beq.n	20003564 <tud_task_ext+0x2b4>
200034ba:	68db      	ldr	r3, [r3, #12]
200034bc:	0030      	movs	r0, r6
200034be:	4798      	blx	r3
200034c0:	783a      	ldrb	r2, [r7, #0]
200034c2:	3501      	adds	r5, #1
200034c4:	b2ed      	uxtb	r5, r5
200034c6:	1c51      	adds	r1, r2, #1
200034c8:	002b      	movs	r3, r5
200034ca:	428d      	cmp	r5, r1
200034cc:	dc06      	bgt.n	200034dc <tud_task_ext+0x22c>
200034ce:	4295      	cmp	r5, r2
200034d0:	d3ed      	bcc.n	200034ae <tud_task_ext+0x1fe>
200034d2:	1a9b      	subs	r3, r3, r2
200034d4:	9a00      	ldr	r2, [sp, #0]
200034d6:	015b      	lsls	r3, r3, #5
200034d8:	18d3      	adds	r3, r2, r3
200034da:	e7ee      	b.n	200034ba <tud_task_ext+0x20a>
200034dc:	9d01      	ldr	r5, [sp, #4]
200034de:	2254      	movs	r2, #84	@ 0x54
200034e0:	2100      	movs	r1, #0
200034e2:	0028      	movs	r0, r5
200034e4:	f7fe ff6e 	bl	200023c4 <__wrap_memset>
200034e8:	2210      	movs	r2, #16
200034ea:	21ff      	movs	r1, #255	@ 0xff
200034ec:	4843      	ldr	r0, [pc, #268]	@ (200035fc <tud_task_ext+0x34c>)
200034ee:	f7fe ff69 	bl	200023c4 <__wrap_memset>
200034f2:	0028      	movs	r0, r5
200034f4:	2220      	movs	r2, #32
200034f6:	21ff      	movs	r1, #255	@ 0xff
200034f8:	3014      	adds	r0, #20
200034fa:	464e      	mov	r6, r9
200034fc:	465f      	mov	r7, fp
200034fe:	f7fe ff61 	bl	200023c4 <__wrap_memset>
20003502:	f000 fbef 	bl	20003ce4 <usbd_control_reset>
20003506:	f7ff fe45 	bl	20003194 <tud_umount_cb>
2000350a:	e6e6      	b.n	200032da <tud_task_ext+0x2a>
2000350c:	4d35      	ldr	r5, [pc, #212]	@ (200035e4 <tud_task_ext+0x334>)
2000350e:	2254      	movs	r2, #84	@ 0x54
20003510:	2100      	movs	r1, #0
20003512:	0028      	movs	r0, r5
20003514:	f7fe ff56 	bl	200023c4 <__wrap_memset>
20003518:	2210      	movs	r2, #16
2000351a:	21ff      	movs	r1, #255	@ 0xff
2000351c:	1d28      	adds	r0, r5, #4
2000351e:	f7fe ff51 	bl	200023c4 <__wrap_memset>
20003522:	0028      	movs	r0, r5
20003524:	2220      	movs	r2, #32
20003526:	21ff      	movs	r1, #255	@ 0xff
20003528:	3014      	adds	r0, #20
2000352a:	4646      	mov	r6, r8
2000352c:	464f      	mov	r7, r9
2000352e:	f7fe ff49 	bl	200023c4 <__wrap_memset>
20003532:	f000 fbd7 	bl	20003ce4 <usbd_control_reset>
20003536:	7923      	ldrb	r3, [r4, #4]
20003538:	70ab      	strb	r3, [r5, #2]
2000353a:	e6ce      	b.n	200032da <tud_task_ext+0x2a>
2000353c:	1c50      	adds	r0, r2, #1
2000353e:	4298      	cmp	r0, r3
20003540:	da13      	bge.n	2000356a <tud_task_ext+0x2ba>
20003542:	b011      	add	sp, #68	@ 0x44
20003544:	bcf0      	pop	{r4, r5, r6, r7}
20003546:	46bb      	mov	fp, r7
20003548:	46b2      	mov	sl, r6
2000354a:	46a9      	mov	r9, r5
2000354c:	46a0      	mov	r8, r4
2000354e:	bdf0      	pop	{r4, r5, r6, r7, pc}
20003550:	68a3      	ldr	r3, [r4, #8]
20003552:	7962      	ldrb	r2, [r4, #5]
20003554:	7820      	ldrb	r0, [r4, #0]
20003556:	f000 fbe3 	bl	20003d20 <usbd_control_xfer_cb>
2000355a:	e6be      	b.n	200032da <tud_task_ext+0x2a>
2000355c:	4646      	mov	r6, r8
2000355e:	464f      	mov	r7, r9
20003560:	4d20      	ldr	r5, [pc, #128]	@ (200035e4 <tud_task_ext+0x334>)
20003562:	e7e6      	b.n	20003532 <tud_task_ext+0x282>
20003564:	464e      	mov	r6, r9
20003566:	465f      	mov	r7, fp
20003568:	e7cb      	b.n	20003502 <tud_task_ext+0x252>
2000356a:	4d1f      	ldr	r5, [pc, #124]	@ (200035e8 <tud_task_ext+0x338>)
2000356c:	1a9b      	subs	r3, r3, r2
2000356e:	015b      	lsls	r3, r3, #5
20003570:	195d      	adds	r5, r3, r5
20003572:	e6fc      	b.n	2000336e <tud_task_ext+0xbe>
20003574:	2370      	movs	r3, #112	@ 0x70
20003576:	7a21      	ldrb	r1, [r4, #8]
20003578:	420b      	tst	r3, r1
2000357a:	d118      	bne.n	200035ae <tud_task_ext+0x2fe>
2000357c:	09c8      	lsrs	r0, r1, #7
2000357e:	4682      	mov	sl, r0
20003580:	330f      	adds	r3, #15
20003582:	400b      	ands	r3, r1
20003584:	005b      	lsls	r3, r3, #1
20003586:	4698      	mov	r8, r3
20003588:	4818      	ldr	r0, [pc, #96]	@ (200035ec <tud_task_ext+0x33c>)
2000358a:	18eb      	adds	r3, r5, r3
2000358c:	4453      	add	r3, sl
2000358e:	7d1b      	ldrb	r3, [r3, #20]
20003590:	7800      	ldrb	r0, [r0, #0]
20003592:	4699      	mov	r9, r3
20003594:	4283      	cmp	r3, r0
20003596:	d268      	bcs.n	2000366a <tud_task_ext+0x3ba>
20003598:	4815      	ldr	r0, [pc, #84]	@ (200035f0 <tud_task_ext+0x340>)
2000359a:	015b      	lsls	r3, r3, #5
2000359c:	6800      	ldr	r0, [r0, #0]
2000359e:	4681      	mov	r9, r0
200035a0:	4499      	add	r9, r3
200035a2:	2a00      	cmp	r2, #0
200035a4:	d100      	bne.n	200035a8 <tud_task_ext+0x2f8>
200035a6:	e163      	b.n	20003870 <tud_task_ext+0x5c0>
200035a8:	464b      	mov	r3, r9
200035aa:	2b00      	cmp	r3, #0
200035ac:	d16a      	bne.n	20003684 <tud_task_ext+0x3d4>
200035ae:	7820      	ldrb	r0, [r4, #0]
200035b0:	2100      	movs	r1, #0
200035b2:	f7ff fd6f 	bl	20003094 <dcd_edpt_stall>
200035b6:	2180      	movs	r1, #128	@ 0x80
200035b8:	7820      	ldrb	r0, [r4, #0]
200035ba:	f7ff fd6b 	bl	20003094 <dcd_edpt_stall>
200035be:	e68c      	b.n	200032da <tud_task_ext+0x2a>
200035c0:	480f      	ldr	r0, [pc, #60]	@ (20003600 <tud_task_ext+0x350>)
200035c2:	f000 fb99 	bl	20003cf8 <usbd_control_set_complete_callback>
200035c6:	2101      	movs	r1, #1
200035c8:	4658      	mov	r0, fp
200035ca:	aa0e      	add	r2, sp, #56	@ 0x38
200035cc:	f7ff f8dc 	bl	20002788 <tud_vendor_control_xfer_cb>
200035d0:	2800      	cmp	r0, #0
200035d2:	d000      	beq.n	200035d6 <tud_task_ext+0x326>
200035d4:	e681      	b.n	200032da <tud_task_ext+0x2a>
200035d6:	e7ea      	b.n	200035ae <tud_task_ext+0x2fe>
200035d8:	200055b4 	.word	0x200055b4
200035dc:	200053e8 	.word	0x200053e8
200035e0:	20005b90 	.word	0x20005b90
200035e4:	20005b38 	.word	0x20005b38
200035e8:	20005490 	.word	0x20005490
200035ec:	200063e1 	.word	0x200063e1
200035f0:	20005a50 	.word	0x20005a50
200035f4:	200063e3 	.word	0x200063e3
200035f8:	2000540c 	.word	0x2000540c
200035fc:	20005b3c 	.word	0x20005b3c
20003600:	20002789 	.word	0x20002789
20003604:	7a23      	ldrb	r3, [r4, #8]
20003606:	8922      	ldrh	r2, [r4, #8]
20003608:	2b0f      	cmp	r3, #15
2000360a:	d8d0      	bhi.n	200035ae <tud_task_ext+0x2fe>
2000360c:	23ff      	movs	r3, #255	@ 0xff
2000360e:	4013      	ands	r3, r2
20003610:	4acf      	ldr	r2, [pc, #828]	@ (20003950 <tud_task_ext+0x6a0>)
20003612:	18eb      	adds	r3, r5, r3
20003614:	791b      	ldrb	r3, [r3, #4]
20003616:	7815      	ldrb	r5, [r2, #0]
20003618:	42ab      	cmp	r3, r5
2000361a:	d33e      	bcc.n	2000369a <tud_task_ext+0x3ea>
2000361c:	1c69      	adds	r1, r5, #1
2000361e:	4299      	cmp	r1, r3
20003620:	dbc5      	blt.n	200035ae <tud_task_ext+0x2fe>
20003622:	1b5d      	subs	r5, r3, r5
20003624:	4bcb      	ldr	r3, [pc, #812]	@ (20003954 <tud_task_ext+0x6a4>)
20003626:	016d      	lsls	r5, r5, #5
20003628:	18ed      	adds	r5, r5, r3
2000362a:	6968      	ldr	r0, [r5, #20]
2000362c:	f000 fb64 	bl	20003cf8 <usbd_control_set_complete_callback>
20003630:	2101      	movs	r1, #1
20003632:	4658      	mov	r0, fp
20003634:	696b      	ldr	r3, [r5, #20]
20003636:	aa0e      	add	r2, sp, #56	@ 0x38
20003638:	4798      	blx	r3
2000363a:	2800      	cmp	r0, #0
2000363c:	d000      	beq.n	20003640 <tud_task_ext+0x390>
2000363e:	e64c      	b.n	200032da <tud_task_ext+0x2a>
20003640:	2260      	movs	r2, #96	@ 0x60
20003642:	0015      	movs	r5, r2
20003644:	7923      	ldrb	r3, [r4, #4]
20003646:	401d      	ands	r5, r3
20003648:	421a      	tst	r2, r3
2000364a:	d1b0      	bne.n	200035ae <tud_task_ext+0x2fe>
2000364c:	7963      	ldrb	r3, [r4, #5]
2000364e:	3b0a      	subs	r3, #10
20003650:	2b01      	cmp	r3, #1
20003652:	d8ac      	bhi.n	200035ae <tud_task_ext+0x2fe>
20003654:	f000 fb50 	bl	20003cf8 <usbd_control_set_complete_callback>
20003658:	7963      	ldrb	r3, [r4, #5]
2000365a:	2b0a      	cmp	r3, #10
2000365c:	d100      	bne.n	20003660 <tud_task_ext+0x3b0>
2000365e:	e199      	b.n	20003994 <tud_task_ext+0x6e4>
20003660:	4658      	mov	r0, fp
20003662:	a90e      	add	r1, sp, #56	@ 0x38
20003664:	f000 fad8 	bl	20003c18 <tud_control_status>
20003668:	e637      	b.n	200032da <tud_task_ext+0x2a>
2000366a:	1c43      	adds	r3, r0, #1
2000366c:	454b      	cmp	r3, r9
2000366e:	da00      	bge.n	20003672 <tud_task_ext+0x3c2>
20003670:	e0f9      	b.n	20003866 <tud_task_ext+0x5b6>
20003672:	464b      	mov	r3, r9
20003674:	1a1b      	subs	r3, r3, r0
20003676:	015b      	lsls	r3, r3, #5
20003678:	4699      	mov	r9, r3
2000367a:	48b6      	ldr	r0, [pc, #728]	@ (20003954 <tud_task_ext+0x6a4>)
2000367c:	4481      	add	r9, r0
2000367e:	2a00      	cmp	r2, #0
20003680:	d100      	bne.n	20003684 <tud_task_ext+0x3d4>
20003682:	e0f5      	b.n	20003870 <tud_task_ext+0x5c0>
20003684:	464b      	mov	r3, r9
20003686:	6958      	ldr	r0, [r3, #20]
20003688:	f000 fb36 	bl	20003cf8 <usbd_control_set_complete_callback>
2000368c:	464b      	mov	r3, r9
2000368e:	2101      	movs	r1, #1
20003690:	4658      	mov	r0, fp
20003692:	695b      	ldr	r3, [r3, #20]
20003694:	aa0e      	add	r2, sp, #56	@ 0x38
20003696:	4798      	blx	r3
20003698:	e79a      	b.n	200035d0 <tud_task_ext+0x320>
2000369a:	4aaf      	ldr	r2, [pc, #700]	@ (20003958 <tud_task_ext+0x6a8>)
2000369c:	015b      	lsls	r3, r3, #5
2000369e:	6815      	ldr	r5, [r2, #0]
200036a0:	18ed      	adds	r5, r5, r3
200036a2:	2d00      	cmp	r5, #0
200036a4:	d1c1      	bne.n	2000362a <tud_task_ext+0x37a>
200036a6:	e782      	b.n	200035ae <tud_task_ext+0x2fe>
200036a8:	79a3      	ldrb	r3, [r4, #6]
200036aa:	4699      	mov	r9, r3
200036ac:	786b      	ldrb	r3, [r5, #1]
200036ae:	4599      	cmp	r9, r3
200036b0:	d0d6      	beq.n	20003660 <tud_task_ext+0x3b0>
200036b2:	786b      	ldrb	r3, [r5, #1]
200036b4:	2b00      	cmp	r3, #0
200036b6:	d000      	beq.n	200036ba <tud_task_ext+0x40a>
200036b8:	e135      	b.n	20003926 <tud_task_ext+0x676>
200036ba:	464b      	mov	r3, r9
200036bc:	706b      	strb	r3, [r5, #1]
200036be:	2b00      	cmp	r3, #0
200036c0:	d100      	bne.n	200036c4 <tud_task_ext+0x414>
200036c2:	e12d      	b.n	20003920 <tud_task_ext+0x670>
200036c4:	4648      	mov	r0, r9
200036c6:	3801      	subs	r0, #1
200036c8:	b2c0      	uxtb	r0, r0
200036ca:	f7ff fa99 	bl	20002c00 <tud_descriptor_configuration_cb>
200036ce:	2800      	cmp	r0, #0
200036d0:	d100      	bne.n	200036d4 <tud_task_ext+0x424>
200036d2:	e17e      	b.n	200039d2 <tud_task_ext+0x722>
200036d4:	7843      	ldrb	r3, [r0, #1]
200036d6:	9307      	str	r3, [sp, #28]
200036d8:	2b02      	cmp	r3, #2
200036da:	d000      	beq.n	200036de <tud_task_ext+0x42e>
200036dc:	e179      	b.n	200039d2 <tud_task_ext+0x722>
200036de:	2201      	movs	r2, #1
200036e0:	79c1      	ldrb	r1, [r0, #7]
200036e2:	46b1      	mov	r9, r6
200036e4:	118b      	asrs	r3, r1, #6
200036e6:	1149      	asrs	r1, r1, #5
200036e8:	4013      	ands	r3, r2
200036ea:	400a      	ands	r2, r1
200036ec:	2130      	movs	r1, #48	@ 0x30
200036ee:	0112      	lsls	r2, r2, #4
200036f0:	015b      	lsls	r3, r3, #5
200036f2:	4313      	orrs	r3, r2
200036f4:	782a      	ldrb	r2, [r5, #0]
200036f6:	46a8      	mov	r8, r5
200036f8:	438a      	bics	r2, r1
200036fa:	4313      	orrs	r3, r2
200036fc:	702b      	strb	r3, [r5, #0]
200036fe:	2309      	movs	r3, #9
20003700:	469a      	mov	sl, r3
20003702:	4482      	add	sl, r0
20003704:	4656      	mov	r6, sl
20003706:	46ba      	mov	sl, r7
20003708:	78c3      	ldrb	r3, [r0, #3]
2000370a:	7882      	ldrb	r2, [r0, #2]
2000370c:	021b      	lsls	r3, r3, #8
2000370e:	4313      	orrs	r3, r2
20003710:	18c3      	adds	r3, r0, r3
20003712:	9305      	str	r3, [sp, #20]
20003714:	4b8e      	ldr	r3, [pc, #568]	@ (20003950 <tud_task_ext+0x6a0>)
20003716:	9304      	str	r3, [sp, #16]
20003718:	4b8e      	ldr	r3, [pc, #568]	@ (20003954 <tud_task_ext+0x6a4>)
2000371a:	9308      	str	r3, [sp, #32]
2000371c:	4b8e      	ldr	r3, [pc, #568]	@ (20003958 <tud_task_ext+0x6a8>)
2000371e:	9309      	str	r3, [sp, #36]	@ 0x24
20003720:	4b8e      	ldr	r3, [pc, #568]	@ (2000395c <tud_task_ext+0x6ac>)
20003722:	930a      	str	r3, [sp, #40]	@ 0x28
20003724:	9b05      	ldr	r3, [sp, #20]
20003726:	42b3      	cmp	r3, r6
20003728:	d800      	bhi.n	2000372c <tud_task_ext+0x47c>
2000372a:	e155      	b.n	200039d8 <tud_task_ext+0x728>
2000372c:	7873      	ldrb	r3, [r6, #1]
2000372e:	2201      	movs	r2, #1
20003730:	2b0b      	cmp	r3, #11
20003732:	d103      	bne.n	2000373c <tud_task_ext+0x48c>
20003734:	7833      	ldrb	r3, [r6, #0]
20003736:	78f2      	ldrb	r2, [r6, #3]
20003738:	18f6      	adds	r6, r6, r3
2000373a:	7873      	ldrb	r3, [r6, #1]
2000373c:	2b04      	cmp	r3, #4
2000373e:	d000      	beq.n	20003742 <tud_task_ext+0x492>
20003740:	e144      	b.n	200039cc <tud_task_ext+0x71c>
20003742:	9b05      	ldr	r3, [sp, #20]
20003744:	2700      	movs	r7, #0
20003746:	1b9b      	subs	r3, r3, r6
20003748:	b29b      	uxth	r3, r3
2000374a:	9306      	str	r3, [sp, #24]
2000374c:	9b04      	ldr	r3, [sp, #16]
2000374e:	920b      	str	r2, [sp, #44]	@ 0x2c
20003750:	781d      	ldrb	r5, [r3, #0]
20003752:	2300      	movs	r3, #0
20003754:	9303      	str	r3, [sp, #12]
20003756:	e01b      	b.n	20003790 <tud_task_ext+0x4e0>
20003758:	9a09      	ldr	r2, [sp, #36]	@ 0x24
2000375a:	017b      	lsls	r3, r7, #5
2000375c:	6815      	ldr	r5, [r2, #0]
2000375e:	18ed      	adds	r5, r5, r3
20003760:	2d00      	cmp	r5, #0
20003762:	d100      	bne.n	20003766 <tud_task_ext+0x4b6>
20003764:	e132      	b.n	200039cc <tud_task_ext+0x71c>
20003766:	0031      	movs	r1, r6
20003768:	4658      	mov	r0, fp
2000376a:	692b      	ldr	r3, [r5, #16]
2000376c:	9a06      	ldr	r2, [sp, #24]
2000376e:	4798      	blx	r3
20003770:	4684      	mov	ip, r0
20003772:	2808      	cmp	r0, #8
20003774:	d903      	bls.n	2000377e <tud_task_ext+0x4ce>
20003776:	9a06      	ldr	r2, [sp, #24]
20003778:	4282      	cmp	r2, r0
2000377a:	d300      	bcc.n	2000377e <tud_task_ext+0x4ce>
2000377c:	e113      	b.n	200039a6 <tud_task_ext+0x6f6>
2000377e:	9b04      	ldr	r3, [sp, #16]
20003780:	3701      	adds	r7, #1
20003782:	781d      	ldrb	r5, [r3, #0]
20003784:	b2ff      	uxtb	r7, r7
20003786:	1c6b      	adds	r3, r5, #1
20003788:	9703      	str	r7, [sp, #12]
2000378a:	429f      	cmp	r7, r3
2000378c:	dd00      	ble.n	20003790 <tud_task_ext+0x4e0>
2000378e:	e11d      	b.n	200039cc <tud_task_ext+0x71c>
20003790:	42bd      	cmp	r5, r7
20003792:	d8e1      	bhi.n	20003758 <tud_task_ext+0x4a8>
20003794:	9b03      	ldr	r3, [sp, #12]
20003796:	1b5d      	subs	r5, r3, r5
20003798:	9b08      	ldr	r3, [sp, #32]
2000379a:	016d      	lsls	r5, r5, #5
2000379c:	195d      	adds	r5, r3, r5
2000379e:	e7e2      	b.n	20003766 <tud_task_ext+0x4b6>
200037a0:	786b      	ldrb	r3, [r5, #1]
200037a2:	aa0c      	add	r2, sp, #48	@ 0x30
200037a4:	3202      	adds	r2, #2
200037a6:	7013      	strb	r3, [r2, #0]
200037a8:	4658      	mov	r0, fp
200037aa:	2301      	movs	r3, #1
200037ac:	a90e      	add	r1, sp, #56	@ 0x38
200037ae:	f000 fa49 	bl	20003c44 <tud_control_xfer>
200037b2:	e592      	b.n	200032da <tud_task_ext+0x2a>
200037b4:	88e0      	ldrh	r0, [r4, #6]
200037b6:	0a03      	lsrs	r3, r0, #8
200037b8:	b2c0      	uxtb	r0, r0
200037ba:	2b0f      	cmp	r3, #15
200037bc:	d900      	bls.n	200037c0 <tud_task_ext+0x510>
200037be:	e6f6      	b.n	200035ae <tud_task_ext+0x2fe>
200037c0:	4967      	ldr	r1, [pc, #412]	@ (20003960 <tud_task_ext+0x6b0>)
200037c2:	009a      	lsls	r2, r3, #2
200037c4:	588a      	ldr	r2, [r1, r2]
200037c6:	4697      	mov	pc, r2
200037c8:	a80e      	add	r0, sp, #56	@ 0x38
200037ca:	f000 fa9b 	bl	20003d04 <usbd_control_set_request>
200037ce:	4658      	mov	r0, fp
200037d0:	79a1      	ldrb	r1, [r4, #6]
200037d2:	f7ff fb99 	bl	20002f08 <dcd_set_address>
200037d6:	2202      	movs	r2, #2
200037d8:	782b      	ldrb	r3, [r5, #0]
200037da:	4313      	orrs	r3, r2
200037dc:	702b      	strb	r3, [r5, #0]
200037de:	e57c      	b.n	200032da <tud_task_ext+0x2a>
200037e0:	88e3      	ldrh	r3, [r4, #6]
200037e2:	2b01      	cmp	r3, #1
200037e4:	d000      	beq.n	200037e8 <tud_task_ext+0x538>
200037e6:	e6e2      	b.n	200035ae <tud_task_ext+0x2fe>
200037e8:	2208      	movs	r2, #8
200037ea:	782b      	ldrb	r3, [r5, #0]
200037ec:	4658      	mov	r0, fp
200037ee:	4393      	bics	r3, r2
200037f0:	a90e      	add	r1, sp, #56	@ 0x38
200037f2:	702b      	strb	r3, [r5, #0]
200037f4:	f000 fa10 	bl	20003c18 <tud_control_status>
200037f8:	e56f      	b.n	200032da <tud_task_ext+0x2a>
200037fa:	2002      	movs	r0, #2
200037fc:	7829      	ldrb	r1, [r5, #0]
200037fe:	ab0c      	add	r3, sp, #48	@ 0x30
20003800:	1c9a      	adds	r2, r3, #2
20003802:	068b      	lsls	r3, r1, #26
20003804:	0889      	lsrs	r1, r1, #2
20003806:	0fdb      	lsrs	r3, r3, #31
20003808:	4001      	ands	r1, r0
2000380a:	430b      	orrs	r3, r1
2000380c:	8013      	strh	r3, [r2, #0]
2000380e:	4658      	mov	r0, fp
20003810:	2302      	movs	r3, #2
20003812:	a90e      	add	r1, sp, #56	@ 0x38
20003814:	f000 fa16 	bl	20003c44 <tud_control_xfer>
20003818:	e55f      	b.n	200032da <tud_task_ext+0x2a>
2000381a:	88e3      	ldrh	r3, [r4, #6]
2000381c:	2b01      	cmp	r3, #1
2000381e:	d000      	beq.n	20003822 <tud_task_ext+0x572>
20003820:	e6c5      	b.n	200035ae <tud_task_ext+0x2fe>
20003822:	2208      	movs	r2, #8
20003824:	782b      	ldrb	r3, [r5, #0]
20003826:	4313      	orrs	r3, r2
20003828:	702b      	strb	r3, [r5, #0]
2000382a:	e719      	b.n	20003660 <tud_task_ext+0x3b0>
2000382c:	7a23      	ldrb	r3, [r4, #8]
2000382e:	8922      	ldrh	r2, [r4, #8]
20003830:	2b0f      	cmp	r3, #15
20003832:	d900      	bls.n	20003836 <tud_task_ext+0x586>
20003834:	e6bb      	b.n	200035ae <tud_task_ext+0x2fe>
20003836:	23ff      	movs	r3, #255	@ 0xff
20003838:	4013      	ands	r3, r2
2000383a:	18eb      	adds	r3, r5, r3
2000383c:	791d      	ldrb	r5, [r3, #4]
2000383e:	4b44      	ldr	r3, [pc, #272]	@ (20003950 <tud_task_ext+0x6a0>)
20003840:	781b      	ldrb	r3, [r3, #0]
20003842:	429d      	cmp	r5, r3
20003844:	d228      	bcs.n	20003898 <tud_task_ext+0x5e8>
20003846:	4b44      	ldr	r3, [pc, #272]	@ (20003958 <tud_task_ext+0x6a8>)
20003848:	016d      	lsls	r5, r5, #5
2000384a:	681b      	ldr	r3, [r3, #0]
2000384c:	195d      	adds	r5, r3, r5
2000384e:	2d00      	cmp	r5, #0
20003850:	d100      	bne.n	20003854 <tud_task_ext+0x5a4>
20003852:	e6ac      	b.n	200035ae <tud_task_ext+0x2fe>
20003854:	6968      	ldr	r0, [r5, #20]
20003856:	f000 fa4f 	bl	20003cf8 <usbd_control_set_complete_callback>
2000385a:	2101      	movs	r1, #1
2000385c:	4658      	mov	r0, fp
2000385e:	696b      	ldr	r3, [r5, #20]
20003860:	aa0e      	add	r2, sp, #56	@ 0x38
20003862:	4798      	blx	r3
20003864:	e6b4      	b.n	200035d0 <tud_task_ext+0x320>
20003866:	2a00      	cmp	r2, #0
20003868:	d000      	beq.n	2000386c <tud_task_ext+0x5bc>
2000386a:	e6a0      	b.n	200035ae <tud_task_ext+0x2fe>
2000386c:	2300      	movs	r3, #0
2000386e:	4699      	mov	r9, r3
20003870:	7962      	ldrb	r2, [r4, #5]
20003872:	2002      	movs	r0, #2
20003874:	0013      	movs	r3, r2
20003876:	9203      	str	r2, [sp, #12]
20003878:	4383      	bics	r3, r0
2000387a:	2b01      	cmp	r3, #1
2000387c:	d015      	beq.n	200038aa <tud_task_ext+0x5fa>
2000387e:	2a00      	cmp	r2, #0
20003880:	d000      	beq.n	20003884 <tud_task_ext+0x5d4>
20003882:	e694      	b.n	200035ae <tud_task_ext+0x2fe>
20003884:	002b      	movs	r3, r5
20003886:	4443      	add	r3, r8
20003888:	4453      	add	r3, sl
2000388a:	3330      	adds	r3, #48	@ 0x30
2000388c:	791b      	ldrb	r3, [r3, #4]
2000388e:	aa0c      	add	r2, sp, #48	@ 0x30
20003890:	079b      	lsls	r3, r3, #30
20003892:	0fdb      	lsrs	r3, r3, #31
20003894:	3202      	adds	r2, #2
20003896:	e7b9      	b.n	2000380c <tud_task_ext+0x55c>
20003898:	1c5a      	adds	r2, r3, #1
2000389a:	42aa      	cmp	r2, r5
2000389c:	da00      	bge.n	200038a0 <tud_task_ext+0x5f0>
2000389e:	e686      	b.n	200035ae <tud_task_ext+0x2fe>
200038a0:	1aed      	subs	r5, r5, r3
200038a2:	4b2c      	ldr	r3, [pc, #176]	@ (20003954 <tud_task_ext+0x6a4>)
200038a4:	016d      	lsls	r5, r5, #5
200038a6:	18ed      	adds	r5, r5, r3
200038a8:	e7d4      	b.n	20003854 <tud_task_ext+0x5a4>
200038aa:	88e3      	ldrh	r3, [r4, #6]
200038ac:	2b00      	cmp	r3, #0
200038ae:	d112      	bne.n	200038d6 <tud_task_ext+0x626>
200038b0:	9b02      	ldr	r3, [sp, #8]
200038b2:	7818      	ldrb	r0, [r3, #0]
200038b4:	9b03      	ldr	r3, [sp, #12]
200038b6:	2b01      	cmp	r3, #1
200038b8:	d023      	beq.n	20003902 <tud_task_ext+0x652>
200038ba:	f7ff fbeb 	bl	20003094 <dcd_edpt_stall>
200038be:	4643      	mov	r3, r8
200038c0:	2102      	movs	r1, #2
200038c2:	18eb      	adds	r3, r5, r3
200038c4:	4453      	add	r3, sl
200038c6:	3330      	adds	r3, #48	@ 0x30
200038c8:	791a      	ldrb	r2, [r3, #4]
200038ca:	430a      	orrs	r2, r1
200038cc:	2101      	movs	r1, #1
200038ce:	711a      	strb	r2, [r3, #4]
200038d0:	791a      	ldrb	r2, [r3, #4]
200038d2:	430a      	orrs	r2, r1
200038d4:	711a      	strb	r2, [r3, #4]
200038d6:	464b      	mov	r3, r9
200038d8:	2b00      	cmp	r3, #0
200038da:	d100      	bne.n	200038de <tud_task_ext+0x62e>
200038dc:	e4fd      	b.n	200032da <tud_task_ext+0x2a>
200038de:	6958      	ldr	r0, [r3, #20]
200038e0:	f000 fa0a 	bl	20003cf8 <usbd_control_set_complete_callback>
200038e4:	464b      	mov	r3, r9
200038e6:	2101      	movs	r1, #1
200038e8:	695b      	ldr	r3, [r3, #20]
200038ea:	aa0e      	add	r2, sp, #56	@ 0x38
200038ec:	4658      	mov	r0, fp
200038ee:	4798      	blx	r3
200038f0:	2000      	movs	r0, #0
200038f2:	f000 fa01 	bl	20003cf8 <usbd_control_set_complete_callback>
200038f6:	2335      	movs	r3, #53	@ 0x35
200038f8:	5ceb      	ldrb	r3, [r5, r3]
200038fa:	07db      	lsls	r3, r3, #31
200038fc:	d500      	bpl.n	20003900 <tud_task_ext+0x650>
200038fe:	e4ec      	b.n	200032da <tud_task_ext+0x2a>
20003900:	e6ae      	b.n	20003660 <tud_task_ext+0x3b0>
20003902:	f7ff fbe5 	bl	200030d0 <dcd_edpt_clear_stall>
20003906:	4643      	mov	r3, r8
20003908:	2102      	movs	r1, #2
2000390a:	18eb      	adds	r3, r5, r3
2000390c:	4453      	add	r3, sl
2000390e:	3330      	adds	r3, #48	@ 0x30
20003910:	791a      	ldrb	r2, [r3, #4]
20003912:	438a      	bics	r2, r1
20003914:	711a      	strb	r2, [r3, #4]
20003916:	791a      	ldrb	r2, [r3, #4]
20003918:	9903      	ldr	r1, [sp, #12]
2000391a:	438a      	bics	r2, r1
2000391c:	711a      	strb	r2, [r3, #4]
2000391e:	e7da      	b.n	200038d6 <tud_task_ext+0x626>
20003920:	f7ff fc38 	bl	20003194 <tud_umount_cb>
20003924:	e69c      	b.n	20003660 <tud_task_ext+0x3b0>
20003926:	2100      	movs	r1, #0
20003928:	4658      	mov	r0, fp
2000392a:	f7ff faf7 	bl	20002f1c <dcd_sof_enable>
2000392e:	4658      	mov	r0, fp
20003930:	f7ff fb9a 	bl	20003068 <dcd_edpt_close_all>
20003934:	78ab      	ldrb	r3, [r5, #2]
20003936:	4907      	ldr	r1, [pc, #28]	@ (20003954 <tud_task_ext+0x6a4>)
20003938:	9303      	str	r3, [sp, #12]
2000393a:	4b05      	ldr	r3, [pc, #20]	@ (20003950 <tud_task_ext+0x6a0>)
2000393c:	9104      	str	r1, [sp, #16]
2000393e:	4698      	mov	r8, r3
20003940:	781a      	ldrb	r2, [r3, #0]
20003942:	2300      	movs	r3, #0
20003944:	4904      	ldr	r1, [pc, #16]	@ (20003958 <tud_task_ext+0x6a8>)
20003946:	46aa      	mov	sl, r5
20003948:	9105      	str	r1, [sp, #20]
2000394a:	001d      	movs	r5, r3
2000394c:	e01b      	b.n	20003986 <tud_task_ext+0x6d6>
2000394e:	46c0      	nop			@ (mov r8, r8)
20003950:	200063e1 	.word	0x200063e1
20003954:	20005490 	.word	0x20005490
20003958:	20005a50 	.word	0x20005a50
2000395c:	20005b4c 	.word	0x20005b4c
20003960:	20005434 	.word	0x20005434
20003964:	9b05      	ldr	r3, [sp, #20]
20003966:	016a      	lsls	r2, r5, #5
20003968:	681b      	ldr	r3, [r3, #0]
2000396a:	189b      	adds	r3, r3, r2
2000396c:	2b00      	cmp	r3, #0
2000396e:	d04c      	beq.n	20003a0a <tud_task_ext+0x75a>
20003970:	68db      	ldr	r3, [r3, #12]
20003972:	4658      	mov	r0, fp
20003974:	4798      	blx	r3
20003976:	4643      	mov	r3, r8
20003978:	781a      	ldrb	r2, [r3, #0]
2000397a:	3501      	adds	r5, #1
2000397c:	b2ed      	uxtb	r5, r5
2000397e:	1c51      	adds	r1, r2, #1
20003980:	002b      	movs	r3, r5
20003982:	428d      	cmp	r5, r1
20003984:	dc2d      	bgt.n	200039e2 <tud_task_ext+0x732>
20003986:	4295      	cmp	r5, r2
20003988:	d3ec      	bcc.n	20003964 <tud_task_ext+0x6b4>
2000398a:	1a9b      	subs	r3, r3, r2
2000398c:	9a04      	ldr	r2, [sp, #16]
2000398e:	015b      	lsls	r3, r3, #5
20003990:	18d3      	adds	r3, r2, r3
20003992:	e7ed      	b.n	20003970 <tud_task_ext+0x6c0>
20003994:	ab0c      	add	r3, sp, #48	@ 0x30
20003996:	1c9a      	adds	r2, r3, #2
20003998:	4658      	mov	r0, fp
2000399a:	2301      	movs	r3, #1
2000399c:	a90e      	add	r1, sp, #56	@ 0x38
2000399e:	7015      	strb	r5, [r2, #0]
200039a0:	f000 f950 	bl	20003c44 <tud_control_xfer>
200039a4:	e499      	b.n	200032da <tud_task_ext+0x2a>
200039a6:	9a0b      	ldr	r2, [sp, #44]	@ 0x2c
200039a8:	2a01      	cmp	r2, #1
200039aa:	d04e      	beq.n	20003a4a <tud_task_ext+0x79a>
200039ac:	2a00      	cmp	r2, #0
200039ae:	d03c      	beq.n	20003a2a <tud_task_ext+0x77a>
200039b0:	2300      	movs	r3, #0
200039b2:	78b0      	ldrb	r0, [r6, #2]
200039b4:	e004      	b.n	200039c0 <tud_task_ext+0x710>
200039b6:	3301      	adds	r3, #1
200039b8:	b2db      	uxtb	r3, r3
200039ba:	710f      	strb	r7, [r1, #4]
200039bc:	4293      	cmp	r3, r2
200039be:	d234      	bcs.n	20003a2a <tud_task_ext+0x77a>
200039c0:	18c1      	adds	r1, r0, r3
200039c2:	b2c9      	uxtb	r1, r1
200039c4:	4441      	add	r1, r8
200039c6:	790d      	ldrb	r5, [r1, #4]
200039c8:	2dff      	cmp	r5, #255	@ 0xff
200039ca:	d0f4      	beq.n	200039b6 <tud_task_ext+0x706>
200039cc:	464e      	mov	r6, r9
200039ce:	4645      	mov	r5, r8
200039d0:	4657      	mov	r7, sl
200039d2:	2300      	movs	r3, #0
200039d4:	706b      	strb	r3, [r5, #1]
200039d6:	e5ea      	b.n	200035ae <tud_task_ext+0x2fe>
200039d8:	464e      	mov	r6, r9
200039da:	4657      	mov	r7, sl
200039dc:	f7ff fbd8 	bl	20003190 <tud_mount_cb>
200039e0:	e63e      	b.n	20003660 <tud_task_ext+0x3b0>
200039e2:	4655      	mov	r5, sl
200039e4:	2254      	movs	r2, #84	@ 0x54
200039e6:	2100      	movs	r1, #0
200039e8:	0028      	movs	r0, r5
200039ea:	f7fe fceb 	bl	200023c4 <__wrap_memset>
200039ee:	2210      	movs	r2, #16
200039f0:	21ff      	movs	r1, #255	@ 0xff
200039f2:	1d28      	adds	r0, r5, #4
200039f4:	f7fe fce6 	bl	200023c4 <__wrap_memset>
200039f8:	0028      	movs	r0, r5
200039fa:	2220      	movs	r2, #32
200039fc:	21ff      	movs	r1, #255	@ 0xff
200039fe:	3014      	adds	r0, #20
20003a00:	f7fe fce0 	bl	200023c4 <__wrap_memset>
20003a04:	9b03      	ldr	r3, [sp, #12]
20003a06:	70ab      	strb	r3, [r5, #2]
20003a08:	e657      	b.n	200036ba <tud_task_ext+0x40a>
20003a0a:	4655      	mov	r5, sl
20003a0c:	e7fa      	b.n	20003a04 <tud_task_ext+0x754>
20003a0e:	f7fe feb7 	bl	20002780 <tud_descriptor_bos_cb>
20003a12:	1e02      	subs	r2, r0, #0
20003a14:	d100      	bne.n	20003a18 <tud_task_ext+0x768>
20003a16:	e5ca      	b.n	200035ae <tud_task_ext+0x2fe>
20003a18:	78d3      	ldrb	r3, [r2, #3]
20003a1a:	7891      	ldrb	r1, [r2, #2]
20003a1c:	021b      	lsls	r3, r3, #8
20003a1e:	430b      	orrs	r3, r1
20003a20:	4658      	mov	r0, fp
20003a22:	a90e      	add	r1, sp, #56	@ 0x38
20003a24:	f000 f90e 	bl	20003c44 <tud_control_xfer>
20003a28:	e5d2      	b.n	200035d0 <tud_task_ext+0x320>
20003a2a:	4665      	mov	r5, ip
20003a2c:	003b      	movs	r3, r7
20003a2e:	002a      	movs	r2, r5
20003a30:	0031      	movs	r1, r6
20003a32:	980a      	ldr	r0, [sp, #40]	@ 0x28
20003a34:	f000 fe6a 	bl	2000470c <tu_edpt_bind_driver>
20003a38:	9b04      	ldr	r3, [sp, #16]
20003a3a:	9a03      	ldr	r2, [sp, #12]
20003a3c:	781b      	ldrb	r3, [r3, #0]
20003a3e:	1976      	adds	r6, r6, r5
20003a40:	3301      	adds	r3, #1
20003a42:	4293      	cmp	r3, r2
20003a44:	db00      	blt.n	20003a48 <tud_task_ext+0x798>
20003a46:	e66d      	b.n	20003724 <tud_task_ext+0x474>
20003a48:	e7c0      	b.n	200039cc <tud_task_ext+0x71c>
20003a4a:	4b17      	ldr	r3, [pc, #92]	@ (20003aa8 <tud_task_ext+0x7f8>)
20003a4c:	6929      	ldr	r1, [r5, #16]
20003a4e:	4299      	cmp	r1, r3
20003a50:	d1ae      	bne.n	200039b0 <tud_task_ext+0x700>
20003a52:	9a07      	ldr	r2, [sp, #28]
20003a54:	e7ac      	b.n	200039b0 <tud_task_ext+0x700>
20003a56:	f7ff fb97 	bl	20003188 <tud_descriptor_device_qualifier_cb>
20003a5a:	1e02      	subs	r2, r0, #0
20003a5c:	d100      	bne.n	20003a60 <tud_task_ext+0x7b0>
20003a5e:	e5a6      	b.n	200035ae <tud_task_ext+0x2fe>
20003a60:	4658      	mov	r0, fp
20003a62:	7813      	ldrb	r3, [r2, #0]
20003a64:	a90e      	add	r1, sp, #56	@ 0x38
20003a66:	f000 f8ed 	bl	20003c44 <tud_control_xfer>
20003a6a:	e5b1      	b.n	200035d0 <tud_task_ext+0x320>
20003a6c:	8921      	ldrh	r1, [r4, #8]
20003a6e:	f7ff f8cb 	bl	20002c08 <tud_descriptor_string_cb>
20003a72:	1e02      	subs	r2, r0, #0
20003a74:	d1f4      	bne.n	20003a60 <tud_task_ext+0x7b0>
20003a76:	e59a      	b.n	200035ae <tud_task_ext+0x2fe>
20003a78:	2b02      	cmp	r3, #2
20003a7a:	d00f      	beq.n	20003a9c <tud_task_ext+0x7ec>
20003a7c:	f7ff fb86 	bl	2000318c <tud_descriptor_other_speed_configuration_cb>
20003a80:	1e02      	subs	r2, r0, #0
20003a82:	d1c9      	bne.n	20003a18 <tud_task_ext+0x768>
20003a84:	e593      	b.n	200035ae <tud_task_ext+0x2fe>
20003a86:	f7ff f8b7 	bl	20002bf8 <tud_descriptor_device_cb>
20003a8a:	1e02      	subs	r2, r0, #0
20003a8c:	d100      	bne.n	20003a90 <tud_task_ext+0x7e0>
20003a8e:	e58e      	b.n	200035ae <tud_task_ext+0x2fe>
20003a90:	2312      	movs	r3, #18
20003a92:	4658      	mov	r0, fp
20003a94:	a90e      	add	r1, sp, #56	@ 0x38
20003a96:	f000 f8d5 	bl	20003c44 <tud_control_xfer>
20003a9a:	e599      	b.n	200035d0 <tud_task_ext+0x320>
20003a9c:	f7ff f8b0 	bl	20002c00 <tud_descriptor_configuration_cb>
20003aa0:	1e02      	subs	r2, r0, #0
20003aa2:	d1b9      	bne.n	20003a18 <tud_task_ext+0x768>
20003aa4:	e583      	b.n	200035ae <tud_task_ext+0x2fe>
20003aa6:	46c0      	nop			@ (mov r8, r8)
20003aa8:	200040f1 	.word	0x200040f1

20003aac <usbd_open_edpt_pair>:
20003aac:	b5f0      	push	{r4, r5, r6, r7, lr}
20003aae:	464f      	mov	r7, r9
20003ab0:	4646      	mov	r6, r8
20003ab2:	46d6      	mov	lr, sl
20003ab4:	b5c0      	push	{r6, r7, lr}
20003ab6:	000c      	movs	r4, r1
20003ab8:	0016      	movs	r6, r2
20003aba:	001f      	movs	r7, r3
20003abc:	b082      	sub	sp, #8
20003abe:	2a00      	cmp	r2, #0
20003ac0:	d03a      	beq.n	20003b38 <usbd_open_edpt_pair+0x8c>
20003ac2:	2370      	movs	r3, #112	@ 0x70
20003ac4:	4698      	mov	r8, r3
20003ac6:	4b1d      	ldr	r3, [pc, #116]	@ (20003b3c <usbd_open_edpt_pair+0x90>)
20003ac8:	2500      	movs	r5, #0
20003aca:	4699      	mov	r9, r3
20003acc:	4b1c      	ldr	r3, [pc, #112]	@ (20003b40 <usbd_open_edpt_pair+0x94>)
20003ace:	469a      	mov	sl, r3
20003ad0:	e01a      	b.n	20003b08 <usbd_open_edpt_pair+0x5c>
20003ad2:	464b      	mov	r3, r9
20003ad4:	781b      	ldrb	r3, [r3, #0]
20003ad6:	0020      	movs	r0, r4
20003ad8:	9301      	str	r3, [sp, #4]
20003ada:	4653      	mov	r3, sl
20003adc:	7899      	ldrb	r1, [r3, #2]
20003ade:	f000 fddb 	bl	20004698 <tu_edpt_validate>
20003ae2:	2800      	cmp	r0, #0
20003ae4:	d01c      	beq.n	20003b20 <usbd_open_edpt_pair+0x74>
20003ae6:	0021      	movs	r1, r4
20003ae8:	9801      	ldr	r0, [sp, #4]
20003aea:	f7ff fa33 	bl	20002f54 <dcd_edpt_open>
20003aee:	2800      	cmp	r0, #0
20003af0:	d016      	beq.n	20003b20 <usbd_open_edpt_pair+0x74>
20003af2:	78a3      	ldrb	r3, [r4, #2]
20003af4:	09da      	lsrs	r2, r3, #7
20003af6:	2a01      	cmp	r2, #1
20003af8:	d019      	beq.n	20003b2e <usbd_open_edpt_pair+0x82>
20003afa:	9a0a      	ldr	r2, [sp, #40]	@ 0x28
20003afc:	3501      	adds	r5, #1
20003afe:	7013      	strb	r3, [r2, #0]
20003b00:	42b5      	cmp	r5, r6
20003b02:	da19      	bge.n	20003b38 <usbd_open_edpt_pair+0x8c>
20003b04:	7823      	ldrb	r3, [r4, #0]
20003b06:	18e4      	adds	r4, r4, r3
20003b08:	7863      	ldrb	r3, [r4, #1]
20003b0a:	2b05      	cmp	r3, #5
20003b0c:	d108      	bne.n	20003b20 <usbd_open_edpt_pair+0x74>
20003b0e:	78e3      	ldrb	r3, [r4, #3]
20003b10:	079b      	lsls	r3, r3, #30
20003b12:	0f9b      	lsrs	r3, r3, #30
20003b14:	42bb      	cmp	r3, r7
20003b16:	d103      	bne.n	20003b20 <usbd_open_edpt_pair+0x74>
20003b18:	4642      	mov	r2, r8
20003b1a:	78a3      	ldrb	r3, [r4, #2]
20003b1c:	421a      	tst	r2, r3
20003b1e:	d0d8      	beq.n	20003ad2 <usbd_open_edpt_pair+0x26>
20003b20:	2000      	movs	r0, #0
20003b22:	b002      	add	sp, #8
20003b24:	bce0      	pop	{r5, r6, r7}
20003b26:	46ba      	mov	sl, r7
20003b28:	46b1      	mov	r9, r6
20003b2a:	46a8      	mov	r8, r5
20003b2c:	bdf0      	pop	{r4, r5, r6, r7, pc}
20003b2e:	9a0b      	ldr	r2, [sp, #44]	@ 0x2c
20003b30:	3501      	adds	r5, #1
20003b32:	7013      	strb	r3, [r2, #0]
20003b34:	42b5      	cmp	r5, r6
20003b36:	dbe5      	blt.n	20003b04 <usbd_open_edpt_pair+0x58>
20003b38:	2001      	movs	r0, #1
20003b3a:	e7f2      	b.n	20003b22 <usbd_open_edpt_pair+0x76>
20003b3c:	200055b4 	.word	0x200055b4
20003b40:	20005b38 	.word	0x20005b38

20003b44 <usbd_edpt_open>:
20003b44:	2270      	movs	r2, #112	@ 0x70
20003b46:	b570      	push	{r4, r5, r6, lr}
20003b48:	788b      	ldrb	r3, [r1, #2]
20003b4a:	000c      	movs	r4, r1
20003b4c:	421a      	tst	r2, r3
20003b4e:	d001      	beq.n	20003b54 <usbd_edpt_open+0x10>
20003b50:	2000      	movs	r0, #0
20003b52:	bd70      	pop	{r4, r5, r6, pc}
20003b54:	4b06      	ldr	r3, [pc, #24]	@ (20003b70 <usbd_edpt_open+0x2c>)
20003b56:	0020      	movs	r0, r4
20003b58:	781d      	ldrb	r5, [r3, #0]
20003b5a:	4b06      	ldr	r3, [pc, #24]	@ (20003b74 <usbd_edpt_open+0x30>)
20003b5c:	7899      	ldrb	r1, [r3, #2]
20003b5e:	f000 fd9b 	bl	20004698 <tu_edpt_validate>
20003b62:	2800      	cmp	r0, #0
20003b64:	d0f4      	beq.n	20003b50 <usbd_edpt_open+0xc>
20003b66:	0021      	movs	r1, r4
20003b68:	0028      	movs	r0, r5
20003b6a:	f7ff f9f3 	bl	20002f54 <dcd_edpt_open>
20003b6e:	e7f0      	b.n	20003b52 <usbd_edpt_open+0xe>
20003b70:	200055b4 	.word	0x200055b4
20003b74:	20005b38 	.word	0x20005b38

20003b78 <usbd_edpt_claim>:
20003b78:	207f      	movs	r0, #127	@ 0x7f
20003b7a:	4b07      	ldr	r3, [pc, #28]	@ (20003b98 <usbd_edpt_claim+0x20>)
20003b7c:	b510      	push	{r4, lr}
20003b7e:	681a      	ldr	r2, [r3, #0]
20003b80:	4008      	ands	r0, r1
20003b82:	09cb      	lsrs	r3, r1, #7
20003b84:	3334      	adds	r3, #52	@ 0x34
20003b86:	0040      	lsls	r0, r0, #1
20003b88:	18c0      	adds	r0, r0, r3
20003b8a:	4b04      	ldr	r3, [pc, #16]	@ (20003b9c <usbd_edpt_claim+0x24>)
20003b8c:	0011      	movs	r1, r2
20003b8e:	18c0      	adds	r0, r0, r3
20003b90:	f000 fd3e 	bl	20004610 <tu_edpt_claim>
20003b94:	bd10      	pop	{r4, pc}
20003b96:	46c0      	nop			@ (mov r8, r8)
20003b98:	20005b8c 	.word	0x20005b8c
20003b9c:	20005b38 	.word	0x20005b38

20003ba0 <usbd_edpt_release>:
20003ba0:	207f      	movs	r0, #127	@ 0x7f
20003ba2:	4b07      	ldr	r3, [pc, #28]	@ (20003bc0 <usbd_edpt_release+0x20>)
20003ba4:	b510      	push	{r4, lr}
20003ba6:	681a      	ldr	r2, [r3, #0]
20003ba8:	4008      	ands	r0, r1
20003baa:	09cb      	lsrs	r3, r1, #7
20003bac:	3334      	adds	r3, #52	@ 0x34
20003bae:	0040      	lsls	r0, r0, #1
20003bb0:	18c0      	adds	r0, r0, r3
20003bb2:	4b04      	ldr	r3, [pc, #16]	@ (20003bc4 <usbd_edpt_release+0x24>)
20003bb4:	0011      	movs	r1, r2
20003bb6:	18c0      	adds	r0, r0, r3
20003bb8:	f000 fd52 	bl	20004660 <tu_edpt_release>
20003bbc:	bd10      	pop	{r4, pc}
20003bbe:	46c0      	nop			@ (mov r8, r8)
20003bc0:	20005b8c 	.word	0x20005b8c
20003bc4:	20005b38 	.word	0x20005b38

20003bc8 <usbd_edpt_xfer>:
20003bc8:	b570      	push	{r4, r5, r6, lr}
20003bca:	247f      	movs	r4, #127	@ 0x7f
20003bcc:	09c8      	lsrs	r0, r1, #7
20003bce:	4684      	mov	ip, r0
20003bd0:	400c      	ands	r4, r1
20003bd2:	480f      	ldr	r0, [pc, #60]	@ (20003c10 <usbd_edpt_xfer+0x48>)
20003bd4:	0064      	lsls	r4, r4, #1
20003bd6:	1904      	adds	r4, r0, r4
20003bd8:	4464      	add	r4, ip
20003bda:	3430      	adds	r4, #48	@ 0x30
20003bdc:	7920      	ldrb	r0, [r4, #4]
20003bde:	07c0      	lsls	r0, r0, #31
20003be0:	d501      	bpl.n	20003be6 <usbd_edpt_xfer+0x1e>
20003be2:	2000      	movs	r0, #0
20003be4:	bd70      	pop	{r4, r5, r6, pc}
20003be6:	480b      	ldr	r0, [pc, #44]	@ (20003c14 <usbd_edpt_xfer+0x4c>)
20003be8:	2501      	movs	r5, #1
20003bea:	7800      	ldrb	r0, [r0, #0]
20003bec:	4684      	mov	ip, r0
20003bee:	7920      	ldrb	r0, [r4, #4]
20003bf0:	4328      	orrs	r0, r5
20003bf2:	7120      	strb	r0, [r4, #4]
20003bf4:	4660      	mov	r0, ip
20003bf6:	f7ff fa3b 	bl	20003070 <dcd_edpt_xfer>
20003bfa:	2800      	cmp	r0, #0
20003bfc:	d1f2      	bne.n	20003be4 <usbd_edpt_xfer+0x1c>
20003bfe:	2201      	movs	r2, #1
20003c00:	7923      	ldrb	r3, [r4, #4]
20003c02:	4393      	bics	r3, r2
20003c04:	7123      	strb	r3, [r4, #4]
20003c06:	7923      	ldrb	r3, [r4, #4]
20003c08:	3203      	adds	r2, #3
20003c0a:	4393      	bics	r3, r2
20003c0c:	7123      	strb	r3, [r4, #4]
20003c0e:	e7e8      	b.n	20003be2 <usbd_edpt_xfer+0x1a>
20003c10:	20005b38 	.word	0x20005b38
20003c14:	200055b4 	.word	0x200055b4

20003c18 <tud_control_status>:
20003c18:	b570      	push	{r4, r5, r6, lr}
20003c1a:	4c09      	ldr	r4, [pc, #36]	@ (20003c40 <tud_control_status+0x28>)
20003c1c:	0006      	movs	r6, r0
20003c1e:	2208      	movs	r2, #8
20003c20:	0020      	movs	r0, r4
20003c22:	000d      	movs	r5, r1
20003c24:	f7fe fbd4 	bl	200023d0 <__wrap___aeabi_memcpy>
20003c28:	2300      	movs	r3, #0
20003c2a:	2180      	movs	r1, #128	@ 0x80
20003c2c:	60e3      	str	r3, [r4, #12]
20003c2e:	60a3      	str	r3, [r4, #8]
20003c30:	782b      	ldrb	r3, [r5, #0]
20003c32:	0030      	movs	r0, r6
20003c34:	4399      	bics	r1, r3
20003c36:	2200      	movs	r2, #0
20003c38:	2300      	movs	r3, #0
20003c3a:	f7ff ffc5 	bl	20003bc8 <usbd_edpt_xfer>
20003c3e:	bd70      	pop	{r4, r5, r6, pc}
20003c40:	20005b18 	.word	0x20005b18

20003c44 <tud_control_xfer>:
20003c44:	b5f0      	push	{r4, r5, r6, r7, lr}
20003c46:	46c6      	mov	lr, r8
20003c48:	4c24      	ldr	r4, [pc, #144]	@ (20003cdc <tud_control_xfer+0x98>)
20003c4a:	0017      	movs	r7, r2
20003c4c:	4680      	mov	r8, r0
20003c4e:	2208      	movs	r2, #8
20003c50:	0020      	movs	r0, r4
20003c52:	b500      	push	{lr}
20003c54:	000d      	movs	r5, r1
20003c56:	001e      	movs	r6, r3
20003c58:	f7fe fbba 	bl	200023d0 <__wrap___aeabi_memcpy>
20003c5c:	2300      	movs	r3, #0
20003c5e:	60a7      	str	r7, [r4, #8]
20003c60:	81e3      	strh	r3, [r4, #14]
20003c62:	79eb      	ldrb	r3, [r5, #7]
20003c64:	79aa      	ldrb	r2, [r5, #6]
20003c66:	021b      	lsls	r3, r3, #8
20003c68:	4313      	orrs	r3, r2
20003c6a:	1c1a      	adds	r2, r3, #0
20003c6c:	42b3      	cmp	r3, r6
20003c6e:	d900      	bls.n	20003c72 <tud_control_xfer+0x2e>
20003c70:	1c32      	adds	r2, r6, #0
20003c72:	b296      	uxth	r6, r2
20003c74:	81a2      	strh	r2, [r4, #12]
20003c76:	2b00      	cmp	r3, #0
20003c78:	d00c      	beq.n	20003c94 <tud_control_xfer+0x50>
20003c7a:	2e00      	cmp	r6, #0
20003c7c:	d015      	beq.n	20003caa <tud_control_xfer+0x66>
20003c7e:	2f00      	cmp	r7, #0
20003c80:	d02a      	beq.n	20003cd8 <tud_control_xfer+0x94>
20003c82:	2e40      	cmp	r6, #64	@ 0x40
20003c84:	d81a      	bhi.n	20003cbc <tud_control_xfer+0x78>
20003c86:	7823      	ldrb	r3, [r4, #0]
20003c88:	b296      	uxth	r6, r2
20003c8a:	2b7f      	cmp	r3, #127	@ 0x7f
20003c8c:	d81b      	bhi.n	20003cc6 <tud_control_xfer+0x82>
20003c8e:	2100      	movs	r1, #0
20003c90:	4a13      	ldr	r2, [pc, #76]	@ (20003ce0 <tud_control_xfer+0x9c>)
20003c92:	e00e      	b.n	20003cb2 <tud_control_xfer+0x6e>
20003c94:	2180      	movs	r1, #128	@ 0x80
20003c96:	782b      	ldrb	r3, [r5, #0]
20003c98:	2200      	movs	r2, #0
20003c9a:	4399      	bics	r1, r3
20003c9c:	4640      	mov	r0, r8
20003c9e:	2300      	movs	r3, #0
20003ca0:	f7ff ff92 	bl	20003bc8 <usbd_edpt_xfer>
20003ca4:	bc80      	pop	{r7}
20003ca6:	46b8      	mov	r8, r7
20003ca8:	bdf0      	pop	{r4, r5, r6, r7, pc}
20003caa:	237f      	movs	r3, #127	@ 0x7f
20003cac:	2200      	movs	r2, #0
20003cae:	7821      	ldrb	r1, [r4, #0]
20003cb0:	4399      	bics	r1, r3
20003cb2:	0033      	movs	r3, r6
20003cb4:	4640      	mov	r0, r8
20003cb6:	f7ff ff87 	bl	20003bc8 <usbd_edpt_xfer>
20003cba:	e7f3      	b.n	20003ca4 <tud_control_xfer+0x60>
20003cbc:	2240      	movs	r2, #64	@ 0x40
20003cbe:	7823      	ldrb	r3, [r4, #0]
20003cc0:	b296      	uxth	r6, r2
20003cc2:	2b7f      	cmp	r3, #127	@ 0x7f
20003cc4:	d9e3      	bls.n	20003c8e <tud_control_xfer+0x4a>
20003cc6:	4c06      	ldr	r4, [pc, #24]	@ (20003ce0 <tud_control_xfer+0x9c>)
20003cc8:	0032      	movs	r2, r6
20003cca:	0039      	movs	r1, r7
20003ccc:	0020      	movs	r0, r4
20003cce:	f7fe fb7f 	bl	200023d0 <__wrap___aeabi_memcpy>
20003cd2:	2180      	movs	r1, #128	@ 0x80
20003cd4:	0022      	movs	r2, r4
20003cd6:	e7ec      	b.n	20003cb2 <tud_control_xfer+0x6e>
20003cd8:	2000      	movs	r0, #0
20003cda:	e7e3      	b.n	20003ca4 <tud_control_xfer+0x60>
20003cdc:	20005b18 	.word	0x20005b18
20003ce0:	20005ad8 	.word	0x20005ad8

20003ce4 <usbd_control_reset>:
20003ce4:	b510      	push	{r4, lr}
20003ce6:	2214      	movs	r2, #20
20003ce8:	2100      	movs	r1, #0
20003cea:	4802      	ldr	r0, [pc, #8]	@ (20003cf4 <usbd_control_reset+0x10>)
20003cec:	f7fe fb6a 	bl	200023c4 <__wrap_memset>
20003cf0:	bd10      	pop	{r4, pc}
20003cf2:	46c0      	nop			@ (mov r8, r8)
20003cf4:	20005b18 	.word	0x20005b18

20003cf8 <usbd_control_set_complete_callback>:
20003cf8:	4b01      	ldr	r3, [pc, #4]	@ (20003d00 <usbd_control_set_complete_callback+0x8>)
20003cfa:	6118      	str	r0, [r3, #16]
20003cfc:	4770      	bx	lr
20003cfe:	46c0      	nop			@ (mov r8, r8)
20003d00:	20005b18 	.word	0x20005b18

20003d04 <usbd_control_set_request>:
20003d04:	b510      	push	{r4, lr}
20003d06:	4c05      	ldr	r4, [pc, #20]	@ (20003d1c <usbd_control_set_request+0x18>)
20003d08:	0001      	movs	r1, r0
20003d0a:	2208      	movs	r2, #8
20003d0c:	0020      	movs	r0, r4
20003d0e:	f7fe fb5f 	bl	200023d0 <__wrap___aeabi_memcpy>
20003d12:	2300      	movs	r3, #0
20003d14:	60a3      	str	r3, [r4, #8]
20003d16:	60e3      	str	r3, [r4, #12]
20003d18:	bd10      	pop	{r4, pc}
20003d1a:	46c0      	nop			@ (mov r8, r8)
20003d1c:	20005b18 	.word	0x20005b18

20003d20 <usbd_control_xfer_cb>:
20003d20:	b570      	push	{r4, r5, r6, lr}
20003d22:	4c37      	ldr	r4, [pc, #220]	@ (20003e00 <usbd_control_xfer_cb+0xe0>)
20003d24:	001d      	movs	r5, r3
20003d26:	7823      	ldrb	r3, [r4, #0]
20003d28:	0006      	movs	r6, r0
20003d2a:	09da      	lsrs	r2, r3, #7
20003d2c:	09c9      	lsrs	r1, r1, #7
20003d2e:	428a      	cmp	r2, r1
20003d30:	d010      	beq.n	20003d54 <usbd_control_xfer_cb+0x34>
20003d32:	2000      	movs	r0, #0
20003d34:	2d00      	cmp	r5, #0
20003d36:	d000      	beq.n	20003d3a <usbd_control_xfer_cb+0x1a>
20003d38:	bd70      	pop	{r4, r5, r6, pc}
20003d3a:	0021      	movs	r1, r4
20003d3c:	0030      	movs	r0, r6
20003d3e:	f7ff f8fb 	bl	20002f38 <dcd_edpt0_status_complete>
20003d42:	6923      	ldr	r3, [r4, #16]
20003d44:	2b00      	cmp	r3, #0
20003d46:	d003      	beq.n	20003d50 <usbd_control_xfer_cb+0x30>
20003d48:	0022      	movs	r2, r4
20003d4a:	2103      	movs	r1, #3
20003d4c:	0030      	movs	r0, r6
20003d4e:	4798      	blx	r3
20003d50:	2001      	movs	r0, #1
20003d52:	e7f1      	b.n	20003d38 <usbd_control_xfer_cb+0x18>
20003d54:	2b7f      	cmp	r3, #127	@ 0x7f
20003d56:	d806      	bhi.n	20003d66 <usbd_control_xfer_cb+0x46>
20003d58:	68a0      	ldr	r0, [r4, #8]
20003d5a:	2800      	cmp	r0, #0
20003d5c:	d0ec      	beq.n	20003d38 <usbd_control_xfer_cb+0x18>
20003d5e:	002a      	movs	r2, r5
20003d60:	4928      	ldr	r1, [pc, #160]	@ (20003e04 <usbd_control_xfer_cb+0xe4>)
20003d62:	f7fe fb35 	bl	200023d0 <__wrap___aeabi_memcpy>
20003d66:	89e2      	ldrh	r2, [r4, #14]
20003d68:	68a1      	ldr	r1, [r4, #8]
20003d6a:	1952      	adds	r2, r2, r5
20003d6c:	88e3      	ldrh	r3, [r4, #6]
20003d6e:	b292      	uxth	r2, r2
20003d70:	1949      	adds	r1, r1, r5
20003d72:	81e2      	strh	r2, [r4, #14]
20003d74:	60a1      	str	r1, [r4, #8]
20003d76:	4293      	cmp	r3, r2
20003d78:	d014      	beq.n	20003da4 <usbd_control_xfer_cb+0x84>
20003d7a:	2d3f      	cmp	r5, #63	@ 0x3f
20003d7c:	d912      	bls.n	20003da4 <usbd_control_xfer_cb+0x84>
20003d7e:	89a3      	ldrh	r3, [r4, #12]
20003d80:	1a98      	subs	r0, r3, r2
20003d82:	1c05      	adds	r5, r0, #0
20003d84:	b280      	uxth	r0, r0
20003d86:	2840      	cmp	r0, #64	@ 0x40
20003d88:	d828      	bhi.n	20003ddc <usbd_control_xfer_cb+0xbc>
20003d8a:	7820      	ldrb	r0, [r4, #0]
20003d8c:	b2ad      	uxth	r5, r5
20003d8e:	287f      	cmp	r0, #127	@ 0x7f
20003d90:	d826      	bhi.n	20003de0 <usbd_control_xfer_cb+0xc0>
20003d92:	2100      	movs	r1, #0
20003d94:	429a      	cmp	r2, r3
20003d96:	d030      	beq.n	20003dfa <usbd_control_xfer_cb+0xda>
20003d98:	4a1a      	ldr	r2, [pc, #104]	@ (20003e04 <usbd_control_xfer_cb+0xe4>)
20003d9a:	002b      	movs	r3, r5
20003d9c:	0030      	movs	r0, r6
20003d9e:	f7ff ff13 	bl	20003bc8 <usbd_edpt_xfer>
20003da2:	e7c9      	b.n	20003d38 <usbd_control_xfer_cb+0x18>
20003da4:	6923      	ldr	r3, [r4, #16]
20003da6:	2b00      	cmp	r3, #0
20003da8:	d005      	beq.n	20003db6 <usbd_control_xfer_cb+0x96>
20003daa:	0022      	movs	r2, r4
20003dac:	2102      	movs	r1, #2
20003dae:	0030      	movs	r0, r6
20003db0:	4798      	blx	r3
20003db2:	2800      	cmp	r0, #0
20003db4:	d008      	beq.n	20003dc8 <usbd_control_xfer_cb+0xa8>
20003db6:	2180      	movs	r1, #128	@ 0x80
20003db8:	7823      	ldrb	r3, [r4, #0]
20003dba:	2200      	movs	r2, #0
20003dbc:	4399      	bics	r1, r3
20003dbe:	0030      	movs	r0, r6
20003dc0:	2300      	movs	r3, #0
20003dc2:	f7ff ff01 	bl	20003bc8 <usbd_edpt_xfer>
20003dc6:	e7b7      	b.n	20003d38 <usbd_control_xfer_cb+0x18>
20003dc8:	2100      	movs	r1, #0
20003dca:	0030      	movs	r0, r6
20003dcc:	f7ff f962 	bl	20003094 <dcd_edpt_stall>
20003dd0:	0030      	movs	r0, r6
20003dd2:	2180      	movs	r1, #128	@ 0x80
20003dd4:	f7ff f95e 	bl	20003094 <dcd_edpt_stall>
20003dd8:	2001      	movs	r0, #1
20003dda:	e7ad      	b.n	20003d38 <usbd_control_xfer_cb+0x18>
20003ddc:	2540      	movs	r5, #64	@ 0x40
20003dde:	e7d4      	b.n	20003d8a <usbd_control_xfer_cb+0x6a>
20003de0:	429a      	cmp	r2, r3
20003de2:	d007      	beq.n	20003df4 <usbd_control_xfer_cb+0xd4>
20003de4:	4c07      	ldr	r4, [pc, #28]	@ (20003e04 <usbd_control_xfer_cb+0xe4>)
20003de6:	002a      	movs	r2, r5
20003de8:	0020      	movs	r0, r4
20003dea:	f7fe faf1 	bl	200023d0 <__wrap___aeabi_memcpy>
20003dee:	2180      	movs	r1, #128	@ 0x80
20003df0:	0022      	movs	r2, r4
20003df2:	e7d2      	b.n	20003d9a <usbd_control_xfer_cb+0x7a>
20003df4:	2180      	movs	r1, #128	@ 0x80
20003df6:	2200      	movs	r2, #0
20003df8:	e7cf      	b.n	20003d9a <usbd_control_xfer_cb+0x7a>
20003dfa:	2200      	movs	r2, #0
20003dfc:	e7cd      	b.n	20003d9a <usbd_control_xfer_cb+0x7a>
20003dfe:	46c0      	nop			@ (mov r8, r8)
20003e00:	20005b18 	.word	0x20005b18
20003e04:	20005ad8 	.word	0x20005ad8

20003e08 <_prep_out_transaction.isra.0>:
20003e08:	b570      	push	{r4, r5, r6, lr}
20003e0a:	0004      	movs	r4, r0
20003e0c:	f7ff f9c8 	bl	200031a0 <tud_mounted>
20003e10:	2800      	cmp	r0, #0
20003e12:	d100      	bne.n	20003e16 <_prep_out_transaction.isra.0+0xe>
20003e14:	bd70      	pop	{r4, r5, r6, pc}
20003e16:	f7ff f9cb 	bl	200031b0 <tud_suspended>
20003e1a:	2800      	cmp	r0, #0
20003e1c:	d1fa      	bne.n	20003e14 <_prep_out_transaction.isra.0+0xc>
20003e1e:	23c8      	movs	r3, #200	@ 0xc8
20003e20:	4363      	muls	r3, r4
20003e22:	4a12      	ldr	r2, [pc, #72]	@ (20003e6c <_prep_out_transaction.isra.0+0x64>)
20003e24:	0025      	movs	r5, r4
20003e26:	18d4      	adds	r4, r2, r3
20003e28:	78e1      	ldrb	r1, [r4, #3]
20003e2a:	2900      	cmp	r1, #0
20003e2c:	d0f2      	beq.n	20003e14 <_prep_out_transaction.isra.0+0xc>
20003e2e:	3310      	adds	r3, #16
20003e30:	189e      	adds	r6, r3, r2
20003e32:	0030      	movs	r0, r6
20003e34:	f000 fde2 	bl	200049fc <tu_fifo_remaining>
20003e38:	283f      	cmp	r0, #63	@ 0x3f
20003e3a:	d9eb      	bls.n	20003e14 <_prep_out_transaction.isra.0+0xc>
20003e3c:	2000      	movs	r0, #0
20003e3e:	78e1      	ldrb	r1, [r4, #3]
20003e40:	f7ff fe9a 	bl	20003b78 <usbd_edpt_claim>
20003e44:	2800      	cmp	r0, #0
20003e46:	d0e5      	beq.n	20003e14 <_prep_out_transaction.isra.0+0xc>
20003e48:	0030      	movs	r0, r6
20003e4a:	f000 fdd7 	bl	200049fc <tu_fifo_remaining>
20003e4e:	78e1      	ldrb	r1, [r4, #3]
20003e50:	283f      	cmp	r0, #63	@ 0x3f
20003e52:	d907      	bls.n	20003e64 <_prep_out_transaction.isra.0+0x5c>
20003e54:	4b06      	ldr	r3, [pc, #24]	@ (20003e70 <_prep_out_transaction.isra.0+0x68>)
20003e56:	01ea      	lsls	r2, r5, #7
20003e58:	18d2      	adds	r2, r2, r3
20003e5a:	2000      	movs	r0, #0
20003e5c:	2340      	movs	r3, #64	@ 0x40
20003e5e:	f7ff feb3 	bl	20003bc8 <usbd_edpt_xfer>
20003e62:	e7d7      	b.n	20003e14 <_prep_out_transaction.isra.0+0xc>
20003e64:	2000      	movs	r0, #0
20003e66:	f7ff fe9b 	bl	20003ba0 <usbd_edpt_release>
20003e6a:	e7d3      	b.n	20003e14 <_prep_out_transaction.isra.0+0xc>
20003e6c:	20005600 	.word	0x20005600
20003e70:	20005a54 	.word	0x20005a54

20003e74 <tud_cdc_n_connected>:
20003e74:	b510      	push	{r4, lr}
20003e76:	0004      	movs	r4, r0
20003e78:	f7ff f992 	bl	200031a0 <tud_mounted>
20003e7c:	2800      	cmp	r0, #0
20003e7e:	d101      	bne.n	20003e84 <tud_cdc_n_connected+0x10>
20003e80:	2000      	movs	r0, #0
20003e82:	bd10      	pop	{r4, pc}
20003e84:	f7ff f994 	bl	200031b0 <tud_suspended>
20003e88:	2800      	cmp	r0, #0
20003e8a:	d1f9      	bne.n	20003e80 <tud_cdc_n_connected+0xc>
20003e8c:	22c8      	movs	r2, #200	@ 0xc8
20003e8e:	4362      	muls	r2, r4
20003e90:	4b02      	ldr	r3, [pc, #8]	@ (20003e9c <tud_cdc_n_connected+0x28>)
20003e92:	3001      	adds	r0, #1
20003e94:	189b      	adds	r3, r3, r2
20003e96:	791b      	ldrb	r3, [r3, #4]
20003e98:	4018      	ands	r0, r3
20003e9a:	e7f2      	b.n	20003e82 <tud_cdc_n_connected+0xe>
20003e9c:	20005600 	.word	0x20005600

20003ea0 <tud_cdc_n_available>:
20003ea0:	23c8      	movs	r3, #200	@ 0xc8
20003ea2:	b510      	push	{r4, lr}
20003ea4:	4343      	muls	r3, r0
20003ea6:	4802      	ldr	r0, [pc, #8]	@ (20003eb0 <tud_cdc_n_available+0x10>)
20003ea8:	1818      	adds	r0, r3, r0
20003eaa:	f000 fd89 	bl	200049c0 <tu_fifo_count>
20003eae:	bd10      	pop	{r4, pc}
20003eb0:	20005610 	.word	0x20005610

20003eb4 <tud_cdc_n_read>:
20003eb4:	b5f8      	push	{r3, r4, r5, r6, r7, lr}
20003eb6:	23c8      	movs	r3, #200	@ 0xc8
20003eb8:	4343      	muls	r3, r0
20003eba:	4d1d      	ldr	r5, [pc, #116]	@ (20003f30 <tud_cdc_n_read+0x7c>)
20003ebc:	3310      	adds	r3, #16
20003ebe:	18ee      	adds	r6, r5, r3
20003ec0:	2380      	movs	r3, #128	@ 0x80
20003ec2:	0004      	movs	r4, r0
20003ec4:	025b      	lsls	r3, r3, #9
20003ec6:	429a      	cmp	r2, r3
20003ec8:	d300      	bcc.n	20003ecc <tud_cdc_n_read+0x18>
20003eca:	4a1a      	ldr	r2, [pc, #104]	@ (20003f34 <tud_cdc_n_read+0x80>)
20003ecc:	0030      	movs	r0, r6
20003ece:	b292      	uxth	r2, r2
20003ed0:	f000 fdf8 	bl	20004ac4 <tu_fifo_read_n>
20003ed4:	0007      	movs	r7, r0
20003ed6:	f7ff f963 	bl	200031a0 <tud_mounted>
20003eda:	2800      	cmp	r0, #0
20003edc:	d101      	bne.n	20003ee2 <tud_cdc_n_read+0x2e>
20003ede:	0038      	movs	r0, r7
20003ee0:	bdf8      	pop	{r3, r4, r5, r6, r7, pc}
20003ee2:	f7ff f965 	bl	200031b0 <tud_suspended>
20003ee6:	2800      	cmp	r0, #0
20003ee8:	d1f9      	bne.n	20003ede <tud_cdc_n_read+0x2a>
20003eea:	23c8      	movs	r3, #200	@ 0xc8
20003eec:	4363      	muls	r3, r4
20003eee:	18ed      	adds	r5, r5, r3
20003ef0:	78eb      	ldrb	r3, [r5, #3]
20003ef2:	2b00      	cmp	r3, #0
20003ef4:	d0f3      	beq.n	20003ede <tud_cdc_n_read+0x2a>
20003ef6:	0030      	movs	r0, r6
20003ef8:	f000 fd80 	bl	200049fc <tu_fifo_remaining>
20003efc:	283f      	cmp	r0, #63	@ 0x3f
20003efe:	d9ee      	bls.n	20003ede <tud_cdc_n_read+0x2a>
20003f00:	2000      	movs	r0, #0
20003f02:	78e9      	ldrb	r1, [r5, #3]
20003f04:	f7ff fe38 	bl	20003b78 <usbd_edpt_claim>
20003f08:	2800      	cmp	r0, #0
20003f0a:	d0e8      	beq.n	20003ede <tud_cdc_n_read+0x2a>
20003f0c:	0030      	movs	r0, r6
20003f0e:	f000 fd75 	bl	200049fc <tu_fifo_remaining>
20003f12:	78e9      	ldrb	r1, [r5, #3]
20003f14:	283f      	cmp	r0, #63	@ 0x3f
20003f16:	d907      	bls.n	20003f28 <tud_cdc_n_read+0x74>
20003f18:	4b07      	ldr	r3, [pc, #28]	@ (20003f38 <tud_cdc_n_read+0x84>)
20003f1a:	01e2      	lsls	r2, r4, #7
20003f1c:	18d2      	adds	r2, r2, r3
20003f1e:	2000      	movs	r0, #0
20003f20:	2340      	movs	r3, #64	@ 0x40
20003f22:	f7ff fe51 	bl	20003bc8 <usbd_edpt_xfer>
20003f26:	e7da      	b.n	20003ede <tud_cdc_n_read+0x2a>
20003f28:	2000      	movs	r0, #0
20003f2a:	f7ff fe39 	bl	20003ba0 <usbd_edpt_release>
20003f2e:	e7d6      	b.n	20003ede <tud_cdc_n_read+0x2a>
20003f30:	20005600 	.word	0x20005600
20003f34:	0000ffff 	.word	0x0000ffff
20003f38:	20005a54 	.word	0x20005a54

20003f3c <tud_cdc_n_write_flush>:
20003f3c:	b5f8      	push	{r3, r4, r5, r6, r7, lr}
20003f3e:	0004      	movs	r4, r0
20003f40:	f7ff f92e 	bl	200031a0 <tud_mounted>
20003f44:	2800      	cmp	r0, #0
20003f46:	d101      	bne.n	20003f4c <tud_cdc_n_write_flush+0x10>
20003f48:	2000      	movs	r0, #0
20003f4a:	bdf8      	pop	{r3, r4, r5, r6, r7, pc}
20003f4c:	f7ff f930 	bl	200031b0 <tud_suspended>
20003f50:	2800      	cmp	r0, #0
20003f52:	d1f9      	bne.n	20003f48 <tud_cdc_n_write_flush+0xc>
20003f54:	23c8      	movs	r3, #200	@ 0xc8
20003f56:	0025      	movs	r5, r4
20003f58:	435d      	muls	r5, r3
20003f5a:	002b      	movs	r3, r5
20003f5c:	4e13      	ldr	r6, [pc, #76]	@ (20003fac <tud_cdc_n_write_flush+0x70>)
20003f5e:	3324      	adds	r3, #36	@ 0x24
20003f60:	18f7      	adds	r7, r6, r3
20003f62:	0038      	movs	r0, r7
20003f64:	f000 fd2c 	bl	200049c0 <tu_fifo_count>
20003f68:	2800      	cmp	r0, #0
20003f6a:	d0ed      	beq.n	20003f48 <tud_cdc_n_write_flush+0xc>
20003f6c:	1975      	adds	r5, r6, r5
20003f6e:	2000      	movs	r0, #0
20003f70:	78a9      	ldrb	r1, [r5, #2]
20003f72:	f7ff fe01 	bl	20003b78 <usbd_edpt_claim>
20003f76:	2800      	cmp	r0, #0
20003f78:	d0e6      	beq.n	20003f48 <tud_cdc_n_write_flush+0xc>
20003f7a:	4a0d      	ldr	r2, [pc, #52]	@ (20003fb0 <tud_cdc_n_write_flush+0x74>)
20003f7c:	01e3      	lsls	r3, r4, #7
20003f7e:	189c      	adds	r4, r3, r2
20003f80:	0021      	movs	r1, r4
20003f82:	2240      	movs	r2, #64	@ 0x40
20003f84:	0038      	movs	r0, r7
20003f86:	f000 fd9d 	bl	20004ac4 <tu_fifo_read_n>
20003f8a:	78a9      	ldrb	r1, [r5, #2]
20003f8c:	0003      	movs	r3, r0
20003f8e:	1e05      	subs	r5, r0, #0
20003f90:	d007      	beq.n	20003fa2 <tud_cdc_n_write_flush+0x66>
20003f92:	0022      	movs	r2, r4
20003f94:	2000      	movs	r0, #0
20003f96:	f7ff fe17 	bl	20003bc8 <usbd_edpt_xfer>
20003f9a:	2800      	cmp	r0, #0
20003f9c:	d0d4      	beq.n	20003f48 <tud_cdc_n_write_flush+0xc>
20003f9e:	0028      	movs	r0, r5
20003fa0:	e7d3      	b.n	20003f4a <tud_cdc_n_write_flush+0xe>
20003fa2:	2000      	movs	r0, #0
20003fa4:	f7ff fdfc 	bl	20003ba0 <usbd_edpt_release>
20003fa8:	e7ce      	b.n	20003f48 <tud_cdc_n_write_flush+0xc>
20003faa:	46c0      	nop			@ (mov r8, r8)
20003fac:	20005600 	.word	0x20005600
20003fb0:	20005a94 	.word	0x20005a94

20003fb4 <tud_cdc_n_write>:
20003fb4:	b570      	push	{r4, r5, r6, lr}
20003fb6:	24c8      	movs	r4, #200	@ 0xc8
20003fb8:	4344      	muls	r4, r0
20003fba:	4b0c      	ldr	r3, [pc, #48]	@ (20003fec <tud_cdc_n_write+0x38>)
20003fbc:	0005      	movs	r5, r0
20003fbe:	18e4      	adds	r4, r4, r3
20003fc0:	2380      	movs	r3, #128	@ 0x80
20003fc2:	025b      	lsls	r3, r3, #9
20003fc4:	429a      	cmp	r2, r3
20003fc6:	d300      	bcc.n	20003fca <tud_cdc_n_write+0x16>
20003fc8:	4a09      	ldr	r2, [pc, #36]	@ (20003ff0 <tud_cdc_n_write+0x3c>)
20003fca:	0020      	movs	r0, r4
20003fcc:	b292      	uxth	r2, r2
20003fce:	f000 fe41 	bl	20004c54 <tu_fifo_write_n>
20003fd2:	0006      	movs	r6, r0
20003fd4:	0020      	movs	r0, r4
20003fd6:	f000 fcf3 	bl	200049c0 <tu_fifo_count>
20003fda:	283f      	cmp	r0, #63	@ 0x3f
20003fdc:	d801      	bhi.n	20003fe2 <tud_cdc_n_write+0x2e>
20003fde:	0030      	movs	r0, r6
20003fe0:	bd70      	pop	{r4, r5, r6, pc}
20003fe2:	0028      	movs	r0, r5
20003fe4:	f7ff ffaa 	bl	20003f3c <tud_cdc_n_write_flush>
20003fe8:	e7f9      	b.n	20003fde <tud_cdc_n_write+0x2a>
20003fea:	46c0      	nop			@ (mov r8, r8)
20003fec:	20005624 	.word	0x20005624
20003ff0:	0000ffff 	.word	0x0000ffff

20003ff4 <tud_cdc_n_write_available>:
20003ff4:	23c8      	movs	r3, #200	@ 0xc8
20003ff6:	b510      	push	{r4, lr}
20003ff8:	4343      	muls	r3, r0
20003ffa:	4802      	ldr	r0, [pc, #8]	@ (20004004 <tud_cdc_n_write_available+0x10>)
20003ffc:	1818      	adds	r0, r3, r0
20003ffe:	f000 fcfd 	bl	200049fc <tu_fifo_remaining>
20004002:	bd10      	pop	{r4, pc}
20004004:	20005624 	.word	0x20005624

20004008 <cdcd_init>:
20004008:	b5f0      	push	{r4, r5, r6, r7, lr}
2000400a:	2500      	movs	r5, #0
2000400c:	4c18      	ldr	r4, [pc, #96]	@ (20004070 <cdcd_init+0x68>)
2000400e:	b083      	sub	sp, #12
20004010:	22c8      	movs	r2, #200	@ 0xc8
20004012:	2100      	movs	r1, #0
20004014:	0020      	movs	r0, r4
20004016:	f7fe f9d5 	bl	200023c4 <__wrap_memset>
2000401a:	4b16      	ldr	r3, [pc, #88]	@ (20004074 <cdcd_init+0x6c>)
2000401c:	0021      	movs	r1, r4
2000401e:	701d      	strb	r5, [r3, #0]
20004020:	23ff      	movs	r3, #255	@ 0xff
20004022:	7163      	strb	r3, [r4, #5]
20004024:	23e1      	movs	r3, #225	@ 0xe1
20004026:	025b      	lsls	r3, r3, #9
20004028:	60a3      	str	r3, [r4, #8]
2000402a:	0020      	movs	r0, r4
2000402c:	2308      	movs	r3, #8
2000402e:	2240      	movs	r2, #64	@ 0x40
20004030:	73a3      	strb	r3, [r4, #14]
20004032:	3138      	adds	r1, #56	@ 0x38
20004034:	9500      	str	r5, [sp, #0]
20004036:	3b07      	subs	r3, #7
20004038:	3010      	adds	r0, #16
2000403a:	f000 fc8b 	bl	20004954 <tu_fifo_config>
2000403e:	0027      	movs	r7, r4
20004040:	2301      	movs	r3, #1
20004042:	0021      	movs	r1, r4
20004044:	0020      	movs	r0, r4
20004046:	0026      	movs	r6, r4
20004048:	2240      	movs	r2, #64	@ 0x40
2000404a:	3178      	adds	r1, #120	@ 0x78
2000404c:	9300      	str	r3, [sp, #0]
2000404e:	37b8      	adds	r7, #184	@ 0xb8
20004050:	3024      	adds	r0, #36	@ 0x24
20004052:	f000 fc7f 	bl	20004954 <tu_fifo_config>
20004056:	36c0      	adds	r6, #192	@ 0xc0
20004058:	0038      	movs	r0, r7
2000405a:	f7fd fa31 	bl	200014c0 <mutex_init>
2000405e:	0030      	movs	r0, r6
20004060:	f7fd fa2e 	bl	200014c0 <mutex_init>
20004064:	61e5      	str	r5, [r4, #28]
20004066:	6227      	str	r7, [r4, #32]
20004068:	6326      	str	r6, [r4, #48]	@ 0x30
2000406a:	6365      	str	r5, [r4, #52]	@ 0x34
2000406c:	b003      	add	sp, #12
2000406e:	bdf0      	pop	{r4, r5, r6, r7, pc}
20004070:	20005600 	.word	0x20005600
20004074:	20005ad4 	.word	0x20005ad4

20004078 <cdcd_deinit>:
20004078:	4b0a      	ldr	r3, [pc, #40]	@ (200040a4 <cdcd_deinit+0x2c>)
2000407a:	6b19      	ldr	r1, [r3, #48]	@ 0x30
2000407c:	6a1a      	ldr	r2, [r3, #32]
2000407e:	2900      	cmp	r1, #0
20004080:	d00c      	beq.n	2000409c <cdcd_deinit+0x24>
20004082:	2a00      	cmp	r2, #0
20004084:	d007      	beq.n	20004096 <cdcd_deinit+0x1e>
20004086:	2200      	movs	r2, #0
20004088:	61da      	str	r2, [r3, #28]
2000408a:	635a      	str	r2, [r3, #52]	@ 0x34
2000408c:	631a      	str	r2, [r3, #48]	@ 0x30
2000408e:	2200      	movs	r2, #0
20004090:	621a      	str	r2, [r3, #32]
20004092:	2001      	movs	r0, #1
20004094:	4770      	bx	lr
20004096:	635a      	str	r2, [r3, #52]	@ 0x34
20004098:	631a      	str	r2, [r3, #48]	@ 0x30
2000409a:	e7fa      	b.n	20004092 <cdcd_deinit+0x1a>
2000409c:	2a00      	cmp	r2, #0
2000409e:	d0f8      	beq.n	20004092 <cdcd_deinit+0x1a>
200040a0:	61d9      	str	r1, [r3, #28]
200040a2:	e7f4      	b.n	2000408e <cdcd_deinit+0x16>
200040a4:	20005600 	.word	0x20005600

200040a8 <cdcd_reset>:
200040a8:	b570      	push	{r4, r5, r6, lr}
200040aa:	2205      	movs	r2, #5
200040ac:	2100      	movs	r1, #0
200040ae:	480d      	ldr	r0, [pc, #52]	@ (200040e4 <cdcd_reset+0x3c>)
200040b0:	f7fe f988 	bl	200023c4 <__wrap_memset>
200040b4:	4d0c      	ldr	r5, [pc, #48]	@ (200040e8 <cdcd_reset+0x40>)
200040b6:	782b      	ldrb	r3, [r5, #0]
200040b8:	07da      	lsls	r2, r3, #31
200040ba:	d507      	bpl.n	200040cc <cdcd_reset+0x24>
200040bc:	4c0b      	ldr	r4, [pc, #44]	@ (200040ec <cdcd_reset+0x44>)
200040be:	079b      	lsls	r3, r3, #30
200040c0:	d50c      	bpl.n	200040dc <cdcd_reset+0x34>
200040c2:	2101      	movs	r1, #1
200040c4:	0020      	movs	r0, r4
200040c6:	f000 fe99 	bl	20004dfc <tu_fifo_set_overwritable>
200040ca:	bd70      	pop	{r4, r5, r6, pc}
200040cc:	4805      	ldr	r0, [pc, #20]	@ (200040e4 <cdcd_reset+0x3c>)
200040ce:	3010      	adds	r0, #16
200040d0:	f000 fe74 	bl	20004dbc <tu_fifo_clear>
200040d4:	782b      	ldrb	r3, [r5, #0]
200040d6:	4c05      	ldr	r4, [pc, #20]	@ (200040ec <cdcd_reset+0x44>)
200040d8:	079b      	lsls	r3, r3, #30
200040da:	d4f2      	bmi.n	200040c2 <cdcd_reset+0x1a>
200040dc:	0020      	movs	r0, r4
200040de:	f000 fe6d 	bl	20004dbc <tu_fifo_clear>
200040e2:	e7ee      	b.n	200040c2 <cdcd_reset+0x1a>
200040e4:	20005600 	.word	0x20005600
200040e8:	20005ad4 	.word	0x20005ad4
200040ec:	20005624 	.word	0x20005624

200040f0 <cdcd_open>:
200040f0:	b5f0      	push	{r4, r5, r6, r7, lr}
200040f2:	794b      	ldrb	r3, [r1, #5]
200040f4:	0007      	movs	r7, r0
200040f6:	b083      	sub	sp, #12
200040f8:	2b02      	cmp	r3, #2
200040fa:	d102      	bne.n	20004102 <cdcd_open+0x12>
200040fc:	798b      	ldrb	r3, [r1, #6]
200040fe:	2b02      	cmp	r3, #2
20004100:	d003      	beq.n	2000410a <cdcd_open+0x1a>
20004102:	2400      	movs	r4, #0
20004104:	0020      	movs	r0, r4
20004106:	b003      	add	sp, #12
20004108:	bdf0      	pop	{r4, r5, r6, r7, pc}
2000410a:	4b21      	ldr	r3, [pc, #132]	@ (20004190 <cdcd_open+0xa0>)
2000410c:	001e      	movs	r6, r3
2000410e:	789b      	ldrb	r3, [r3, #2]
20004110:	2b00      	cmp	r3, #0
20004112:	d1f6      	bne.n	20004102 <cdcd_open+0x12>
20004114:	788b      	ldrb	r3, [r1, #2]
20004116:	2409      	movs	r4, #9
20004118:	7033      	strb	r3, [r6, #0]
2000411a:	780d      	ldrb	r5, [r1, #0]
2000411c:	194d      	adds	r5, r1, r5
2000411e:	786b      	ldrb	r3, [r5, #1]
20004120:	2b24      	cmp	r3, #36	@ 0x24
20004122:	d007      	beq.n	20004134 <cdcd_open+0x44>
20004124:	e00c      	b.n	20004140 <cdcd_open+0x50>
20004126:	782b      	ldrb	r3, [r5, #0]
20004128:	18ed      	adds	r5, r5, r3
2000412a:	191c      	adds	r4, r3, r4
2000412c:	786b      	ldrb	r3, [r5, #1]
2000412e:	b2a4      	uxth	r4, r4
20004130:	2b24      	cmp	r3, #36	@ 0x24
20004132:	d105      	bne.n	20004140 <cdcd_open+0x50>
20004134:	42a2      	cmp	r2, r4
20004136:	d2f6      	bcs.n	20004126 <cdcd_open+0x36>
20004138:	2000      	movs	r0, #0
2000413a:	f7ff fe65 	bl	20003e08 <_prep_out_transaction.isra.0>
2000413e:	e7e1      	b.n	20004104 <cdcd_open+0x14>
20004140:	001a      	movs	r2, r3
20004142:	2b05      	cmp	r3, #5
20004144:	d015      	beq.n	20004172 <cdcd_open+0x82>
20004146:	2a04      	cmp	r2, #4
20004148:	d1f6      	bne.n	20004138 <cdcd_open+0x48>
2000414a:	796b      	ldrb	r3, [r5, #5]
2000414c:	2b0a      	cmp	r3, #10
2000414e:	d1f3      	bne.n	20004138 <cdcd_open+0x48>
20004150:	4b10      	ldr	r3, [pc, #64]	@ (20004194 <cdcd_open+0xa4>)
20004152:	782e      	ldrb	r6, [r5, #0]
20004154:	9301      	str	r3, [sp, #4]
20004156:	3301      	adds	r3, #1
20004158:	9300      	str	r3, [sp, #0]
2000415a:	0038      	movs	r0, r7
2000415c:	2302      	movs	r3, #2
2000415e:	19a9      	adds	r1, r5, r6
20004160:	3a02      	subs	r2, #2
20004162:	f7ff fca3 	bl	20003aac <usbd_open_edpt_pair>
20004166:	2800      	cmp	r0, #0
20004168:	d0cb      	beq.n	20004102 <cdcd_open+0x12>
2000416a:	340e      	adds	r4, #14
2000416c:	19a4      	adds	r4, r4, r6
2000416e:	b2a4      	uxth	r4, r4
20004170:	e7e2      	b.n	20004138 <cdcd_open+0x48>
20004172:	0029      	movs	r1, r5
20004174:	0038      	movs	r0, r7
20004176:	f7ff fce5 	bl	20003b44 <usbd_edpt_open>
2000417a:	2800      	cmp	r0, #0
2000417c:	d0c1      	beq.n	20004102 <cdcd_open+0x12>
2000417e:	78ab      	ldrb	r3, [r5, #2]
20004180:	7073      	strb	r3, [r6, #1]
20004182:	782b      	ldrb	r3, [r5, #0]
20004184:	191c      	adds	r4, r3, r4
20004186:	18ed      	adds	r5, r5, r3
20004188:	786a      	ldrb	r2, [r5, #1]
2000418a:	b2a4      	uxth	r4, r4
2000418c:	e7db      	b.n	20004146 <cdcd_open+0x56>
2000418e:	46c0      	nop			@ (mov r8, r8)
20004190:	20005600 	.word	0x20005600
20004194:	20005602 	.word	0x20005602

20004198 <cdcd_control_xfer_cb>:
20004198:	2360      	movs	r3, #96	@ 0x60
2000419a:	468c      	mov	ip, r1
2000419c:	0011      	movs	r1, r2
2000419e:	7812      	ldrb	r2, [r2, #0]
200041a0:	b570      	push	{r4, r5, r6, lr}
200041a2:	4013      	ands	r3, r2
200041a4:	2200      	movs	r2, #0
200041a6:	2b20      	cmp	r3, #32
200041a8:	d108      	bne.n	200041bc <cdcd_control_xfer_cb+0x24>
200041aa:	4c32      	ldr	r4, [pc, #200]	@ (20004274 <cdcd_control_xfer_cb+0xdc>)
200041ac:	794b      	ldrb	r3, [r1, #5]
200041ae:	0026      	movs	r6, r4
200041b0:	790d      	ldrb	r5, [r1, #4]
200041b2:	7824      	ldrb	r4, [r4, #0]
200041b4:	021b      	lsls	r3, r3, #8
200041b6:	432b      	orrs	r3, r5
200041b8:	429c      	cmp	r4, r3
200041ba:	d001      	beq.n	200041c0 <cdcd_control_xfer_cb+0x28>
200041bc:	0010      	movs	r0, r2
200041be:	bd70      	pop	{r4, r5, r6, pc}
200041c0:	784b      	ldrb	r3, [r1, #1]
200041c2:	2b22      	cmp	r3, #34	@ 0x22
200041c4:	d01c      	beq.n	20004200 <cdcd_control_xfer_cb+0x68>
200041c6:	d808      	bhi.n	200041da <cdcd_control_xfer_cb+0x42>
200041c8:	2b20      	cmp	r3, #32
200041ca:	d039      	beq.n	20004240 <cdcd_control_xfer_cb+0xa8>
200041cc:	2b21      	cmp	r3, #33	@ 0x21
200041ce:	d1f5      	bne.n	200041bc <cdcd_control_xfer_cb+0x24>
200041d0:	4663      	mov	r3, ip
200041d2:	2b01      	cmp	r3, #1
200041d4:	d043      	beq.n	2000425e <cdcd_control_xfer_cb+0xc6>
200041d6:	2201      	movs	r2, #1
200041d8:	e7f0      	b.n	200041bc <cdcd_control_xfer_cb+0x24>
200041da:	2b23      	cmp	r3, #35	@ 0x23
200041dc:	d1ee      	bne.n	200041bc <cdcd_control_xfer_cb+0x24>
200041de:	4663      	mov	r3, ip
200041e0:	2b01      	cmp	r3, #1
200041e2:	d042      	beq.n	2000426a <cdcd_control_xfer_cb+0xd2>
200041e4:	2b03      	cmp	r3, #3
200041e6:	d1f6      	bne.n	200041d6 <cdcd_control_xfer_cb+0x3e>
200041e8:	4b23      	ldr	r3, [pc, #140]	@ (20004278 <cdcd_control_xfer_cb+0xe0>)
200041ea:	2b00      	cmp	r3, #0
200041ec:	d0f3      	beq.n	200041d6 <cdcd_control_xfer_cb+0x3e>
200041ee:	788b      	ldrb	r3, [r1, #2]
200041f0:	78c9      	ldrb	r1, [r1, #3]
200041f2:	2000      	movs	r0, #0
200041f4:	0209      	lsls	r1, r1, #8
200041f6:	4319      	orrs	r1, r3
200041f8:	e000      	b.n	200041fc <cdcd_control_xfer_cb+0x64>
200041fa:	bf00      	nop
200041fc:	2201      	movs	r2, #1
200041fe:	e7dd      	b.n	200041bc <cdcd_control_xfer_cb+0x24>
20004200:	4663      	mov	r3, ip
20004202:	2b01      	cmp	r3, #1
20004204:	d031      	beq.n	2000426a <cdcd_control_xfer_cb+0xd2>
20004206:	2b03      	cmp	r3, #3
20004208:	d1e5      	bne.n	200041d6 <cdcd_control_xfer_cb+0x3e>
2000420a:	2501      	movs	r5, #1
2000420c:	78cb      	ldrb	r3, [r1, #3]
2000420e:	788a      	ldrb	r2, [r1, #2]
20004210:	021b      	lsls	r3, r3, #8
20004212:	4313      	orrs	r3, r2
20004214:	001c      	movs	r4, r3
20004216:	401d      	ands	r5, r3
20004218:	0033      	movs	r3, r6
2000421a:	2101      	movs	r1, #1
2000421c:	3324      	adds	r3, #36	@ 0x24
2000421e:	0018      	movs	r0, r3
20004220:	4069      	eors	r1, r5
20004222:	7134      	strb	r4, [r6, #4]
20004224:	f000 fdea 	bl	20004dfc <tu_fifo_set_overwritable>
20004228:	4b14      	ldr	r3, [pc, #80]	@ (2000427c <cdcd_control_xfer_cb+0xe4>)
2000422a:	2b00      	cmp	r3, #0
2000422c:	d0d3      	beq.n	200041d6 <cdcd_control_xfer_cb+0x3e>
2000422e:	2301      	movs	r3, #1
20004230:	0862      	lsrs	r2, r4, #1
20004232:	401a      	ands	r2, r3
20004234:	0029      	movs	r1, r5
20004236:	2000      	movs	r0, #0
20004238:	e000      	b.n	2000423c <cdcd_control_xfer_cb+0xa4>
2000423a:	bf00      	nop
2000423c:	2201      	movs	r2, #1
2000423e:	e7bd      	b.n	200041bc <cdcd_control_xfer_cb+0x24>
20004240:	4663      	mov	r3, ip
20004242:	2b01      	cmp	r3, #1
20004244:	d00b      	beq.n	2000425e <cdcd_control_xfer_cb+0xc6>
20004246:	2b03      	cmp	r3, #3
20004248:	d1c5      	bne.n	200041d6 <cdcd_control_xfer_cb+0x3e>
2000424a:	4b0d      	ldr	r3, [pc, #52]	@ (20004280 <cdcd_control_xfer_cb+0xe8>)
2000424c:	2b00      	cmp	r3, #0
2000424e:	d0c2      	beq.n	200041d6 <cdcd_control_xfer_cb+0x3e>
20004250:	0031      	movs	r1, r6
20004252:	2000      	movs	r0, #0
20004254:	3108      	adds	r1, #8
20004256:	f7fe fab9 	bl	200027cc <tud_cdc_line_coding_cb>
2000425a:	2201      	movs	r2, #1
2000425c:	e7ae      	b.n	200041bc <cdcd_control_xfer_cb+0x24>
2000425e:	4a09      	ldr	r2, [pc, #36]	@ (20004284 <cdcd_control_xfer_cb+0xec>)
20004260:	2307      	movs	r3, #7
20004262:	f7ff fcef 	bl	20003c44 <tud_control_xfer>
20004266:	2201      	movs	r2, #1
20004268:	e7a8      	b.n	200041bc <cdcd_control_xfer_cb+0x24>
2000426a:	f7ff fcd5 	bl	20003c18 <tud_control_status>
2000426e:	2201      	movs	r2, #1
20004270:	e7a4      	b.n	200041bc <cdcd_control_xfer_cb+0x24>
20004272:	46c0      	nop			@ (mov r8, r8)
20004274:	20005600 	.word	0x20005600
	...
20004280:	200027cd 	.word	0x200027cd
20004284:	20005608 	.word	0x20005608

20004288 <cdcd_xfer_cb>:
20004288:	b5f8      	push	{r3, r4, r5, r6, r7, lr}
2000428a:	4647      	mov	r7, r8
2000428c:	46ce      	mov	lr, r9
2000428e:	b580      	push	{r7, lr}
20004290:	4c34      	ldr	r4, [pc, #208]	@ (20004364 <cdcd_xfer_cb+0xdc>)
20004292:	001f      	movs	r7, r3
20004294:	78e3      	ldrb	r3, [r4, #3]
20004296:	4680      	mov	r8, r0
20004298:	000d      	movs	r5, r1
2000429a:	428b      	cmp	r3, r1
2000429c:	d03b      	beq.n	20004316 <cdcd_xfer_cb+0x8e>
2000429e:	78a3      	ldrb	r3, [r4, #2]
200042a0:	2000      	movs	r0, #0
200042a2:	428b      	cmp	r3, r1
200042a4:	d011      	beq.n	200042ca <cdcd_xfer_cb+0x42>
200042a6:	bcc0      	pop	{r6, r7}
200042a8:	46b9      	mov	r9, r7
200042aa:	46b0      	mov	r8, r6
200042ac:	bdf8      	pop	{r3, r4, r5, r6, r7, pc}
200042ae:	4b2e      	ldr	r3, [pc, #184]	@ (20004368 <cdcd_xfer_cb+0xe0>)
200042b0:	2b00      	cmp	r3, #0
200042b2:	d004      	beq.n	200042be <cdcd_xfer_cb+0x36>
200042b4:	482d      	ldr	r0, [pc, #180]	@ (2000436c <cdcd_xfer_cb+0xe4>)
200042b6:	f000 fb99 	bl	200049ec <tu_fifo_empty>
200042ba:	2800      	cmp	r0, #0
200042bc:	d04f      	beq.n	2000435e <cdcd_xfer_cb+0xd6>
200042be:	2000      	movs	r0, #0
200042c0:	f7ff fda2 	bl	20003e08 <_prep_out_transaction.isra.0>
200042c4:	78a3      	ldrb	r3, [r4, #2]
200042c6:	42ab      	cmp	r3, r5
200042c8:	d10a      	bne.n	200042e0 <cdcd_xfer_cb+0x58>
200042ca:	4b29      	ldr	r3, [pc, #164]	@ (20004370 <cdcd_xfer_cb+0xe8>)
200042cc:	2b00      	cmp	r3, #0
200042ce:	d002      	beq.n	200042d6 <cdcd_xfer_cb+0x4e>
200042d0:	2000      	movs	r0, #0
200042d2:	e000      	b.n	200042d6 <cdcd_xfer_cb+0x4e>
200042d4:	bf00      	nop
200042d6:	2000      	movs	r0, #0
200042d8:	f7ff fe30 	bl	20003f3c <tud_cdc_n_write_flush>
200042dc:	2800      	cmp	r0, #0
200042de:	d001      	beq.n	200042e4 <cdcd_xfer_cb+0x5c>
200042e0:	2001      	movs	r0, #1
200042e2:	e7e0      	b.n	200042a6 <cdcd_xfer_cb+0x1e>
200042e4:	4c23      	ldr	r4, [pc, #140]	@ (20004374 <cdcd_xfer_cb+0xec>)
200042e6:	0020      	movs	r0, r4
200042e8:	f000 fb6a 	bl	200049c0 <tu_fifo_count>
200042ec:	2800      	cmp	r0, #0
200042ee:	d1f7      	bne.n	200042e0 <cdcd_xfer_cb+0x58>
200042f0:	2f00      	cmp	r7, #0
200042f2:	d0f5      	beq.n	200042e0 <cdcd_xfer_cb+0x58>
200042f4:	06bb      	lsls	r3, r7, #26
200042f6:	d1f3      	bne.n	200042e0 <cdcd_xfer_cb+0x58>
200042f8:	3c24      	subs	r4, #36	@ 0x24
200042fa:	4640      	mov	r0, r8
200042fc:	78a1      	ldrb	r1, [r4, #2]
200042fe:	f7ff fc3b 	bl	20003b78 <usbd_edpt_claim>
20004302:	2800      	cmp	r0, #0
20004304:	d0ec      	beq.n	200042e0 <cdcd_xfer_cb+0x58>
20004306:	2300      	movs	r3, #0
20004308:	2200      	movs	r2, #0
2000430a:	4640      	mov	r0, r8
2000430c:	78a1      	ldrb	r1, [r4, #2]
2000430e:	f7ff fc5b 	bl	20003bc8 <usbd_edpt_xfer>
20004312:	2001      	movs	r0, #1
20004314:	e7c7      	b.n	200042a6 <cdcd_xfer_cb+0x1e>
20004316:	4e18      	ldr	r6, [pc, #96]	@ (20004378 <cdcd_xfer_cb+0xf0>)
20004318:	4814      	ldr	r0, [pc, #80]	@ (2000436c <cdcd_xfer_cb+0xe4>)
2000431a:	0031      	movs	r1, r6
2000431c:	b2ba      	uxth	r2, r7
2000431e:	f000 fc99 	bl	20004c54 <tu_fifo_write_n>
20004322:	4b16      	ldr	r3, [pc, #88]	@ (2000437c <cdcd_xfer_cb+0xf4>)
20004324:	2b00      	cmp	r3, #0
20004326:	d0c2      	beq.n	200042ae <cdcd_xfer_cb+0x26>
20004328:	7963      	ldrb	r3, [r4, #5]
2000432a:	2bff      	cmp	r3, #255	@ 0xff
2000432c:	d0bf      	beq.n	200042ae <cdcd_xfer_cb+0x26>
2000432e:	2f00      	cmp	r7, #0
20004330:	d0bd      	beq.n	200042ae <cdcd_xfer_cb+0x26>
20004332:	46bc      	mov	ip, r7
20004334:	44b4      	add	ip, r6
20004336:	46e1      	mov	r9, ip
20004338:	e003      	b.n	20004342 <cdcd_xfer_cb+0xba>
2000433a:	3601      	adds	r6, #1
2000433c:	454e      	cmp	r6, r9
2000433e:	d0b6      	beq.n	200042ae <cdcd_xfer_cb+0x26>
20004340:	7963      	ldrb	r3, [r4, #5]
20004342:	7832      	ldrb	r2, [r6, #0]
20004344:	429a      	cmp	r2, r3
20004346:	d1f8      	bne.n	2000433a <cdcd_xfer_cb+0xb2>
20004348:	4808      	ldr	r0, [pc, #32]	@ (2000436c <cdcd_xfer_cb+0xe4>)
2000434a:	f000 fb4f 	bl	200049ec <tu_fifo_empty>
2000434e:	2800      	cmp	r0, #0
20004350:	d1f3      	bne.n	2000433a <cdcd_xfer_cb+0xb2>
20004352:	4b06      	ldr	r3, [pc, #24]	@ (2000436c <cdcd_xfer_cb+0xe4>)
20004354:	3b10      	subs	r3, #16
20004356:	7959      	ldrb	r1, [r3, #5]
20004358:	e000      	b.n	2000435c <cdcd_xfer_cb+0xd4>
2000435a:	bf00      	nop
2000435c:	e7ed      	b.n	2000433a <cdcd_xfer_cb+0xb2>
2000435e:	e000      	b.n	20004362 <cdcd_xfer_cb+0xda>
20004360:	bf00      	nop
20004362:	e7ac      	b.n	200042be <cdcd_xfer_cb+0x36>
20004364:	20005600 	.word	0x20005600
20004368:	00000000 	.word	0x00000000
2000436c:	20005610 	.word	0x20005610
20004370:	00000000 	.word	0x00000000
20004374:	20005624 	.word	0x20005624
20004378:	20005a54 	.word	0x20005a54
2000437c:	00000000 	.word	0x00000000

20004380 <vendord_init>:
20004380:	2293      	movs	r2, #147	@ 0x93
20004382:	b5f0      	push	{r4, r5, r6, r7, lr}
20004384:	4c13      	ldr	r4, [pc, #76]	@ (200043d4 <vendord_init+0x54>)
20004386:	b085      	sub	sp, #20
20004388:	2100      	movs	r1, #0
2000438a:	0020      	movs	r0, r4
2000438c:	0092      	lsls	r2, r2, #2
2000438e:	f7fe f819 	bl	200023c4 <__wrap_memset>
20004392:	0023      	movs	r3, r4
20004394:	0020      	movs	r0, r4
20004396:	2680      	movs	r6, #128	@ 0x80
20004398:	2740      	movs	r7, #64	@ 0x40
2000439a:	4d0f      	ldr	r5, [pc, #60]	@ (200043d8 <vendord_init+0x58>)
2000439c:	334d      	adds	r3, #77	@ 0x4d
2000439e:	0076      	lsls	r6, r6, #1
200043a0:	33ff      	adds	r3, #255	@ 0xff
200043a2:	3029      	adds	r0, #41	@ 0x29
200043a4:	9502      	str	r5, [sp, #8]
200043a6:	9300      	str	r3, [sp, #0]
200043a8:	2200      	movs	r2, #0
200043aa:	2300      	movs	r3, #0
200043ac:	2100      	movs	r1, #0
200043ae:	9703      	str	r7, [sp, #12]
200043b0:	9601      	str	r6, [sp, #4]
200043b2:	30ff      	adds	r0, #255	@ 0xff
200043b4:	f000 f9c4 	bl	20004740 <tu_edpt_stream_init>
200043b8:	3540      	adds	r5, #64	@ 0x40
200043ba:	1d20      	adds	r0, r4, #4
200043bc:	3428      	adds	r4, #40	@ 0x28
200043be:	2300      	movs	r3, #0
200043c0:	2201      	movs	r2, #1
200043c2:	2100      	movs	r1, #0
200043c4:	9703      	str	r7, [sp, #12]
200043c6:	9502      	str	r5, [sp, #8]
200043c8:	9601      	str	r6, [sp, #4]
200043ca:	9400      	str	r4, [sp, #0]
200043cc:	f000 f9b8 	bl	20004740 <tu_edpt_stream_init>
200043d0:	b005      	add	sp, #20
200043d2:	bdf0      	pop	{r4, r5, r6, r7, pc}
200043d4:	20005cdc 	.word	0x20005cdc
200043d8:	20005c5c 	.word	0x20005c5c

200043dc <vendord_deinit>:
200043dc:	b510      	push	{r4, lr}
200043de:	4c05      	ldr	r4, [pc, #20]	@ (200043f4 <vendord_deinit+0x18>)
200043e0:	0020      	movs	r0, r4
200043e2:	f000 f9e1 	bl	200047a8 <tu_edpt_stream_deinit>
200043e6:	0020      	movs	r0, r4
200043e8:	3825      	subs	r0, #37	@ 0x25
200043ea:	38ff      	subs	r0, #255	@ 0xff
200043ec:	f000 f9dc 	bl	200047a8 <tu_edpt_stream_deinit>
200043f0:	2001      	movs	r0, #1
200043f2:	bd10      	pop	{r4, pc}
200043f4:	20005e04 	.word	0x20005e04

200043f8 <vendord_reset>:
200043f8:	b570      	push	{r4, r5, r6, lr}
200043fa:	4c08      	ldr	r4, [pc, #32]	@ (2000441c <vendord_reset+0x24>)
200043fc:	2500      	movs	r5, #0
200043fe:	0020      	movs	r0, r4
20004400:	3031      	adds	r0, #49	@ 0x31
20004402:	30ff      	adds	r0, #255	@ 0xff
20004404:	7025      	strb	r5, [r4, #0]
20004406:	f000 fcd9 	bl	20004dbc <tu_fifo_clear>
2000440a:	0020      	movs	r0, r4
2000440c:	300c      	adds	r0, #12
2000440e:	f000 fcd5 	bl	20004dbc <tu_fifo_clear>
20004412:	232a      	movs	r3, #42	@ 0x2a
20004414:	33ff      	adds	r3, #255	@ 0xff
20004416:	54e5      	strb	r5, [r4, r3]
20004418:	7165      	strb	r5, [r4, #5]
2000441a:	bd70      	pop	{r4, r5, r6, pc}
2000441c:	20005cdc 	.word	0x20005cdc

20004420 <vendord_open>:
20004420:	b5f8      	push	{r3, r4, r5, r6, r7, lr}
20004422:	46ce      	mov	lr, r9
20004424:	4647      	mov	r7, r8
20004426:	b580      	push	{r7, lr}
20004428:	794b      	ldrb	r3, [r1, #5]
2000442a:	4680      	mov	r8, r0
2000442c:	4689      	mov	r9, r1
2000442e:	2bff      	cmp	r3, #255	@ 0xff
20004430:	d106      	bne.n	20004440 <vendord_open+0x20>
20004432:	232a      	movs	r3, #42	@ 0x2a
20004434:	4f37      	ldr	r7, [pc, #220]	@ (20004514 <vendord_open+0xf4>)
20004436:	33ff      	adds	r3, #255	@ 0xff
20004438:	797e      	ldrb	r6, [r7, #5]
2000443a:	5cfb      	ldrb	r3, [r7, r3]
2000443c:	431e      	orrs	r6, r3
2000443e:	d004      	beq.n	2000444a <vendord_open+0x2a>
20004440:	2000      	movs	r0, #0
20004442:	bcc0      	pop	{r6, r7}
20004444:	46b9      	mov	r9, r7
20004446:	46b0      	mov	r8, r6
20004448:	bdf8      	pop	{r3, r4, r5, r6, r7, pc}
2000444a:	788b      	ldrb	r3, [r1, #2]
2000444c:	780c      	ldrb	r4, [r1, #0]
2000444e:	703b      	strb	r3, [r7, #0]
20004450:	790b      	ldrb	r3, [r1, #4]
20004452:	190c      	adds	r4, r1, r4
20004454:	2b00      	cmp	r3, #0
20004456:	d03c      	beq.n	200044d2 <vendord_open+0xb2>
20004458:	18a5      	adds	r5, r4, r2
2000445a:	e003      	b.n	20004464 <vendord_open+0x44>
2000445c:	42ac      	cmp	r4, r5
2000445e:	d238      	bcs.n	200044d2 <vendord_open+0xb2>
20004460:	7823      	ldrb	r3, [r4, #0]
20004462:	18e4      	adds	r4, r4, r3
20004464:	7863      	ldrb	r3, [r4, #1]
20004466:	2b05      	cmp	r3, #5
20004468:	d1f8      	bne.n	2000445c <vendord_open+0x3c>
2000446a:	42ac      	cmp	r4, r5
2000446c:	d231      	bcs.n	200044d2 <vendord_open+0xb2>
2000446e:	0021      	movs	r1, r4
20004470:	4640      	mov	r0, r8
20004472:	f7ff fb67 	bl	20003b44 <usbd_edpt_open>
20004476:	2800      	cmp	r0, #0
20004478:	d0e2      	beq.n	20004440 <vendord_open+0x20>
2000447a:	78a3      	ldrb	r3, [r4, #2]
2000447c:	09db      	lsrs	r3, r3, #7
2000447e:	2b01      	cmp	r3, #1
20004480:	d02b      	beq.n	200044da <vendord_open+0xba>
20004482:	4825      	ldr	r0, [pc, #148]	@ (20004518 <vendord_open+0xf8>)
20004484:	f000 fc9a 	bl	20004dbc <tu_fifo_clear>
20004488:	232a      	movs	r3, #42	@ 0x2a
2000448a:	78a2      	ldrb	r2, [r4, #2]
2000448c:	33ff      	adds	r3, #255	@ 0xff
2000448e:	54fa      	strb	r2, [r7, r3]
20004490:	7963      	ldrb	r3, [r4, #5]
20004492:	7922      	ldrb	r2, [r4, #4]
20004494:	021b      	lsls	r3, r3, #8
20004496:	4313      	orrs	r3, r2
20004498:	2194      	movs	r1, #148	@ 0x94
2000449a:	4a20      	ldr	r2, [pc, #128]	@ (2000451c <vendord_open+0xfc>)
2000449c:	055b      	lsls	r3, r3, #21
2000449e:	0d5b      	lsrs	r3, r3, #21
200044a0:	189b      	adds	r3, r3, r2
200044a2:	425a      	negs	r2, r3
200044a4:	4153      	adcs	r3, r2
200044a6:	2002      	movs	r0, #2
200044a8:	0049      	lsls	r1, r1, #1
200044aa:	5c7a      	ldrb	r2, [r7, r1]
200044ac:	005b      	lsls	r3, r3, #1
200044ae:	4382      	bics	r2, r0
200044b0:	4313      	orrs	r3, r2
200044b2:	547b      	strb	r3, [r7, r1]
200044b4:	4918      	ldr	r1, [pc, #96]	@ (20004518 <vendord_open+0xf8>)
200044b6:	4640      	mov	r0, r8
200044b8:	3908      	subs	r1, #8
200044ba:	f000 f9df 	bl	2000487c <tu_edpt_stream_read_xfer>
200044be:	2800      	cmp	r0, #0
200044c0:	d0be      	beq.n	20004440 <vendord_open+0x20>
200044c2:	7823      	ldrb	r3, [r4, #0]
200044c4:	3601      	adds	r6, #1
200044c6:	18e4      	adds	r4, r4, r3
200044c8:	464b      	mov	r3, r9
200044ca:	791b      	ldrb	r3, [r3, #4]
200044cc:	b2f6      	uxtb	r6, r6
200044ce:	42b3      	cmp	r3, r6
200044d0:	d8c8      	bhi.n	20004464 <vendord_open+0x44>
200044d2:	464b      	mov	r3, r9
200044d4:	1ae0      	subs	r0, r4, r3
200044d6:	b280      	uxth	r0, r0
200044d8:	e7b3      	b.n	20004442 <vendord_open+0x22>
200044da:	4811      	ldr	r0, [pc, #68]	@ (20004520 <vendord_open+0x100>)
200044dc:	f000 fc6e 	bl	20004dbc <tu_fifo_clear>
200044e0:	4a0f      	ldr	r2, [pc, #60]	@ (20004520 <vendord_open+0x100>)
200044e2:	78a3      	ldrb	r3, [r4, #2]
200044e4:	3a0c      	subs	r2, #12
200044e6:	7153      	strb	r3, [r2, #5]
200044e8:	7963      	ldrb	r3, [r4, #5]
200044ea:	7921      	ldrb	r1, [r4, #4]
200044ec:	021b      	lsls	r3, r3, #8
200044ee:	430b      	orrs	r3, r1
200044f0:	055b      	lsls	r3, r3, #21
200044f2:	490a      	ldr	r1, [pc, #40]	@ (2000451c <vendord_open+0xfc>)
200044f4:	0d5b      	lsrs	r3, r3, #21
200044f6:	185b      	adds	r3, r3, r1
200044f8:	4259      	negs	r1, r3
200044fa:	414b      	adcs	r3, r1
200044fc:	2002      	movs	r0, #2
200044fe:	7911      	ldrb	r1, [r2, #4]
20004500:	005b      	lsls	r3, r3, #1
20004502:	4381      	bics	r1, r0
20004504:	430b      	orrs	r3, r1
20004506:	4906      	ldr	r1, [pc, #24]	@ (20004520 <vendord_open+0x100>)
20004508:	2000      	movs	r0, #0
2000450a:	3908      	subs	r1, #8
2000450c:	7113      	strb	r3, [r2, #4]
2000450e:	f000 f97f 	bl	20004810 <tu_edpt_stream_write_xfer>
20004512:	e7d6      	b.n	200044c2 <vendord_open+0xa2>
20004514:	20005cdc 	.word	0x20005cdc
20004518:	20005e0c 	.word	0x20005e0c
2000451c:	fffffe00 	.word	0xfffffe00
20004520:	20005ce8 	.word	0x20005ce8

20004524 <vendord_xfer_cb>:
20004524:	b570      	push	{r4, r5, r6, lr}
20004526:	001d      	movs	r5, r3
20004528:	232a      	movs	r3, #42	@ 0x2a
2000452a:	0004      	movs	r4, r0
2000452c:	481f      	ldr	r0, [pc, #124]	@ (200045ac <vendord_xfer_cb+0x88>)
2000452e:	33ff      	adds	r3, #255	@ 0xff
20004530:	5cc3      	ldrb	r3, [r0, r3]
20004532:	428b      	cmp	r3, r1
20004534:	d016      	beq.n	20004564 <vendord_xfer_cb+0x40>
20004536:	7940      	ldrb	r0, [r0, #5]
20004538:	4288      	cmp	r0, r1
2000453a:	d001      	beq.n	20004540 <vendord_xfer_cb+0x1c>
2000453c:	2000      	movs	r0, #0
2000453e:	bd70      	pop	{r4, r5, r6, pc}
20004540:	4b1b      	ldr	r3, [pc, #108]	@ (200045b0 <vendord_xfer_cb+0x8c>)
20004542:	2b00      	cmp	r3, #0
20004544:	d004      	beq.n	20004550 <vendord_xfer_cb+0x2c>
20004546:	0429      	lsls	r1, r5, #16
20004548:	2000      	movs	r0, #0
2000454a:	0c09      	lsrs	r1, r1, #16
2000454c:	e000      	b.n	20004550 <vendord_xfer_cb+0x2c>
2000454e:	bf00      	nop
20004550:	4b18      	ldr	r3, [pc, #96]	@ (200045b4 <vendord_xfer_cb+0x90>)
20004552:	0020      	movs	r0, r4
20004554:	0019      	movs	r1, r3
20004556:	001e      	movs	r6, r3
20004558:	f000 f95a 	bl	20004810 <tu_edpt_stream_write_xfer>
2000455c:	2800      	cmp	r0, #0
2000455e:	d01d      	beq.n	2000459c <vendord_xfer_cb+0x78>
20004560:	2001      	movs	r0, #1
20004562:	e7ec      	b.n	2000453e <vendord_xfer_cb+0x1a>
20004564:	239a      	movs	r3, #154	@ 0x9a
20004566:	005b      	lsls	r3, r3, #1
20004568:	5ac3      	ldrh	r3, [r0, r3]
2000456a:	2b00      	cmp	r3, #0
2000456c:	d10d      	bne.n	2000458a <vendord_xfer_cb+0x66>
2000456e:	4b12      	ldr	r3, [pc, #72]	@ (200045b8 <vendord_xfer_cb+0x94>)
20004570:	2b00      	cmp	r3, #0
20004572:	d004      	beq.n	2000457e <vendord_xfer_cb+0x5a>
20004574:	2000      	movs	r0, #0
20004576:	4911      	ldr	r1, [pc, #68]	@ (200045bc <vendord_xfer_cb+0x98>)
20004578:	b2aa      	uxth	r2, r5
2000457a:	e000      	b.n	2000457e <vendord_xfer_cb+0x5a>
2000457c:	bf00      	nop
2000457e:	0020      	movs	r0, r4
20004580:	490f      	ldr	r1, [pc, #60]	@ (200045c0 <vendord_xfer_cb+0x9c>)
20004582:	f000 f97b 	bl	2000487c <tu_edpt_stream_read_xfer>
20004586:	2001      	movs	r0, #1
20004588:	e7d9      	b.n	2000453e <vendord_xfer_cb+0x1a>
2000458a:	2396      	movs	r3, #150	@ 0x96
2000458c:	005b      	lsls	r3, r3, #1
2000458e:	58c1      	ldr	r1, [r0, r3]
20004590:	3031      	adds	r0, #49	@ 0x31
20004592:	b2aa      	uxth	r2, r5
20004594:	30ff      	adds	r0, #255	@ 0xff
20004596:	f000 fb5d 	bl	20004c54 <tu_fifo_write_n>
2000459a:	e7e8      	b.n	2000456e <vendord_xfer_cb+0x4a>
2000459c:	002a      	movs	r2, r5
2000459e:	0031      	movs	r1, r6
200045a0:	0020      	movs	r0, r4
200045a2:	f000 f903 	bl	200047ac <tu_edpt_stream_write_zlp_if_needed>
200045a6:	2001      	movs	r0, #1
200045a8:	e7c9      	b.n	2000453e <vendord_xfer_cb+0x1a>
200045aa:	46c0      	nop			@ (mov r8, r8)
200045ac:	20005cdc 	.word	0x20005cdc
200045b0:	00000000 	.word	0x00000000
200045b4:	20005ce0 	.word	0x20005ce0
200045b8:	00000000 	.word	0x00000000
200045bc:	20005c5c 	.word	0x20005c5c
200045c0:	20005e04 	.word	0x20005e04

200045c4 <tusb_rhport_init>:
200045c4:	b500      	push	{lr}
200045c6:	0003      	movs	r3, r0
200045c8:	b083      	sub	sp, #12
200045ca:	2900      	cmp	r1, #0
200045cc:	d010      	beq.n	200045f0 <tusb_rhport_init+0x2c>
200045ce:	2000      	movs	r0, #0
200045d0:	2b01      	cmp	r3, #1
200045d2:	d807      	bhi.n	200045e4 <tusb_rhport_init+0x20>
200045d4:	780a      	ldrb	r2, [r1, #0]
200045d6:	2a00      	cmp	r2, #0
200045d8:	d004      	beq.n	200045e4 <tusb_rhport_init+0x20>
200045da:	480c      	ldr	r0, [pc, #48]	@ (2000460c <tusb_rhport_init+0x48>)
200045dc:	54c2      	strb	r2, [r0, r3]
200045de:	2001      	movs	r0, #1
200045e0:	2a01      	cmp	r2, #1
200045e2:	d001      	beq.n	200045e8 <tusb_rhport_init+0x24>
200045e4:	b003      	add	sp, #12
200045e6:	bd00      	pop	{pc}
200045e8:	0018      	movs	r0, r3
200045ea:	f7fe fde9 	bl	200031c0 <tud_rhport_init>
200045ee:	e7f9      	b.n	200045e4 <tusb_rhport_init+0x20>
200045f0:	2301      	movs	r3, #1
200045f2:	466a      	mov	r2, sp
200045f4:	2000      	movs	r0, #0
200045f6:	a901      	add	r1, sp, #4
200045f8:	8093      	strh	r3, [r2, #4]
200045fa:	f7fe fde1 	bl	200031c0 <tud_rhport_init>
200045fe:	2800      	cmp	r0, #0
20004600:	d0f0      	beq.n	200045e4 <tusb_rhport_init+0x20>
20004602:	2201      	movs	r2, #1
20004604:	4b01      	ldr	r3, [pc, #4]	@ (2000460c <tusb_rhport_init+0x48>)
20004606:	701a      	strb	r2, [r3, #0]
20004608:	e7ec      	b.n	200045e4 <tusb_rhport_init+0x20>
2000460a:	46c0      	nop			@ (mov r8, r8)
2000460c:	20005b2c 	.word	0x20005b2c

20004610 <tu_edpt_claim>:
20004610:	b570      	push	{r4, r5, r6, lr}
20004612:	0004      	movs	r4, r0
20004614:	7823      	ldrb	r3, [r4, #0]
20004616:	0008      	movs	r0, r1
20004618:	07db      	lsls	r3, r3, #31
2000461a:	000e      	movs	r6, r1
2000461c:	0fdd      	lsrs	r5, r3, #31
2000461e:	2b00      	cmp	r3, #0
20004620:	d116      	bne.n	20004650 <tu_edpt_claim+0x40>
20004622:	7823      	ldrb	r3, [r4, #0]
20004624:	075b      	lsls	r3, r3, #29
20004626:	d501      	bpl.n	2000462c <tu_edpt_claim+0x1c>
20004628:	0028      	movs	r0, r5
2000462a:	bd70      	pop	{r4, r5, r6, pc}
2000462c:	2101      	movs	r1, #1
2000462e:	4249      	negs	r1, r1
20004630:	f7fb fe3c 	bl	200002ac <mutex_enter_timeout_ms>
20004634:	7823      	ldrb	r3, [r4, #0]
20004636:	07db      	lsls	r3, r3, #31
20004638:	0fdd      	lsrs	r5, r3, #31
2000463a:	2b00      	cmp	r3, #0
2000463c:	d10a      	bne.n	20004654 <tu_edpt_claim+0x44>
2000463e:	7823      	ldrb	r3, [r4, #0]
20004640:	075b      	lsls	r3, r3, #29
20004642:	d408      	bmi.n	20004656 <tu_edpt_claim+0x46>
20004644:	2204      	movs	r2, #4
20004646:	7823      	ldrb	r3, [r4, #0]
20004648:	2501      	movs	r5, #1
2000464a:	4313      	orrs	r3, r2
2000464c:	7023      	strb	r3, [r4, #0]
2000464e:	e002      	b.n	20004656 <tu_edpt_claim+0x46>
20004650:	2500      	movs	r5, #0
20004652:	e7e9      	b.n	20004628 <tu_edpt_claim+0x18>
20004654:	2500      	movs	r5, #0
20004656:	0030      	movs	r0, r6
20004658:	f7fb fe6e 	bl	20000338 <mutex_exit>
2000465c:	e7e4      	b.n	20004628 <tu_edpt_claim+0x18>
2000465e:	46c0      	nop			@ (mov r8, r8)

20004660 <tu_edpt_release>:
20004660:	b570      	push	{r4, r5, r6, lr}
20004662:	000d      	movs	r5, r1
20004664:	2101      	movs	r1, #1
20004666:	0004      	movs	r4, r0
20004668:	4249      	negs	r1, r1
2000466a:	0028      	movs	r0, r5
2000466c:	f7fb fe1e 	bl	200002ac <mutex_enter_timeout_ms>
20004670:	7823      	ldrb	r3, [r4, #0]
20004672:	075b      	lsls	r3, r3, #29
20004674:	0fde      	lsrs	r6, r3, #31
20004676:	2b00      	cmp	r3, #0
20004678:	db04      	blt.n	20004684 <tu_edpt_release+0x24>
2000467a:	0028      	movs	r0, r5
2000467c:	f7fb fe5c 	bl	20000338 <mutex_exit>
20004680:	0030      	movs	r0, r6
20004682:	bd70      	pop	{r4, r5, r6, pc}
20004684:	7823      	ldrb	r3, [r4, #0]
20004686:	07db      	lsls	r3, r3, #31
20004688:	d404      	bmi.n	20004694 <tu_edpt_release+0x34>
2000468a:	2204      	movs	r2, #4
2000468c:	7823      	ldrb	r3, [r4, #0]
2000468e:	4393      	bics	r3, r2
20004690:	7023      	strb	r3, [r4, #0]
20004692:	e7f2      	b.n	2000467a <tu_edpt_release+0x1a>
20004694:	2600      	movs	r6, #0
20004696:	e7f0      	b.n	2000467a <tu_edpt_release+0x1a>

20004698 <tu_edpt_validate>:
20004698:	7943      	ldrb	r3, [r0, #5]
2000469a:	7902      	ldrb	r2, [r0, #4]
2000469c:	021b      	lsls	r3, r3, #8
2000469e:	4313      	orrs	r3, r2
200046a0:	78c2      	ldrb	r2, [r0, #3]
200046a2:	055b      	lsls	r3, r3, #21
200046a4:	0792      	lsls	r2, r2, #30
200046a6:	0d5b      	lsrs	r3, r3, #21
200046a8:	0f92      	lsrs	r2, r2, #30
200046aa:	2a02      	cmp	r2, #2
200046ac:	d01a      	beq.n	200046e4 <tu_edpt_validate+0x4c>
200046ae:	2a03      	cmp	r2, #3
200046b0:	d00b      	beq.n	200046ca <tu_edpt_validate+0x32>
200046b2:	2000      	movs	r0, #0
200046b4:	2a01      	cmp	r2, #1
200046b6:	d107      	bne.n	200046c8 <tu_edpt_validate+0x30>
200046b8:	3902      	subs	r1, #2
200046ba:	424a      	negs	r2, r1
200046bc:	4151      	adcs	r1, r2
200046be:	4a10      	ldr	r2, [pc, #64]	@ (20004700 <tu_edpt_validate+0x68>)
200046c0:	1889      	adds	r1, r1, r2
200046c2:	4299      	cmp	r1, r3
200046c4:	4140      	adcs	r0, r0
200046c6:	b2c0      	uxtb	r0, r0
200046c8:	4770      	bx	lr
200046ca:	3902      	subs	r1, #2
200046cc:	1e4a      	subs	r2, r1, #1
200046ce:	4191      	sbcs	r1, r2
200046d0:	4a0c      	ldr	r2, [pc, #48]	@ (20004704 <tu_edpt_validate+0x6c>)
200046d2:	4249      	negs	r1, r1
200046d4:	4011      	ands	r1, r2
200046d6:	2280      	movs	r2, #128	@ 0x80
200046d8:	2000      	movs	r0, #0
200046da:	00d2      	lsls	r2, r2, #3
200046dc:	1889      	adds	r1, r1, r2
200046de:	4299      	cmp	r1, r3
200046e0:	4140      	adcs	r0, r0
200046e2:	e7f1      	b.n	200046c8 <tu_edpt_validate+0x30>
200046e4:	2902      	cmp	r1, #2
200046e6:	d004      	beq.n	200046f2 <tu_edpt_validate+0x5a>
200046e8:	2000      	movs	r0, #0
200046ea:	2240      	movs	r2, #64	@ 0x40
200046ec:	429a      	cmp	r2, r3
200046ee:	4140      	adcs	r0, r0
200046f0:	e7ea      	b.n	200046c8 <tu_edpt_validate+0x30>
200046f2:	4a05      	ldr	r2, [pc, #20]	@ (20004708 <tu_edpt_validate+0x70>)
200046f4:	1898      	adds	r0, r3, r2
200046f6:	4243      	negs	r3, r0
200046f8:	4158      	adcs	r0, r3
200046fa:	b2c0      	uxtb	r0, r0
200046fc:	e7e4      	b.n	200046c8 <tu_edpt_validate+0x30>
200046fe:	46c0      	nop			@ (mov r8, r8)
20004700:	000003ff 	.word	0x000003ff
20004704:	fffffc40 	.word	0xfffffc40
20004708:	fffffe00 	.word	0xfffffe00

2000470c <tu_edpt_bind_driver>:
2000470c:	4684      	mov	ip, r0
2000470e:	1888      	adds	r0, r1, r2
20004710:	b530      	push	{r4, r5, lr}
20004712:	001c      	movs	r4, r3
20004714:	4281      	cmp	r1, r0
20004716:	d206      	bcs.n	20004726 <tu_edpt_bind_driver+0x1a>
20004718:	784a      	ldrb	r2, [r1, #1]
2000471a:	2a05      	cmp	r2, #5
2000471c:	d004      	beq.n	20004728 <tu_edpt_bind_driver+0x1c>
2000471e:	780a      	ldrb	r2, [r1, #0]
20004720:	1889      	adds	r1, r1, r2
20004722:	4288      	cmp	r0, r1
20004724:	d8f8      	bhi.n	20004718 <tu_edpt_bind_driver+0xc>
20004726:	bd30      	pop	{r4, r5, pc}
20004728:	227f      	movs	r2, #127	@ 0x7f
2000472a:	788b      	ldrb	r3, [r1, #2]
2000472c:	401a      	ands	r2, r3
2000472e:	0052      	lsls	r2, r2, #1
20004730:	4462      	add	r2, ip
20004732:	09db      	lsrs	r3, r3, #7
20004734:	54d4      	strb	r4, [r2, r3]
20004736:	780a      	ldrb	r2, [r1, #0]
20004738:	1889      	adds	r1, r1, r2
2000473a:	4288      	cmp	r0, r1
2000473c:	d8ec      	bhi.n	20004718 <tu_edpt_bind_driver+0xc>
2000473e:	e7f2      	b.n	20004726 <tu_edpt_bind_driver+0x1a>

20004740 <tu_edpt_stream_init>:
20004740:	b5f0      	push	{r4, r5, r6, r7, lr}
20004742:	46c6      	mov	lr, r8
20004744:	b500      	push	{lr}
20004746:	b082      	sub	sp, #8
20004748:	4690      	mov	r8, r2
2000474a:	aa08      	add	r2, sp, #32
2000474c:	ca20      	ldmia	r2!, {r5}
2000474e:	0004      	movs	r4, r0
20004750:	8816      	ldrh	r6, [r2, #0]
20004752:	466a      	mov	r2, sp
20004754:	2001      	movs	r0, #1
20004756:	8d97      	ldrh	r7, [r2, #44]	@ 0x2c
20004758:	000a      	movs	r2, r1
2000475a:	7821      	ldrb	r1, [r4, #0]
2000475c:	4002      	ands	r2, r0
2000475e:	4381      	bics	r1, r0
20004760:	0020      	movs	r0, r4
20004762:	4311      	orrs	r1, r2
20004764:	7021      	strb	r1, [r4, #0]
20004766:	0032      	movs	r2, r6
20004768:	9300      	str	r3, [sp, #0]
2000476a:	0029      	movs	r1, r5
2000476c:	2301      	movs	r3, #1
2000476e:	3008      	adds	r0, #8
20004770:	f000 f8f0 	bl	20004954 <tu_fifo_config>
20004774:	2d00      	cmp	r5, #0
20004776:	d001      	beq.n	2000477c <tu_edpt_stream_init+0x3c>
20004778:	2e00      	cmp	r6, #0
2000477a:	d107      	bne.n	2000478c <tu_edpt_stream_init+0x4c>
2000477c:	2001      	movs	r0, #1
2000477e:	9b0a      	ldr	r3, [sp, #40]	@ 0x28
20004780:	8067      	strh	r7, [r4, #2]
20004782:	6063      	str	r3, [r4, #4]
20004784:	b002      	add	sp, #8
20004786:	bc80      	pop	{r7}
20004788:	46b8      	mov	r8, r7
2000478a:	bdf0      	pop	{r4, r5, r6, r7, pc}
2000478c:	0025      	movs	r5, r4
2000478e:	351c      	adds	r5, #28
20004790:	0028      	movs	r0, r5
20004792:	f7fc fe95 	bl	200014c0 <mutex_init>
20004796:	4642      	mov	r2, r8
20004798:	2300      	movs	r3, #0
2000479a:	2a00      	cmp	r2, #0
2000479c:	d001      	beq.n	200047a2 <tu_edpt_stream_init+0x62>
2000479e:	002b      	movs	r3, r5
200047a0:	2500      	movs	r5, #0
200047a2:	6163      	str	r3, [r4, #20]
200047a4:	61a5      	str	r5, [r4, #24]
200047a6:	e7e9      	b.n	2000477c <tu_edpt_stream_init+0x3c>

200047a8 <tu_edpt_stream_deinit>:
200047a8:	2001      	movs	r0, #1
200047aa:	4770      	bx	lr

200047ac <tu_edpt_stream_write_zlp_if_needed>:
200047ac:	b5f8      	push	{r3, r4, r5, r6, r7, lr}
200047ae:	2402      	movs	r4, #2
200047b0:	780b      	ldrb	r3, [r1, #0]
200047b2:	0007      	movs	r7, r0
200047b4:	401c      	ands	r4, r3
200047b6:	4263      	negs	r3, r4
200047b8:	415c      	adcs	r4, r3
200047ba:	0008      	movs	r0, r1
200047bc:	4b12      	ldr	r3, [pc, #72]	@ (20004808 <tu_edpt_stream_write_zlp_if_needed+0x5c>)
200047be:	4264      	negs	r4, r4
200047c0:	401c      	ands	r4, r3
200047c2:	4b12      	ldr	r3, [pc, #72]	@ (2000480c <tu_edpt_stream_write_zlp_if_needed+0x60>)
200047c4:	3008      	adds	r0, #8
200047c6:	000d      	movs	r5, r1
200047c8:	0016      	movs	r6, r2
200047ca:	18e4      	adds	r4, r4, r3
200047cc:	f000 f8f8 	bl	200049c0 <tu_fifo_count>
200047d0:	2800      	cmp	r0, #0
200047d2:	d107      	bne.n	200047e4 <tu_edpt_stream_write_zlp_if_needed+0x38>
200047d4:	2e00      	cmp	r6, #0
200047d6:	d005      	beq.n	200047e4 <tu_edpt_stream_write_zlp_if_needed+0x38>
200047d8:	4234      	tst	r4, r6
200047da:	d103      	bne.n	200047e4 <tu_edpt_stream_write_zlp_if_needed+0x38>
200047dc:	2401      	movs	r4, #1
200047de:	782b      	ldrb	r3, [r5, #0]
200047e0:	421c      	tst	r4, r3
200047e2:	d001      	beq.n	200047e8 <tu_edpt_stream_write_zlp_if_needed+0x3c>
200047e4:	2000      	movs	r0, #0
200047e6:	bdf8      	pop	{r3, r4, r5, r6, r7, pc}
200047e8:	0038      	movs	r0, r7
200047ea:	7869      	ldrb	r1, [r5, #1]
200047ec:	f7ff f9c4 	bl	20003b78 <usbd_edpt_claim>
200047f0:	2800      	cmp	r0, #0
200047f2:	d0f7      	beq.n	200047e4 <tu_edpt_stream_write_zlp_if_needed+0x38>
200047f4:	782b      	ldrb	r3, [r5, #0]
200047f6:	421c      	tst	r4, r3
200047f8:	d1f4      	bne.n	200047e4 <tu_edpt_stream_write_zlp_if_needed+0x38>
200047fa:	2300      	movs	r3, #0
200047fc:	2200      	movs	r2, #0
200047fe:	0038      	movs	r0, r7
20004800:	7869      	ldrb	r1, [r5, #1]
20004802:	f7ff f9e1 	bl	20003bc8 <usbd_edpt_xfer>
20004806:	e7ee      	b.n	200047e6 <tu_edpt_stream_write_zlp_if_needed+0x3a>
20004808:	fffffe40 	.word	0xfffffe40
2000480c:	000001ff 	.word	0x000001ff

20004810 <tu_edpt_stream_write_xfer>:
20004810:	2308      	movs	r3, #8
20004812:	469c      	mov	ip, r3
20004814:	448c      	add	ip, r1
20004816:	b570      	push	{r4, r5, r6, lr}
20004818:	0005      	movs	r5, r0
2000481a:	4660      	mov	r0, ip
2000481c:	000c      	movs	r4, r1
2000481e:	4666      	mov	r6, ip
20004820:	f000 f8ce 	bl	200049c0 <tu_fifo_count>
20004824:	2800      	cmp	r0, #0
20004826:	d003      	beq.n	20004830 <tu_edpt_stream_write_xfer+0x20>
20004828:	2201      	movs	r2, #1
2000482a:	7823      	ldrb	r3, [r4, #0]
2000482c:	421a      	tst	r2, r3
2000482e:	d001      	beq.n	20004834 <tu_edpt_stream_write_xfer+0x24>
20004830:	2000      	movs	r0, #0
20004832:	bd70      	pop	{r4, r5, r6, pc}
20004834:	0028      	movs	r0, r5
20004836:	7861      	ldrb	r1, [r4, #1]
20004838:	f7ff f99e 	bl	20003b78 <usbd_edpt_claim>
2000483c:	2800      	cmp	r0, #0
2000483e:	d0f7      	beq.n	20004830 <tu_edpt_stream_write_xfer+0x20>
20004840:	8862      	ldrh	r2, [r4, #2]
20004842:	0030      	movs	r0, r6
20004844:	6861      	ldr	r1, [r4, #4]
20004846:	f000 f93d 	bl	20004ac4 <tu_fifo_read_n>
2000484a:	2201      	movs	r2, #1
2000484c:	7823      	ldrb	r3, [r4, #0]
2000484e:	4013      	ands	r3, r2
20004850:	2800      	cmp	r0, #0
20004852:	d00c      	beq.n	2000486e <tu_edpt_stream_write_xfer+0x5e>
20004854:	2b00      	cmp	r3, #0
20004856:	d1eb      	bne.n	20004830 <tu_edpt_stream_write_xfer+0x20>
20004858:	0003      	movs	r3, r0
2000485a:	6862      	ldr	r2, [r4, #4]
2000485c:	7861      	ldrb	r1, [r4, #1]
2000485e:	0004      	movs	r4, r0
20004860:	0028      	movs	r0, r5
20004862:	f7ff f9b1 	bl	20003bc8 <usbd_edpt_xfer>
20004866:	2800      	cmp	r0, #0
20004868:	d0e2      	beq.n	20004830 <tu_edpt_stream_write_xfer+0x20>
2000486a:	0020      	movs	r0, r4
2000486c:	e7e1      	b.n	20004832 <tu_edpt_stream_write_xfer+0x22>
2000486e:	2b00      	cmp	r3, #0
20004870:	d1de      	bne.n	20004830 <tu_edpt_stream_write_xfer+0x20>
20004872:	0028      	movs	r0, r5
20004874:	7861      	ldrb	r1, [r4, #1]
20004876:	f7ff f993 	bl	20003ba0 <usbd_edpt_release>
2000487a:	e7d9      	b.n	20004830 <tu_edpt_stream_write_xfer+0x20>

2000487c <tu_edpt_stream_read_xfer>:
2000487c:	b5f0      	push	{r4, r5, r6, r7, lr}
2000487e:	46c6      	mov	lr, r8
20004880:	b500      	push	{lr}
20004882:	898a      	ldrh	r2, [r1, #12]
20004884:	0006      	movs	r6, r0
20004886:	000c      	movs	r4, r1
20004888:	780b      	ldrb	r3, [r1, #0]
2000488a:	2a00      	cmp	r2, #0
2000488c:	d106      	bne.n	2000489c <tu_edpt_stream_read_xfer+0x20>
2000488e:	3201      	adds	r2, #1
20004890:	421a      	tst	r2, r3
20004892:	d040      	beq.n	20004916 <tu_edpt_stream_read_xfer+0x9a>
20004894:	2000      	movs	r0, #0
20004896:	bc80      	pop	{r7}
20004898:	46b8      	mov	r8, r7
2000489a:	bdf0      	pop	{r4, r5, r6, r7, pc}
2000489c:	079b      	lsls	r3, r3, #30
2000489e:	d434      	bmi.n	2000490a <tu_edpt_stream_read_xfer+0x8e>
200048a0:	4b2b      	ldr	r3, [pc, #172]	@ (20004950 <tu_edpt_stream_read_xfer+0xd4>)
200048a2:	2540      	movs	r5, #64	@ 0x40
200048a4:	4698      	mov	r8, r3
200048a6:	2308      	movs	r3, #8
200048a8:	469c      	mov	ip, r3
200048aa:	44a4      	add	ip, r4
200048ac:	4660      	mov	r0, ip
200048ae:	4667      	mov	r7, ip
200048b0:	f000 f8a4 	bl	200049fc <tu_fifo_remaining>
200048b4:	4285      	cmp	r5, r0
200048b6:	d8ed      	bhi.n	20004894 <tu_edpt_stream_read_xfer+0x18>
200048b8:	2201      	movs	r2, #1
200048ba:	7823      	ldrb	r3, [r4, #0]
200048bc:	421a      	tst	r2, r3
200048be:	d1e9      	bne.n	20004894 <tu_edpt_stream_read_xfer+0x18>
200048c0:	0030      	movs	r0, r6
200048c2:	7861      	ldrb	r1, [r4, #1]
200048c4:	f7ff f958 	bl	20003b78 <usbd_edpt_claim>
200048c8:	2800      	cmp	r0, #0
200048ca:	d0e3      	beq.n	20004894 <tu_edpt_stream_read_xfer+0x18>
200048cc:	0038      	movs	r0, r7
200048ce:	f000 f895 	bl	200049fc <tu_fifo_remaining>
200048d2:	2201      	movs	r2, #1
200048d4:	7823      	ldrb	r3, [r4, #0]
200048d6:	4013      	ands	r3, r2
200048d8:	4285      	cmp	r5, r0
200048da:	d832      	bhi.n	20004942 <tu_edpt_stream_read_xfer+0xc6>
200048dc:	2b00      	cmp	r3, #0
200048de:	d1d9      	bne.n	20004894 <tu_edpt_stream_read_xfer+0x18>
200048e0:	4641      	mov	r1, r8
200048e2:	8862      	ldrh	r2, [r4, #2]
200048e4:	4001      	ands	r1, r0
200048e6:	1c13      	adds	r3, r2, #0
200048e8:	428a      	cmp	r2, r1
200048ea:	d900      	bls.n	200048ee <tu_edpt_stream_read_xfer+0x72>
200048ec:	1c0b      	adds	r3, r1, #0
200048ee:	b29b      	uxth	r3, r3
200048f0:	2200      	movs	r2, #0
200048f2:	7861      	ldrb	r1, [r4, #1]
200048f4:	2b00      	cmp	r3, #0
200048f6:	d000      	beq.n	200048fa <tu_edpt_stream_read_xfer+0x7e>
200048f8:	6862      	ldr	r2, [r4, #4]
200048fa:	0030      	movs	r0, r6
200048fc:	001c      	movs	r4, r3
200048fe:	f7ff f963 	bl	20003bc8 <usbd_edpt_xfer>
20004902:	2800      	cmp	r0, #0
20004904:	d0c6      	beq.n	20004894 <tu_edpt_stream_read_xfer+0x18>
20004906:	0020      	movs	r0, r4
20004908:	e7c5      	b.n	20004896 <tu_edpt_stream_read_xfer+0x1a>
2000490a:	23fe      	movs	r3, #254	@ 0xfe
2000490c:	2580      	movs	r5, #128	@ 0x80
2000490e:	021b      	lsls	r3, r3, #8
20004910:	4698      	mov	r8, r3
20004912:	00ad      	lsls	r5, r5, #2
20004914:	e7c7      	b.n	200048a6 <tu_edpt_stream_read_xfer+0x2a>
20004916:	7849      	ldrb	r1, [r1, #1]
20004918:	f7ff f92e 	bl	20003b78 <usbd_edpt_claim>
2000491c:	2800      	cmp	r0, #0
2000491e:	d0b9      	beq.n	20004894 <tu_edpt_stream_read_xfer+0x18>
20004920:	2201      	movs	r2, #1
20004922:	7823      	ldrb	r3, [r4, #0]
20004924:	421a      	tst	r2, r3
20004926:	d1b5      	bne.n	20004894 <tu_edpt_stream_read_xfer+0x18>
20004928:	8863      	ldrh	r3, [r4, #2]
2000492a:	2200      	movs	r2, #0
2000492c:	7861      	ldrb	r1, [r4, #1]
2000492e:	2b00      	cmp	r3, #0
20004930:	d000      	beq.n	20004934 <tu_edpt_stream_read_xfer+0xb8>
20004932:	6862      	ldr	r2, [r4, #4]
20004934:	0030      	movs	r0, r6
20004936:	f7ff f947 	bl	20003bc8 <usbd_edpt_xfer>
2000493a:	2800      	cmp	r0, #0
2000493c:	d0aa      	beq.n	20004894 <tu_edpt_stream_read_xfer+0x18>
2000493e:	8860      	ldrh	r0, [r4, #2]
20004940:	e7a9      	b.n	20004896 <tu_edpt_stream_read_xfer+0x1a>
20004942:	2b00      	cmp	r3, #0
20004944:	d1a6      	bne.n	20004894 <tu_edpt_stream_read_xfer+0x18>
20004946:	0030      	movs	r0, r6
20004948:	7861      	ldrb	r1, [r4, #1]
2000494a:	f7ff f929 	bl	20003ba0 <usbd_edpt_release>
2000494e:	e7a1      	b.n	20004894 <tu_edpt_stream_read_xfer+0x18>
20004950:	0000ffc0 	.word	0x0000ffc0

20004954 <tu_fifo_config>:
20004954:	b5f0      	push	{r4, r5, r6, r7, lr}
20004956:	46c6      	mov	lr, r8
20004958:	b500      	push	{lr}
2000495a:	4698      	mov	r8, r3
2000495c:	466b      	mov	r3, sp
2000495e:	7e1e      	ldrb	r6, [r3, #24]
20004960:	2380      	movs	r3, #128	@ 0x80
20004962:	0004      	movs	r4, r0
20004964:	000f      	movs	r7, r1
20004966:	0015      	movs	r5, r2
20004968:	021b      	lsls	r3, r3, #8
2000496a:	429a      	cmp	r2, r3
2000496c:	d826      	bhi.n	200049bc <tu_fifo_config+0x68>
2000496e:	68c0      	ldr	r0, [r0, #12]
20004970:	2800      	cmp	r0, #0
20004972:	d003      	beq.n	2000497c <tu_fifo_config+0x28>
20004974:	2101      	movs	r1, #1
20004976:	4249      	negs	r1, r1
20004978:	f7fb fc98 	bl	200002ac <mutex_enter_timeout_ms>
2000497c:	6920      	ldr	r0, [r4, #16]
2000497e:	2800      	cmp	r0, #0
20004980:	d003      	beq.n	2000498a <tu_fifo_config+0x36>
20004982:	2101      	movs	r1, #1
20004984:	4249      	negs	r1, r1
20004986:	f7fb fc91 	bl	200002ac <mutex_enter_timeout_ms>
2000498a:	4642      	mov	r2, r8
2000498c:	0452      	lsls	r2, r2, #17
2000498e:	03f3      	lsls	r3, r6, #15
20004990:	0c52      	lsrs	r2, r2, #17
20004992:	4313      	orrs	r3, r2
20004994:	80e3      	strh	r3, [r4, #6]
20004996:	2300      	movs	r3, #0
20004998:	68e0      	ldr	r0, [r4, #12]
2000499a:	8163      	strh	r3, [r4, #10]
2000499c:	6027      	str	r7, [r4, #0]
2000499e:	80a5      	strh	r5, [r4, #4]
200049a0:	8123      	strh	r3, [r4, #8]
200049a2:	2800      	cmp	r0, #0
200049a4:	d001      	beq.n	200049aa <tu_fifo_config+0x56>
200049a6:	f7fb fcc7 	bl	20000338 <mutex_exit>
200049aa:	6920      	ldr	r0, [r4, #16]
200049ac:	2800      	cmp	r0, #0
200049ae:	d001      	beq.n	200049b4 <tu_fifo_config+0x60>
200049b0:	f7fb fcc2 	bl	20000338 <mutex_exit>
200049b4:	2001      	movs	r0, #1
200049b6:	bc80      	pop	{r7}
200049b8:	46b8      	mov	r8, r7
200049ba:	bdf0      	pop	{r4, r5, r6, r7, pc}
200049bc:	2000      	movs	r0, #0
200049be:	e7fa      	b.n	200049b6 <tu_fifo_config+0x62>

200049c0 <tu_fifo_count>:
200049c0:	8903      	ldrh	r3, [r0, #8]
200049c2:	8941      	ldrh	r1, [r0, #10]
200049c4:	469c      	mov	ip, r3
200049c6:	8882      	ldrh	r2, [r0, #4]
200049c8:	b29b      	uxth	r3, r3
200049ca:	b288      	uxth	r0, r1
200049cc:	458c      	cmp	ip, r1
200049ce:	d307      	bcc.n	200049e0 <tu_fifo_count+0x20>
200049d0:	1a1b      	subs	r3, r3, r0
200049d2:	b29b      	uxth	r3, r3
200049d4:	1c10      	adds	r0, r2, #0
200049d6:	429a      	cmp	r2, r3
200049d8:	d900      	bls.n	200049dc <tu_fifo_count+0x1c>
200049da:	1c18      	adds	r0, r3, #0
200049dc:	b280      	uxth	r0, r0
200049de:	4770      	bx	lr
200049e0:	0051      	lsls	r1, r2, #1
200049e2:	1a09      	subs	r1, r1, r0
200049e4:	185b      	adds	r3, r3, r1
200049e6:	b29b      	uxth	r3, r3
200049e8:	e7f4      	b.n	200049d4 <tu_fifo_count+0x14>
200049ea:	46c0      	nop			@ (mov r8, r8)

200049ec <tu_fifo_empty>:
200049ec:	8903      	ldrh	r3, [r0, #8]
200049ee:	8940      	ldrh	r0, [r0, #10]
200049f0:	1a18      	subs	r0, r3, r0
200049f2:	4243      	negs	r3, r0
200049f4:	4158      	adcs	r0, r3
200049f6:	b2c0      	uxtb	r0, r0
200049f8:	4770      	bx	lr
200049fa:	46c0      	nop			@ (mov r8, r8)

200049fc <tu_fifo_remaining>:
200049fc:	8903      	ldrh	r3, [r0, #8]
200049fe:	8941      	ldrh	r1, [r0, #10]
20004a00:	469c      	mov	ip, r3
20004a02:	8882      	ldrh	r2, [r0, #4]
20004a04:	b29b      	uxth	r3, r3
20004a06:	b288      	uxth	r0, r1
20004a08:	458c      	cmp	ip, r1
20004a0a:	d307      	bcc.n	20004a1c <tu_fifo_remaining+0x20>
20004a0c:	1a1b      	subs	r3, r3, r0
20004a0e:	b29b      	uxth	r3, r3
20004a10:	2000      	movs	r0, #0
20004a12:	429a      	cmp	r2, r3
20004a14:	d901      	bls.n	20004a1a <tu_fifo_remaining+0x1e>
20004a16:	1ad2      	subs	r2, r2, r3
20004a18:	b290      	uxth	r0, r2
20004a1a:	4770      	bx	lr
20004a1c:	0051      	lsls	r1, r2, #1
20004a1e:	1a09      	subs	r1, r1, r0
20004a20:	185b      	adds	r3, r3, r1
20004a22:	b29b      	uxth	r3, r3
20004a24:	e7f4      	b.n	20004a10 <tu_fifo_remaining+0x14>
20004a26:	46c0      	nop			@ (mov r8, r8)

20004a28 <tu_fifo_read>:
20004a28:	b570      	push	{r4, r5, r6, lr}
20004a2a:	0004      	movs	r4, r0
20004a2c:	6900      	ldr	r0, [r0, #16]
20004a2e:	000d      	movs	r5, r1
20004a30:	2800      	cmp	r0, #0
20004a32:	d003      	beq.n	20004a3c <tu_fifo_read+0x14>
20004a34:	2101      	movs	r1, #1
20004a36:	4249      	negs	r1, r1
20004a38:	f7fb fc38 	bl	200002ac <mutex_enter_timeout_ms>
20004a3c:	8923      	ldrh	r3, [r4, #8]
20004a3e:	8962      	ldrh	r2, [r4, #10]
20004a40:	469c      	mov	ip, r3
20004a42:	b298      	uxth	r0, r3
20004a44:	b291      	uxth	r1, r2
20004a46:	88a3      	ldrh	r3, [r4, #4]
20004a48:	4594      	cmp	ip, r2
20004a4a:	d332      	bcc.n	20004ab2 <tu_fifo_read+0x8a>
20004a4c:	1a42      	subs	r2, r0, r1
20004a4e:	b292      	uxth	r2, r2
20004a50:	2a00      	cmp	r2, #0
20004a52:	d027      	beq.n	20004aa4 <tu_fifo_read+0x7c>
20004a54:	4293      	cmp	r3, r2
20004a56:	d208      	bcs.n	20004a6a <tu_fifo_read+0x42>
20004a58:	4298      	cmp	r0, r3
20004a5a:	d32f      	bcc.n	20004abc <tu_fifo_read+0x94>
20004a5c:	1ac0      	subs	r0, r0, r3
20004a5e:	b281      	uxth	r1, r0
20004a60:	8161      	strh	r1, [r4, #10]
20004a62:	428b      	cmp	r3, r1
20004a64:	d803      	bhi.n	20004a6e <tu_fifo_read+0x46>
20004a66:	1ac9      	subs	r1, r1, r3
20004a68:	b289      	uxth	r1, r1
20004a6a:	428b      	cmp	r3, r1
20004a6c:	d9fb      	bls.n	20004a66 <tu_fifo_read+0x3e>
20004a6e:	88e2      	ldrh	r2, [r4, #6]
20004a70:	6823      	ldr	r3, [r4, #0]
20004a72:	0452      	lsls	r2, r2, #17
20004a74:	0c52      	lsrs	r2, r2, #17
20004a76:	4351      	muls	r1, r2
20004a78:	0028      	movs	r0, r5
20004a7a:	1859      	adds	r1, r3, r1
20004a7c:	f7fd fca8 	bl	200023d0 <__wrap___aeabi_memcpy>
20004a80:	8961      	ldrh	r1, [r4, #10]
20004a82:	2501      	movs	r5, #1
20004a84:	1c4a      	adds	r2, r1, #1
20004a86:	b292      	uxth	r2, r2
20004a88:	88a3      	ldrh	r3, [r4, #4]
20004a8a:	4291      	cmp	r1, r2
20004a8c:	d90d      	bls.n	20004aaa <tu_fifo_read+0x82>
20004a8e:	2200      	movs	r2, #0
20004a90:	005b      	lsls	r3, r3, #1
20004a92:	1ad2      	subs	r2, r2, r3
20004a94:	6920      	ldr	r0, [r4, #16]
20004a96:	8162      	strh	r2, [r4, #10]
20004a98:	2800      	cmp	r0, #0
20004a9a:	d001      	beq.n	20004aa0 <tu_fifo_read+0x78>
20004a9c:	f7fb fc4c 	bl	20000338 <mutex_exit>
20004aa0:	0028      	movs	r0, r5
20004aa2:	bd70      	pop	{r4, r5, r6, pc}
20004aa4:	2500      	movs	r5, #0
20004aa6:	8962      	ldrh	r2, [r4, #10]
20004aa8:	b292      	uxth	r2, r2
20004aaa:	005b      	lsls	r3, r3, #1
20004aac:	429a      	cmp	r2, r3
20004aae:	dbf1      	blt.n	20004a94 <tu_fifo_read+0x6c>
20004ab0:	e7ef      	b.n	20004a92 <tu_fifo_read+0x6a>
20004ab2:	005a      	lsls	r2, r3, #1
20004ab4:	1a52      	subs	r2, r2, r1
20004ab6:	1882      	adds	r2, r0, r2
20004ab8:	b292      	uxth	r2, r2
20004aba:	e7c9      	b.n	20004a50 <tu_fifo_read+0x28>
20004abc:	18c0      	adds	r0, r0, r3
20004abe:	b281      	uxth	r1, r0
20004ac0:	8161      	strh	r1, [r4, #10]
20004ac2:	e7ce      	b.n	20004a62 <tu_fifo_read+0x3a>

20004ac4 <tu_fifo_read_n>:
20004ac4:	b5f0      	push	{r4, r5, r6, r7, lr}
20004ac6:	4646      	mov	r6, r8
20004ac8:	46d6      	mov	lr, sl
20004aca:	464f      	mov	r7, r9
20004acc:	b5c0      	push	{r6, r7, lr}
20004ace:	0006      	movs	r6, r0
20004ad0:	6900      	ldr	r0, [r0, #16]
20004ad2:	468a      	mov	sl, r1
20004ad4:	4690      	mov	r8, r2
20004ad6:	b082      	sub	sp, #8
20004ad8:	2800      	cmp	r0, #0
20004ada:	d003      	beq.n	20004ae4 <tu_fifo_read_n+0x20>
20004adc:	2101      	movs	r1, #1
20004ade:	4249      	negs	r1, r1
20004ae0:	f7fb fbe4 	bl	200002ac <mutex_enter_timeout_ms>
20004ae4:	8931      	ldrh	r1, [r6, #8]
20004ae6:	8972      	ldrh	r2, [r6, #10]
20004ae8:	88b5      	ldrh	r5, [r6, #4]
20004aea:	b28b      	uxth	r3, r1
20004aec:	b294      	uxth	r4, r2
20004aee:	4291      	cmp	r1, r2
20004af0:	d355      	bcc.n	20004b9e <tu_fifo_read_n+0xda>
20004af2:	1b1f      	subs	r7, r3, r4
20004af4:	b2bf      	uxth	r7, r7
20004af6:	2f00      	cmp	r7, #0
20004af8:	d04b      	beq.n	20004b92 <tu_fifo_read_n+0xce>
20004afa:	42bd      	cmp	r5, r7
20004afc:	d205      	bcs.n	20004b0a <tu_fifo_read_n+0x46>
20004afe:	42ab      	cmp	r3, r5
20004b00:	d252      	bcs.n	20004ba8 <tu_fifo_read_n+0xe4>
20004b02:	195b      	adds	r3, r3, r5
20004b04:	b29c      	uxth	r4, r3
20004b06:	002f      	movs	r7, r5
20004b08:	8174      	strh	r4, [r6, #10]
20004b0a:	4643      	mov	r3, r8
20004b0c:	45b8      	cmp	r8, r7
20004b0e:	d83e      	bhi.n	20004b8e <tu_fifo_read_n+0xca>
20004b10:	b29f      	uxth	r7, r3
20004b12:	42a5      	cmp	r5, r4
20004b14:	d803      	bhi.n	20004b1e <tu_fifo_read_n+0x5a>
20004b16:	1b64      	subs	r4, r4, r5
20004b18:	b2a4      	uxth	r4, r4
20004b1a:	42a5      	cmp	r5, r4
20004b1c:	d9fb      	bls.n	20004b16 <tu_fifo_read_n+0x52>
20004b1e:	88f2      	ldrh	r2, [r6, #6]
20004b20:	6831      	ldr	r1, [r6, #0]
20004b22:	0452      	lsls	r2, r2, #17
20004b24:	0c50      	lsrs	r0, r2, #17
20004b26:	0002      	movs	r2, r0
20004b28:	4362      	muls	r2, r4
20004b2a:	1b2b      	subs	r3, r5, r4
20004b2c:	b29b      	uxth	r3, r3
20004b2e:	1889      	adds	r1, r1, r2
20004b30:	9001      	str	r0, [sp, #4]
20004b32:	0002      	movs	r2, r0
20004b34:	429f      	cmp	r7, r3
20004b36:	d925      	bls.n	20004b84 <tu_fifo_read_n+0xc0>
20004b38:	4343      	muls	r3, r0
20004b3a:	b29b      	uxth	r3, r3
20004b3c:	001a      	movs	r2, r3
20004b3e:	4650      	mov	r0, sl
20004b40:	4699      	mov	r9, r3
20004b42:	f7fd fc45 	bl	200023d0 <__wrap___aeabi_memcpy>
20004b46:	4650      	mov	r0, sl
20004b48:	9a01      	ldr	r2, [sp, #4]
20004b4a:	1b7d      	subs	r5, r7, r5
20004b4c:	1964      	adds	r4, r4, r5
20004b4e:	4354      	muls	r4, r2
20004b50:	6831      	ldr	r1, [r6, #0]
20004b52:	4448      	add	r0, r9
20004b54:	b2a2      	uxth	r2, r4
20004b56:	f7fd fc3b 	bl	200023d0 <__wrap___aeabi_memcpy>
20004b5a:	8971      	ldrh	r1, [r6, #10]
20004b5c:	88b5      	ldrh	r5, [r6, #4]
20004b5e:	19cb      	adds	r3, r1, r7
20004b60:	b29b      	uxth	r3, r3
20004b62:	006a      	lsls	r2, r5, #1
20004b64:	4299      	cmp	r1, r3
20004b66:	d916      	bls.n	20004b96 <tu_fifo_read_n+0xd2>
20004b68:	1a9b      	subs	r3, r3, r2
20004b6a:	6930      	ldr	r0, [r6, #16]
20004b6c:	8173      	strh	r3, [r6, #10]
20004b6e:	2800      	cmp	r0, #0
20004b70:	d001      	beq.n	20004b76 <tu_fifo_read_n+0xb2>
20004b72:	f7fb fbe1 	bl	20000338 <mutex_exit>
20004b76:	0038      	movs	r0, r7
20004b78:	b002      	add	sp, #8
20004b7a:	bce0      	pop	{r5, r6, r7}
20004b7c:	46ba      	mov	sl, r7
20004b7e:	46b1      	mov	r9, r6
20004b80:	46a8      	mov	r8, r5
20004b82:	bdf0      	pop	{r4, r5, r6, r7, pc}
20004b84:	4650      	mov	r0, sl
20004b86:	437a      	muls	r2, r7
20004b88:	f7fd fc22 	bl	200023d0 <__wrap___aeabi_memcpy>
20004b8c:	e7e5      	b.n	20004b5a <tu_fifo_read_n+0x96>
20004b8e:	1c3b      	adds	r3, r7, #0
20004b90:	e7be      	b.n	20004b10 <tu_fifo_read_n+0x4c>
20004b92:	8973      	ldrh	r3, [r6, #10]
20004b94:	b29b      	uxth	r3, r3
20004b96:	006a      	lsls	r2, r5, #1
20004b98:	4293      	cmp	r3, r2
20004b9a:	dbe6      	blt.n	20004b6a <tu_fifo_read_n+0xa6>
20004b9c:	e7e4      	b.n	20004b68 <tu_fifo_read_n+0xa4>
20004b9e:	006f      	lsls	r7, r5, #1
20004ba0:	1b3f      	subs	r7, r7, r4
20004ba2:	19df      	adds	r7, r3, r7
20004ba4:	b2bf      	uxth	r7, r7
20004ba6:	e7a6      	b.n	20004af6 <tu_fifo_read_n+0x32>
20004ba8:	1b5b      	subs	r3, r3, r5
20004baa:	b29c      	uxth	r4, r3
20004bac:	e7ab      	b.n	20004b06 <tu_fifo_read_n+0x42>
20004bae:	46c0      	nop			@ (mov r8, r8)

20004bb0 <tu_fifo_write>:
20004bb0:	b5f8      	push	{r3, r4, r5, r6, r7, lr}
20004bb2:	0004      	movs	r4, r0
20004bb4:	68c0      	ldr	r0, [r0, #12]
20004bb6:	000f      	movs	r7, r1
20004bb8:	2800      	cmp	r0, #0
20004bba:	d003      	beq.n	20004bc4 <tu_fifo_write+0x14>
20004bbc:	2101      	movs	r1, #1
20004bbe:	4249      	negs	r1, r1
20004bc0:	f7fb fb74 	bl	200002ac <mutex_enter_timeout_ms>
20004bc4:	8925      	ldrh	r5, [r4, #8]
20004bc6:	8920      	ldrh	r0, [r4, #8]
20004bc8:	8961      	ldrh	r1, [r4, #10]
20004bca:	88a2      	ldrh	r2, [r4, #4]
20004bcc:	b2ad      	uxth	r5, r5
20004bce:	b283      	uxth	r3, r0
20004bd0:	b28e      	uxth	r6, r1
20004bd2:	4288      	cmp	r0, r1
20004bd4:	d328      	bcc.n	20004c28 <tu_fifo_write+0x78>
20004bd6:	1b9b      	subs	r3, r3, r6
20004bd8:	b29b      	uxth	r3, r3
20004bda:	429a      	cmp	r2, r3
20004bdc:	d809      	bhi.n	20004bf2 <tu_fifo_write+0x42>
20004bde:	79e6      	ldrb	r6, [r4, #7]
20004be0:	09f6      	lsrs	r6, r6, #7
20004be2:	d106      	bne.n	20004bf2 <tu_fifo_write+0x42>
20004be4:	68e0      	ldr	r0, [r4, #12]
20004be6:	2800      	cmp	r0, #0
20004be8:	d001      	beq.n	20004bee <tu_fifo_write+0x3e>
20004bea:	f7fb fba5 	bl	20000338 <mutex_exit>
20004bee:	0030      	movs	r0, r6
20004bf0:	bdf8      	pop	{r3, r4, r5, r6, r7, pc}
20004bf2:	002b      	movs	r3, r5
20004bf4:	4295      	cmp	r5, r2
20004bf6:	d31c      	bcc.n	20004c32 <tu_fifo_write+0x82>
20004bf8:	1a9b      	subs	r3, r3, r2
20004bfa:	b29b      	uxth	r3, r3
20004bfc:	4293      	cmp	r3, r2
20004bfe:	d2fb      	bcs.n	20004bf8 <tu_fifo_write+0x48>
20004c00:	88e2      	ldrh	r2, [r4, #6]
20004c02:	6820      	ldr	r0, [r4, #0]
20004c04:	0452      	lsls	r2, r2, #17
20004c06:	0c52      	lsrs	r2, r2, #17
20004c08:	4353      	muls	r3, r2
20004c0a:	0039      	movs	r1, r7
20004c0c:	18c0      	adds	r0, r0, r3
20004c0e:	f7fd fbdf 	bl	200023d0 <__wrap___aeabi_memcpy>
20004c12:	1c6b      	adds	r3, r5, #1
20004c14:	b29b      	uxth	r3, r3
20004c16:	88a2      	ldrh	r2, [r4, #4]
20004c18:	429d      	cmp	r5, r3
20004c1a:	d916      	bls.n	20004c4a <tu_fifo_write+0x9a>
20004c1c:	2300      	movs	r3, #0
20004c1e:	0052      	lsls	r2, r2, #1
20004c20:	1a9b      	subs	r3, r3, r2
20004c22:	2601      	movs	r6, #1
20004c24:	8123      	strh	r3, [r4, #8]
20004c26:	e7dd      	b.n	20004be4 <tu_fifo_write+0x34>
20004c28:	0051      	lsls	r1, r2, #1
20004c2a:	1b89      	subs	r1, r1, r6
20004c2c:	185b      	adds	r3, r3, r1
20004c2e:	b29b      	uxth	r3, r3
20004c30:	e7d3      	b.n	20004bda <tu_fifo_write+0x2a>
20004c32:	88e2      	ldrh	r2, [r4, #6]
20004c34:	6820      	ldr	r0, [r4, #0]
20004c36:	0452      	lsls	r2, r2, #17
20004c38:	0c52      	lsrs	r2, r2, #17
20004c3a:	4353      	muls	r3, r2
20004c3c:	0039      	movs	r1, r7
20004c3e:	18c0      	adds	r0, r0, r3
20004c40:	f7fd fbc6 	bl	200023d0 <__wrap___aeabi_memcpy>
20004c44:	3501      	adds	r5, #1
20004c46:	88a2      	ldrh	r2, [r4, #4]
20004c48:	b2ab      	uxth	r3, r5
20004c4a:	0052      	lsls	r2, r2, #1
20004c4c:	4293      	cmp	r3, r2
20004c4e:	dbe8      	blt.n	20004c22 <tu_fifo_write+0x72>
20004c50:	e7e6      	b.n	20004c20 <tu_fifo_write+0x70>
20004c52:	46c0      	nop			@ (mov r8, r8)

20004c54 <tu_fifo_write_n>:
20004c54:	b5f0      	push	{r4, r5, r6, r7, lr}
20004c56:	464e      	mov	r6, r9
20004c58:	4645      	mov	r5, r8
20004c5a:	46de      	mov	lr, fp
20004c5c:	4657      	mov	r7, sl
20004c5e:	b5e0      	push	{r5, r6, r7, lr}
20004c60:	4689      	mov	r9, r1
20004c62:	0005      	movs	r5, r0
20004c64:	0016      	movs	r6, r2
20004c66:	b083      	sub	sp, #12
20004c68:	2a00      	cmp	r2, #0
20004c6a:	d06b      	beq.n	20004d44 <tu_fifo_write_n+0xf0>
20004c6c:	68c0      	ldr	r0, [r0, #12]
20004c6e:	2800      	cmp	r0, #0
20004c70:	d003      	beq.n	20004c7a <tu_fifo_write_n+0x26>
20004c72:	2101      	movs	r1, #1
20004c74:	4249      	negs	r1, r1
20004c76:	f7fb fb19 	bl	200002ac <mutex_enter_timeout_ms>
20004c7a:	892f      	ldrh	r7, [r5, #8]
20004c7c:	79ea      	ldrb	r2, [r5, #7]
20004c7e:	b2bb      	uxth	r3, r7
20004c80:	4698      	mov	r8, r3
20004c82:	896b      	ldrh	r3, [r5, #10]
20004c84:	88af      	ldrh	r7, [r5, #4]
20004c86:	b29b      	uxth	r3, r3
20004c88:	09d2      	lsrs	r2, r2, #7
20004c8a:	d13d      	bne.n	20004d08 <tu_fifo_write_n+0xb4>
20004c8c:	4598      	cmp	r8, r3
20004c8e:	d262      	bcs.n	20004d56 <tu_fifo_write_n+0x102>
20004c90:	007a      	lsls	r2, r7, #1
20004c92:	1ad3      	subs	r3, r2, r3
20004c94:	4443      	add	r3, r8
20004c96:	b29b      	uxth	r3, r3
20004c98:	42bb      	cmp	r3, r7
20004c9a:	d261      	bcs.n	20004d60 <tu_fifo_write_n+0x10c>
20004c9c:	1afb      	subs	r3, r7, r3
20004c9e:	1c1a      	adds	r2, r3, #0
20004ca0:	b29b      	uxth	r3, r3
20004ca2:	42b3      	cmp	r3, r6
20004ca4:	d900      	bls.n	20004ca8 <tu_fifo_write_n+0x54>
20004ca6:	1c32      	adds	r2, r6, #0
20004ca8:	b296      	uxth	r6, r2
20004caa:	1bf3      	subs	r3, r6, r7
20004cac:	9301      	str	r3, [sp, #4]
20004cae:	4643      	mov	r3, r8
20004cb0:	18f3      	adds	r3, r6, r3
20004cb2:	b29b      	uxth	r3, r3
20004cb4:	469b      	mov	fp, r3
20004cb6:	88ea      	ldrh	r2, [r5, #6]
20004cb8:	4644      	mov	r4, r8
20004cba:	45b8      	cmp	r8, r7
20004cbc:	d303      	bcc.n	20004cc6 <tu_fifo_write_n+0x72>
20004cbe:	1be4      	subs	r4, r4, r7
20004cc0:	b2a4      	uxth	r4, r4
20004cc2:	42bc      	cmp	r4, r7
20004cc4:	d2fb      	bcs.n	20004cbe <tu_fifo_write_n+0x6a>
20004cc6:	0452      	lsls	r2, r2, #17
20004cc8:	1b3b      	subs	r3, r7, r4
20004cca:	0c57      	lsrs	r7, r2, #17
20004ccc:	003a      	movs	r2, r7
20004cce:	4362      	muls	r2, r4
20004cd0:	6828      	ldr	r0, [r5, #0]
20004cd2:	b29b      	uxth	r3, r3
20004cd4:	1880      	adds	r0, r0, r2
20004cd6:	42b3      	cmp	r3, r6
20004cd8:	d356      	bcc.n	20004d88 <tu_fifo_write_n+0x134>
20004cda:	003a      	movs	r2, r7
20004cdc:	4649      	mov	r1, r9
20004cde:	4372      	muls	r2, r6
20004ce0:	f7fd fb76 	bl	200023d0 <__wrap___aeabi_memcpy>
20004ce4:	88ab      	ldrh	r3, [r5, #4]
20004ce6:	005b      	lsls	r3, r3, #1
20004ce8:	45d8      	cmp	r8, fp
20004cea:	d801      	bhi.n	20004cf0 <tu_fifo_write_n+0x9c>
20004cec:	459b      	cmp	fp, r3
20004cee:	db02      	blt.n	20004cf6 <tu_fifo_write_n+0xa2>
20004cf0:	465a      	mov	r2, fp
20004cf2:	1ad3      	subs	r3, r2, r3
20004cf4:	469b      	mov	fp, r3
20004cf6:	465b      	mov	r3, fp
20004cf8:	0037      	movs	r7, r6
20004cfa:	812b      	strh	r3, [r5, #8]
20004cfc:	68e8      	ldr	r0, [r5, #12]
20004cfe:	2800      	cmp	r0, #0
20004d00:	d021      	beq.n	20004d46 <tu_fifo_write_n+0xf2>
20004d02:	f7fb fb19 	bl	20000338 <mutex_exit>
20004d06:	e01e      	b.n	20004d46 <tu_fifo_write_n+0xf2>
20004d08:	42be      	cmp	r6, r7
20004d0a:	d22b      	bcs.n	20004d64 <tu_fifo_write_n+0x110>
20004d0c:	4598      	cmp	r8, r3
20004d0e:	d34c      	bcc.n	20004daa <tu_fifo_write_n+0x156>
20004d10:	4642      	mov	r2, r8
20004d12:	1ad2      	subs	r2, r2, r3
20004d14:	b292      	uxth	r2, r2
20004d16:	0079      	lsls	r1, r7, #1
20004d18:	1bf0      	subs	r0, r6, r7
20004d1a:	1992      	adds	r2, r2, r6
20004d1c:	9001      	str	r0, [sp, #4]
20004d1e:	428a      	cmp	r2, r1
20004d20:	dbc5      	blt.n	20004cae <tu_fifo_write_n+0x5a>
20004d22:	19da      	adds	r2, r3, r7
20004d24:	b292      	uxth	r2, r2
20004d26:	4693      	mov	fp, r2
20004d28:	1b92      	subs	r2, r2, r6
20004d2a:	b292      	uxth	r2, r2
20004d2c:	4690      	mov	r8, r2
20004d2e:	4293      	cmp	r3, r2
20004d30:	d940      	bls.n	20004db4 <tu_fifo_write_n+0x160>
20004d32:	4643      	mov	r3, r8
20004d34:	1a59      	subs	r1, r3, r1
20004d36:	b28b      	uxth	r3, r1
20004d38:	4698      	mov	r8, r3
20004d3a:	18f3      	adds	r3, r6, r3
20004d3c:	b29b      	uxth	r3, r3
20004d3e:	469b      	mov	fp, r3
20004d40:	88ea      	ldrh	r2, [r5, #6]
20004d42:	e7b9      	b.n	20004cb8 <tu_fifo_write_n+0x64>
20004d44:	2700      	movs	r7, #0
20004d46:	0038      	movs	r0, r7
20004d48:	b003      	add	sp, #12
20004d4a:	bcf0      	pop	{r4, r5, r6, r7}
20004d4c:	46bb      	mov	fp, r7
20004d4e:	46b2      	mov	sl, r6
20004d50:	46a9      	mov	r9, r5
20004d52:	46a0      	mov	r8, r4
20004d54:	bdf0      	pop	{r4, r5, r6, r7, pc}
20004d56:	4642      	mov	r2, r8
20004d58:	1ad3      	subs	r3, r2, r3
20004d5a:	b29b      	uxth	r3, r3
20004d5c:	42bb      	cmp	r3, r7
20004d5e:	d39d      	bcc.n	20004c9c <tu_fifo_write_n+0x48>
20004d60:	2700      	movs	r7, #0
20004d62:	e7cb      	b.n	20004cfc <tu_fifo_write_n+0xa8>
20004d64:	2f00      	cmp	r7, #0
20004d66:	d0c9      	beq.n	20004cfc <tu_fifo_write_n+0xa8>
20004d68:	46cc      	mov	ip, r9
20004d6a:	88ea      	ldrh	r2, [r5, #6]
20004d6c:	1bf6      	subs	r6, r6, r7
20004d6e:	0451      	lsls	r1, r2, #17
20004d70:	0c49      	lsrs	r1, r1, #17
20004d72:	4371      	muls	r1, r6
20004d74:	4698      	mov	r8, r3
20004d76:	448c      	add	ip, r1
20004d78:	19d9      	adds	r1, r3, r7
20004d7a:	2300      	movs	r3, #0
20004d7c:	b289      	uxth	r1, r1
20004d7e:	46e1      	mov	r9, ip
20004d80:	468b      	mov	fp, r1
20004d82:	003e      	movs	r6, r7
20004d84:	9301      	str	r3, [sp, #4]
20004d86:	e797      	b.n	20004cb8 <tu_fifo_write_n+0x64>
20004d88:	437b      	muls	r3, r7
20004d8a:	b29b      	uxth	r3, r3
20004d8c:	001a      	movs	r2, r3
20004d8e:	4649      	mov	r1, r9
20004d90:	469a      	mov	sl, r3
20004d92:	f7fd fb1d 	bl	200023d0 <__wrap___aeabi_memcpy>
20004d96:	4649      	mov	r1, r9
20004d98:	9b01      	ldr	r3, [sp, #4]
20004d9a:	6828      	ldr	r0, [r5, #0]
20004d9c:	18e2      	adds	r2, r4, r3
20004d9e:	437a      	muls	r2, r7
20004da0:	4451      	add	r1, sl
20004da2:	b292      	uxth	r2, r2
20004da4:	f7fd fb14 	bl	200023d0 <__wrap___aeabi_memcpy>
20004da8:	e79c      	b.n	20004ce4 <tu_fifo_write_n+0x90>
20004daa:	0079      	lsls	r1, r7, #1
20004dac:	1aca      	subs	r2, r1, r3
20004dae:	4442      	add	r2, r8
20004db0:	b292      	uxth	r2, r2
20004db2:	e7b1      	b.n	20004d18 <tu_fifo_write_n+0xc4>
20004db4:	4291      	cmp	r1, r2
20004db6:	ddbc      	ble.n	20004d32 <tu_fifo_write_n+0xde>
20004db8:	e7c2      	b.n	20004d40 <tu_fifo_write_n+0xec>
20004dba:	46c0      	nop			@ (mov r8, r8)

20004dbc <tu_fifo_clear>:
20004dbc:	b510      	push	{r4, lr}
20004dbe:	0004      	movs	r4, r0
20004dc0:	68c0      	ldr	r0, [r0, #12]
20004dc2:	2800      	cmp	r0, #0
20004dc4:	d003      	beq.n	20004dce <tu_fifo_clear+0x12>
20004dc6:	2101      	movs	r1, #1
20004dc8:	4249      	negs	r1, r1
20004dca:	f7fb fa6f 	bl	200002ac <mutex_enter_timeout_ms>
20004dce:	6920      	ldr	r0, [r4, #16]
20004dd0:	2800      	cmp	r0, #0
20004dd2:	d003      	beq.n	20004ddc <tu_fifo_clear+0x20>
20004dd4:	2101      	movs	r1, #1
20004dd6:	4249      	negs	r1, r1
20004dd8:	f7fb fa68 	bl	200002ac <mutex_enter_timeout_ms>
20004ddc:	2300      	movs	r3, #0
20004dde:	68e0      	ldr	r0, [r4, #12]
20004de0:	8163      	strh	r3, [r4, #10]
20004de2:	8123      	strh	r3, [r4, #8]
20004de4:	2800      	cmp	r0, #0
20004de6:	d001      	beq.n	20004dec <tu_fifo_clear+0x30>
20004de8:	f7fb faa6 	bl	20000338 <mutex_exit>
20004dec:	6920      	ldr	r0, [r4, #16]
20004dee:	2800      	cmp	r0, #0
20004df0:	d001      	beq.n	20004df6 <tu_fifo_clear+0x3a>
20004df2:	f7fb faa1 	bl	20000338 <mutex_exit>
20004df6:	2001      	movs	r0, #1
20004df8:	bd10      	pop	{r4, pc}
20004dfa:	46c0      	nop			@ (mov r8, r8)

20004dfc <tu_fifo_set_overwritable>:
20004dfc:	b570      	push	{r4, r5, r6, lr}
20004dfe:	0004      	movs	r4, r0
20004e00:	68c0      	ldr	r0, [r0, #12]
20004e02:	000d      	movs	r5, r1
20004e04:	2800      	cmp	r0, #0
20004e06:	d003      	beq.n	20004e10 <tu_fifo_set_overwritable+0x14>
20004e08:	2101      	movs	r1, #1
20004e0a:	4249      	negs	r1, r1
20004e0c:	f7fb fa4e 	bl	200002ac <mutex_enter_timeout_ms>
20004e10:	6920      	ldr	r0, [r4, #16]
20004e12:	2800      	cmp	r0, #0
20004e14:	d003      	beq.n	20004e1e <tu_fifo_set_overwritable+0x22>
20004e16:	2101      	movs	r1, #1
20004e18:	4249      	negs	r1, r1
20004e1a:	f7fb fa47 	bl	200002ac <mutex_enter_timeout_ms>
20004e1e:	217f      	movs	r1, #127	@ 0x7f
20004e20:	79e2      	ldrb	r2, [r4, #7]
20004e22:	01eb      	lsls	r3, r5, #7
20004e24:	4011      	ands	r1, r2
20004e26:	68e0      	ldr	r0, [r4, #12]
20004e28:	4319      	orrs	r1, r3
20004e2a:	71e1      	strb	r1, [r4, #7]
20004e2c:	2800      	cmp	r0, #0
20004e2e:	d001      	beq.n	20004e34 <tu_fifo_set_overwritable+0x38>
20004e30:	f7fb fa82 	bl	20000338 <mutex_exit>
20004e34:	6920      	ldr	r0, [r4, #16]
20004e36:	2800      	cmp	r0, #0
20004e38:	d001      	beq.n	20004e3e <tu_fifo_set_overwritable+0x42>
20004e3a:	f7fb fa7d 	bl	20000338 <mutex_exit>
20004e3e:	2001      	movs	r0, #1
20004e40:	bd70      	pop	{r4, r5, r6, pc}
20004e42:	46c0      	nop			@ (mov r8, r8)

20004e44 <pio_add_program>:
20004e44:	b5f0      	push	{r4, r5, r6, r7, lr}
20004e46:	46de      	mov	lr, fp
20004e48:	4657      	mov	r7, sl
20004e4a:	464e      	mov	r6, r9
20004e4c:	4645      	mov	r5, r8
20004e4e:	b5e0      	push	{r5, r6, r7, lr}
20004e50:	000c      	movs	r4, r1
20004e52:	b083      	sub	sp, #12
20004e54:	4680      	mov	r8, r0
20004e56:	468b      	mov	fp, r1
20004e58:	2505      	movs	r5, #5
20004e5a:	f7fc f87d 	bl	20000f58 <hw_claim_lock>
20004e5e:	2201      	movs	r2, #1
20004e60:	7927      	ldrb	r7, [r4, #4]
20004e62:	0026      	movs	r6, r4
20004e64:	40ba      	lsls	r2, r7
20004e66:	5765      	ldrsb	r5, [r4, r5]
20004e68:	2420      	movs	r4, #32
20004e6a:	4b32      	ldr	r3, [pc, #200]	@ (20004f34 <pio_add_program+0xf0>)
20004e6c:	4932      	ldr	r1, [pc, #200]	@ (20004f38 <pio_add_program+0xf4>)
20004e6e:	4443      	add	r3, r8
20004e70:	0d1b      	lsrs	r3, r3, #20
20004e72:	009b      	lsls	r3, r3, #2
20004e74:	469a      	mov	sl, r3
20004e76:	4681      	mov	r9, r0
20004e78:	58cb      	ldr	r3, [r1, r3]
20004e7a:	3a01      	subs	r2, #1
20004e7c:	1be4      	subs	r4, r4, r7
20004e7e:	2d00      	cmp	r5, #0
20004e80:	db3e      	blt.n	20004f00 <pio_add_program+0xbc>
20004e82:	42ac      	cmp	r4, r5
20004e84:	db2f      	blt.n	20004ee6 <pio_add_program+0xa2>
20004e86:	0010      	movs	r0, r2
20004e88:	40a8      	lsls	r0, r5
20004e8a:	4203      	tst	r3, r0
20004e8c:	d12b      	bne.n	20004ee6 <pio_add_program+0xa2>
20004e8e:	79b0      	ldrb	r0, [r6, #6]
20004e90:	2800      	cmp	r0, #0
20004e92:	d14b      	bne.n	20004f2c <pio_add_program+0xe8>
20004e94:	002c      	movs	r4, r5
20004e96:	6830      	ldr	r0, [r6, #0]
20004e98:	40aa      	lsls	r2, r5
20004e9a:	0016      	movs	r6, r2
20004e9c:	9200      	str	r2, [sp, #0]
20004e9e:	401a      	ands	r2, r3
20004ea0:	421e      	tst	r6, r3
20004ea2:	d140      	bne.n	20004f26 <pio_add_program+0xe2>
20004ea4:	2680      	movs	r6, #128	@ 0x80
20004ea6:	01b6      	lsls	r6, r6, #6
20004ea8:	46b4      	mov	ip, r6
20004eaa:	2f00      	cmp	r7, #0
20004eac:	d016      	beq.n	20004edc <pio_add_program+0x98>
20004eae:	46a3      	mov	fp, r4
20004eb0:	9101      	str	r1, [sp, #4]
20004eb2:	001c      	movs	r4, r3
20004eb4:	4641      	mov	r1, r8
20004eb6:	003b      	movs	r3, r7
20004eb8:	002e      	movs	r6, r5
20004eba:	0007      	movs	r7, r0
20004ebc:	0010      	movs	r0, r2
20004ebe:	0042      	lsls	r2, r0, #1
20004ec0:	5abd      	ldrh	r5, [r7, r2]
20004ec2:	4565      	cmp	r5, ip
20004ec4:	d200      	bcs.n	20004ec8 <pio_add_program+0x84>
20004ec6:	19ad      	adds	r5, r5, r6
20004ec8:	1832      	adds	r2, r6, r0
20004eca:	3212      	adds	r2, #18
20004ecc:	0092      	lsls	r2, r2, #2
20004ece:	3001      	adds	r0, #1
20004ed0:	5055      	str	r5, [r2, r1]
20004ed2:	4298      	cmp	r0, r3
20004ed4:	d3f3      	bcc.n	20004ebe <pio_add_program+0x7a>
20004ed6:	0023      	movs	r3, r4
20004ed8:	465c      	mov	r4, fp
20004eda:	9901      	ldr	r1, [sp, #4]
20004edc:	9a00      	ldr	r2, [sp, #0]
20004ede:	4313      	orrs	r3, r2
20004ee0:	4652      	mov	r2, sl
20004ee2:	508b      	str	r3, [r1, r2]
20004ee4:	e001      	b.n	20004eea <pio_add_program+0xa6>
20004ee6:	2401      	movs	r4, #1
20004ee8:	4264      	negs	r4, r4
20004eea:	4648      	mov	r0, r9
20004eec:	f7fc f840 	bl	20000f70 <hw_claim_unlock>
20004ef0:	0020      	movs	r0, r4
20004ef2:	b003      	add	sp, #12
20004ef4:	bcf0      	pop	{r4, r5, r6, r7}
20004ef6:	46bb      	mov	fp, r7
20004ef8:	46b2      	mov	sl, r6
20004efa:	46a9      	mov	r9, r5
20004efc:	46a0      	mov	r8, r4
20004efe:	bdf0      	pop	{r4, r5, r6, r7, pc}
20004f00:	2f20      	cmp	r7, #32
20004f02:	dc10      	bgt.n	20004f26 <pio_add_program+0xe2>
20004f04:	4646      	mov	r6, r8
20004f06:	e001      	b.n	20004f0c <pio_add_program+0xc8>
20004f08:	3c01      	subs	r4, #1
20004f0a:	d30c      	bcc.n	20004f26 <pio_add_program+0xe2>
20004f0c:	0010      	movs	r0, r2
20004f0e:	40a0      	lsls	r0, r4
20004f10:	0025      	movs	r5, r4
20004f12:	4203      	tst	r3, r0
20004f14:	d1f8      	bne.n	20004f08 <pio_add_program+0xc4>
20004f16:	4658      	mov	r0, fp
20004f18:	7980      	ldrb	r0, [r0, #6]
20004f1a:	46b0      	mov	r8, r6
20004f1c:	2800      	cmp	r0, #0
20004f1e:	d105      	bne.n	20004f2c <pio_add_program+0xe8>
20004f20:	4658      	mov	r0, fp
20004f22:	6800      	ldr	r0, [r0, #0]
20004f24:	e7b8      	b.n	20004e98 <pio_add_program+0x54>
20004f26:	2409      	movs	r4, #9
20004f28:	4264      	negs	r4, r4
20004f2a:	e7de      	b.n	20004eea <pio_add_program+0xa6>
20004f2c:	2414      	movs	r4, #20
20004f2e:	4264      	negs	r4, r4
20004f30:	e7db      	b.n	20004eea <pio_add_program+0xa6>
20004f32:	46c0      	nop			@ (mov r8, r8)
20004f34:	afe00000 	.word	0xafe00000
20004f38:	20005c54 	.word	0x20005c54

20004f3c <pio_sm_set_consecutive_pindirs>:
20004f3c:	b5f0      	push	{r4, r5, r6, r7, lr}
20004f3e:	464e      	mov	r6, r9
20004f40:	46de      	mov	lr, fp
20004f42:	4657      	mov	r7, sl
20004f44:	4645      	mov	r5, r8
20004f46:	b5e0      	push	{r5, r6, r7, lr}
20004f48:	b083      	sub	sp, #12
20004f4a:	000c      	movs	r4, r1
20004f4c:	4689      	mov	r9, r1
20004f4e:	a90c      	add	r1, sp, #48	@ 0x30
20004f50:	4684      	mov	ip, r0
20004f52:	7808      	ldrb	r0, [r1, #0]
20004f54:	2a1f      	cmp	r2, #31
20004f56:	d842      	bhi.n	20004fde <pio_sm_set_consecutive_pindirs+0xa2>
20004f58:	0061      	lsls	r1, r4, #1
20004f5a:	9101      	str	r1, [sp, #4]
20004f5c:	1909      	adds	r1, r1, r4
20004f5e:	4664      	mov	r4, ip
20004f60:	00c9      	lsls	r1, r1, #3
20004f62:	1864      	adds	r4, r4, r1
20004f64:	0025      	movs	r5, r4
20004f66:	35dc      	adds	r5, #220	@ 0xdc
20004f68:	682e      	ldr	r6, [r5, #0]
20004f6a:	46b2      	mov	sl, r6
20004f6c:	0026      	movs	r6, r4
20004f6e:	36cc      	adds	r6, #204	@ 0xcc
20004f70:	6836      	ldr	r6, [r6, #0]
20004f72:	46b3      	mov	fp, r6
20004f74:	4e1b      	ldr	r6, [pc, #108]	@ (20004fe4 <pio_sm_set_consecutive_pindirs+0xa8>)
20004f76:	19a1      	adds	r1, r4, r6
20004f78:	2680      	movs	r6, #128	@ 0x80
20004f7a:	02b6      	lsls	r6, r6, #10
20004f7c:	600e      	str	r6, [r1, #0]
20004f7e:	1e41      	subs	r1, r0, #1
20004f80:	4188      	sbcs	r0, r1
20004f82:	4241      	negs	r1, r0
20004f84:	201f      	movs	r0, #31
20004f86:	4008      	ands	r0, r1
20004f88:	4917      	ldr	r1, [pc, #92]	@ (20004fe8 <pio_sm_set_consecutive_pindirs+0xac>)
20004f8a:	1840      	adds	r0, r0, r1
20004f8c:	2b05      	cmp	r3, #5
20004f8e:	d90c      	bls.n	20004faa <pio_sm_set_consecutive_pindirs+0x6e>
20004f90:	27a0      	movs	r7, #160	@ 0xa0
20004f92:	261f      	movs	r6, #31
20004f94:	057f      	lsls	r7, r7, #21
20004f96:	34d8      	adds	r4, #216	@ 0xd8
20004f98:	0151      	lsls	r1, r2, #5
20004f9a:	4339      	orrs	r1, r7
20004f9c:	3205      	adds	r2, #5
20004f9e:	3b05      	subs	r3, #5
20004fa0:	6029      	str	r1, [r5, #0]
20004fa2:	4032      	ands	r2, r6
20004fa4:	6020      	str	r0, [r4, #0]
20004fa6:	2b05      	cmp	r3, #5
20004fa8:	d8f6      	bhi.n	20004f98 <pio_sm_set_consecutive_pindirs+0x5c>
20004faa:	0152      	lsls	r2, r2, #5
20004fac:	069b      	lsls	r3, r3, #26
20004fae:	4313      	orrs	r3, r2
20004fb0:	9a01      	ldr	r2, [sp, #4]
20004fb2:	444a      	add	r2, r9
20004fb4:	00d2      	lsls	r2, r2, #3
20004fb6:	4462      	add	r2, ip
20004fb8:	0011      	movs	r1, r2
20004fba:	31dc      	adds	r1, #220	@ 0xdc
20004fbc:	600b      	str	r3, [r1, #0]
20004fbe:	0013      	movs	r3, r2
20004fc0:	33d8      	adds	r3, #216	@ 0xd8
20004fc2:	6018      	str	r0, [r3, #0]
20004fc4:	4653      	mov	r3, sl
20004fc6:	600b      	str	r3, [r1, #0]
20004fc8:	465b      	mov	r3, fp
20004fca:	2000      	movs	r0, #0
20004fcc:	32cc      	adds	r2, #204	@ 0xcc
20004fce:	6013      	str	r3, [r2, #0]
20004fd0:	b003      	add	sp, #12
20004fd2:	bcf0      	pop	{r4, r5, r6, r7}
20004fd4:	46bb      	mov	fp, r7
20004fd6:	46b2      	mov	sl, r6
20004fd8:	46a9      	mov	r9, r5
20004fda:	46a0      	mov	r8, r4
20004fdc:	bdf0      	pop	{r4, r5, r6, r7, pc}
20004fde:	2005      	movs	r0, #5
20004fe0:	4240      	negs	r0, r0
20004fe2:	e7f5      	b.n	20004fd0 <pio_sm_set_consecutive_pindirs+0x94>
20004fe4:	000030cc 	.word	0x000030cc
20004fe8:	0000e080 	.word	0x0000e080

20004fec <pio_sm_init>:
20004fec:	4694      	mov	ip, r2
20004fee:	2201      	movs	r2, #1
20004ff0:	408a      	lsls	r2, r1
20004ff2:	b570      	push	{r4, r5, r6, lr}
20004ff4:	46c6      	mov	lr, r8
20004ff6:	001c      	movs	r4, r3
20004ff8:	6803      	ldr	r3, [r0, #0]
20004ffa:	b500      	push	{lr}
20004ffc:	4393      	bics	r3, r2
20004ffe:	6003      	str	r3, [r0, #0]
20005000:	2c00      	cmp	r4, #0
20005002:	d030      	beq.n	20005066 <pio_sm_init+0x7a>
20005004:	004a      	lsls	r2, r1, #1
20005006:	1853      	adds	r3, r2, r1
20005008:	00db      	lsls	r3, r3, #3
2000500a:	18c3      	adds	r3, r0, r3
2000500c:	001d      	movs	r5, r3
2000500e:	6826      	ldr	r6, [r4, #0]
20005010:	35c8      	adds	r5, #200	@ 0xc8
20005012:	602e      	str	r6, [r5, #0]
20005014:	68a6      	ldr	r6, [r4, #8]
20005016:	3504      	adds	r5, #4
20005018:	606e      	str	r6, [r5, #4]
2000501a:	6866      	ldr	r6, [r4, #4]
2000501c:	68e4      	ldr	r4, [r4, #12]
2000501e:	33dc      	adds	r3, #220	@ 0xdc
20005020:	602e      	str	r6, [r5, #0]
20005022:	601c      	str	r4, [r3, #0]
20005024:	1853      	adds	r3, r2, r1
20005026:	00db      	lsls	r3, r3, #3
20005028:	4c18      	ldr	r4, [pc, #96]	@ (2000508c <pio_sm_init+0xa0>)
2000502a:	18c2      	adds	r2, r0, r3
2000502c:	1912      	adds	r2, r2, r4
2000502e:	2480      	movs	r4, #128	@ 0x80
20005030:	0624      	lsls	r4, r4, #24
20005032:	6014      	str	r4, [r2, #0]
20005034:	6014      	str	r4, [r2, #0]
20005036:	4a16      	ldr	r2, [pc, #88]	@ (20005090 <pio_sm_init+0xa4>)
20005038:	1d0c      	adds	r4, r1, #4
2000503a:	408a      	lsls	r2, r1
2000503c:	6082      	str	r2, [r0, #8]
2000503e:	2201      	movs	r2, #1
20005040:	0015      	movs	r5, r2
20005042:	40a5      	lsls	r5, r4
20005044:	2480      	movs	r4, #128	@ 0x80
20005046:	3108      	adds	r1, #8
20005048:	408a      	lsls	r2, r1
2000504a:	01a4      	lsls	r4, r4, #6
2000504c:	1904      	adds	r4, r0, r4
2000504e:	6025      	str	r5, [r4, #0]
20005050:	4661      	mov	r1, ip
20005052:	6022      	str	r2, [r4, #0]
20005054:	221f      	movs	r2, #31
20005056:	18c0      	adds	r0, r0, r3
20005058:	400a      	ands	r2, r1
2000505a:	30d8      	adds	r0, #216	@ 0xd8
2000505c:	6002      	str	r2, [r0, #0]
2000505e:	2000      	movs	r0, #0
20005060:	bc40      	pop	{r6}
20005062:	46b0      	mov	r8, r6
20005064:	bd70      	pop	{r4, r5, r6, pc}
20005066:	004a      	lsls	r2, r1, #1
20005068:	1853      	adds	r3, r2, r1
2000506a:	00db      	lsls	r3, r3, #3
2000506c:	18c3      	adds	r3, r0, r3
2000506e:	001d      	movs	r5, r3
20005070:	2680      	movs	r6, #128	@ 0x80
20005072:	35c8      	adds	r5, #200	@ 0xc8
20005074:	0276      	lsls	r6, r6, #9
20005076:	602e      	str	r6, [r5, #0]
20005078:	26c0      	movs	r6, #192	@ 0xc0
2000507a:	0336      	lsls	r6, r6, #12
2000507c:	60ae      	str	r6, [r5, #8]
2000507e:	26f8      	movs	r6, #248	@ 0xf8
20005080:	3504      	adds	r5, #4
20005082:	0276      	lsls	r6, r6, #9
20005084:	33dc      	adds	r3, #220	@ 0xdc
20005086:	602e      	str	r6, [r5, #0]
20005088:	601c      	str	r4, [r3, #0]
2000508a:	e7cb      	b.n	20005024 <pio_sm_init+0x38>
2000508c:	000010d0 	.word	0x000010d0
20005090:	01010101 	.word	0x01010101

20005094 <__aeabi_idiv0>:
20005094:	4770      	bx	lr
20005096:	46c0      	nop			@ (mov r8, r8)

20005098 <strlen>:
20005098:	0003      	movs	r3, r0
2000509a:	4684      	mov	ip, r0
2000509c:	079b      	lsls	r3, r3, #30
2000509e:	d00b      	beq.n	200050b8 <strlen+0x20>
200050a0:	0003      	movs	r3, r0
200050a2:	2103      	movs	r1, #3
200050a4:	e002      	b.n	200050ac <strlen+0x14>
200050a6:	3301      	adds	r3, #1
200050a8:	420b      	tst	r3, r1
200050aa:	d006      	beq.n	200050ba <strlen+0x22>
200050ac:	781a      	ldrb	r2, [r3, #0]
200050ae:	2a00      	cmp	r2, #0
200050b0:	d1f9      	bne.n	200050a6 <strlen+0xe>
200050b2:	4662      	mov	r2, ip
200050b4:	1a98      	subs	r0, r3, r2
200050b6:	4770      	bx	lr
200050b8:	0003      	movs	r3, r0
200050ba:	6819      	ldr	r1, [r3, #0]
200050bc:	4a0c      	ldr	r2, [pc, #48]	@ (200050f0 <strlen+0x58>)
200050be:	480d      	ldr	r0, [pc, #52]	@ (200050f4 <strlen+0x5c>)
200050c0:	188a      	adds	r2, r1, r2
200050c2:	438a      	bics	r2, r1
200050c4:	4202      	tst	r2, r0
200050c6:	d10f      	bne.n	200050e8 <strlen+0x50>
200050c8:	6859      	ldr	r1, [r3, #4]
200050ca:	4a09      	ldr	r2, [pc, #36]	@ (200050f0 <strlen+0x58>)
200050cc:	3304      	adds	r3, #4
200050ce:	188a      	adds	r2, r1, r2
200050d0:	438a      	bics	r2, r1
200050d2:	4202      	tst	r2, r0
200050d4:	d108      	bne.n	200050e8 <strlen+0x50>
200050d6:	6859      	ldr	r1, [r3, #4]
200050d8:	4a05      	ldr	r2, [pc, #20]	@ (200050f0 <strlen+0x58>)
200050da:	3304      	adds	r3, #4
200050dc:	188a      	adds	r2, r1, r2
200050de:	438a      	bics	r2, r1
200050e0:	4202      	tst	r2, r0
200050e2:	d0f1      	beq.n	200050c8 <strlen+0x30>
200050e4:	e000      	b.n	200050e8 <strlen+0x50>
200050e6:	3301      	adds	r3, #1
200050e8:	781a      	ldrb	r2, [r3, #0]
200050ea:	2a00      	cmp	r2, #0
200050ec:	d1fb      	bne.n	200050e6 <strlen+0x4e>
200050ee:	e7e0      	b.n	200050b2 <strlen+0x1a>
200050f0:	fefefeff 	.word	0xfefefeff
200050f4:	80808080 	.word	0x80808080
