
C:/Users/ishar/Desktop/pico_dev/SRAM/spi/build/spi.elf:     file format elf32-littlearm

Sections:
Idx Name          Size      VMA       LMA       File off  Algn
  0 .text         00007058  20000000  20000000  00001000  2**2
                  CONTENTS, ALLOC, LOAD, READONLY, CODE
  1 .rodata       00000db4  20007058  20007058  00008058  2**3
                  CONTENTS, ALLOC, LOAD, READONLY, DATA
  2 .binary_info  00000018  20007e0c  20007e0c  00008e0c  2**2
                  CONTENTS, ALLOC, LOAD, READONLY, DATA
  3 .data         0000010c  20007e30  20007e30  00008e30  2**4
                  CONTENTS, ALLOC, LOAD, DATA
  4 .tdata        00000000  20007f3c  20007f3c  00008f3c  2**0
                  CONTENTS, ALLOC, LOAD, DATA, THREAD_LOCAL
  5 .uninitialized_data 00000000  20007f3c  20007f3c  00008f3c  2**0
                  CONTENTS
  6 .tbss         00000000  20007f3c  20007f3c  00000000  2**0
                  ALLOC, THREAD_LOCAL
  7 .bss          00000de0  20007f40  20007f40  00008f3c  2**3
                  ALLOC
  8 .heap         00000800  20008d20  20008d20  00008f3c  2**2
                  ALLOC, READONLY
  9 .scratch_x    00000000  20040000  20040000  00008f3c  2**0
                  CONTENTS
 10 .scratch_y    00000000  20041000  20041000  00008f3c  2**0
                  CONTENTS
 11 .stack_dummy  00000800  20041000  20041000  00009000  2**5
                  ALLOC, READONLY
 12 .debug_info   000284f3  00000000  00000000  00008f3c  2**0
                  CONTENTS, READONLY, DEBUGGING, OCTETS
 13 .debug_abbrev 00007f91  00000000  00000000  0003142f  2**0
                  CONTENTS, READONLY, DEBUGGING, OCTETS
 14 .debug_aranges 000017b0  00000000  00000000  000393c0  2**3
                  CONTENTS, READONLY, DEBUGGING, OCTETS
 15 .debug_rnglists 00001a42  00000000  00000000  0003ab70  2**0
                  CONTENTS, READONLY, DEBUGGING, OCTETS
 16 .debug_line   0001b6d6  00000000  00000000  0003c5b2  2**0
                  CONTENTS, READONLY, DEBUGGING, OCTETS
 17 .debug_str    000082de  00000000  00000000  00057c88  2**0
                  CONTENTS, READONLY, DEBUGGING, OCTETS
 18 .comment      00000045  00000000  00000000  0005ff66  2**0
                  CONTENTS, READONLY
 19 .ARM.attributes 0000002a  00000000  00000000  0005ffab  2**0
                  CONTENTS, READONLY
 20 .debug_frame  0000312c  00000000  00000000  0005ffd8  2**2
                  CONTENTS, READONLY, DEBUGGING, OCTETS
 21 .debug_loclists 000114a9  00000000  00000000  00063104  2**0
                  CONTENTS, READONLY, DEBUGGING, OCTETS
 22 .debug_line_str 00000364  00000000  00000000  000745ad  2**0
                  CONTENTS, READONLY, DEBUGGING, OCTETS

C:/Users/ishar/Desktop/pico_dev/SRAM/spi/build/spi.elf:     file format elf32-littlearm


Disassembly of section .text:

20000000 <_entry_point>:
20000000:	4818      	ldr	r0, [pc, #96]	@ (20000064 <data_cpy_table+0x2c>)

20000002 <_enter_vtable_in_r0>:
20000002:	4919      	ldr	r1, [pc, #100]	@ (20000068 <data_cpy_table+0x30>)
20000004:	6008      	str	r0, [r1, #0]
20000006:	c806      	ldmia	r0!, {r1, r2}
20000008:	f381 8808 	msr	MSP, r1
2000000c:	4710      	bx	r2

2000000e <_reset_handler>:
2000000e:	4817      	ldr	r0, [pc, #92]	@ (2000006c <data_cpy_table+0x34>)
20000010:	6800      	ldr	r0, [r0, #0]
20000012:	2800      	cmp	r0, #0
20000014:	d001      	beq.n	2000001a <hold_non_core0_in_bootrom+0x4>

20000016 <hold_non_core0_in_bootrom>:
20000016:	4816      	ldr	r0, [pc, #88]	@ (20000070 <data_cpy_table+0x38>)
20000018:	e7f3      	b.n	20000002 <_enter_vtable_in_r0>
2000001a:	4916      	ldr	r1, [pc, #88]	@ (20000074 <data_cpy_table+0x3c>)
2000001c:	4a16      	ldr	r2, [pc, #88]	@ (20000078 <data_cpy_table+0x40>)
2000001e:	2000      	movs	r0, #0
20000020:	e000      	b.n	20000024 <bss_fill_test>

20000022 <bss_fill_loop>:
20000022:	c101      	stmia	r1!, {r0}

20000024 <bss_fill_test>:
20000024:	4291      	cmp	r1, r2
20000026:	d1fc      	bne.n	20000022 <bss_fill_loop>

20000028 <platform_entry>:
20000028:	4914      	ldr	r1, [pc, #80]	@ (2000007c <data_cpy_table+0x44>)
2000002a:	4788      	blx	r1
2000002c:	4914      	ldr	r1, [pc, #80]	@ (20000080 <data_cpy_table+0x48>)
2000002e:	4788      	blx	r1
20000030:	4914      	ldr	r1, [pc, #80]	@ (20000084 <data_cpy_table+0x4c>)
20000032:	4788      	blx	r1
20000034:	be00      	bkpt	0x0000
20000036:	e7fd      	b.n	20000034 <platform_entry+0xc>

20000038 <data_cpy_table>:
20000038:	20007e30 	.word	0x20007e30
2000003c:	20007e30 	.word	0x20007e30
20000040:	20007f3c 	.word	0x20007f3c
20000044:	20040000 	.word	0x20040000
20000048:	20040000 	.word	0x20040000
2000004c:	20040000 	.word	0x20040000
20000050:	20041000 	.word	0x20041000
20000054:	20041000 	.word	0x20041000
20000058:	20041000 	.word	0x20041000
2000005c:	00000000 	.word	0x00000000
20000060:	4770      	bx	lr
20000062:	0000      	.short	0x0000
20000064:	20000100 	.word	0x20000100
20000068:	e000ed08 	.word	0xe000ed08
2000006c:	d0000000 	.word	0xd0000000
20000070:	00000000 	.word	0x00000000
20000074:	20007f3c 	.word	0x20007f3c
20000078:	20008d20 	.word	0x20008d20
2000007c:	20004111 	.word	0x20004111
20000080:	20000ac1 	.word	0x20000ac1
20000084:	200040d1 	.word	0x200040d1

20000088 <__bi_54>:
20000088:	50520006 5360b3ab 20007730              ..RP..`S0w. 

20000094 <__bi_42>:
20000094:	50520006 02031c86 20007740              ..RP....@w. 

200000a0 <__bi_34>:
200000a0:	50520006 9da22254 20007744              ..RPT"..Dw. 

200000ac <binary_info_header>:
200000ac:	7188ebf2 	.word	0x7188ebf2
200000b0:	20007e0c 	.word	0x20007e0c
200000b4:	20007e24 	.word	0x20007e24
200000b8:	20000038 	.word	0x20000038
200000bc:	e71aa390 	.word	0xe71aa390

200000c0 <__binary_info_header_end>:
	...

20000100 <__VECTOR_TABLE>:
20000100:	20042000 	.word	0x20042000
20000104:	2000000f 	.word	0x2000000f
20000108:	200001cb 	.word	0x200001cb
2000010c:	200001cd 	.word	0x200001cd
20000110:	200001c9 	.word	0x200001c9
20000114:	200001c9 	.word	0x200001c9
20000118:	200001c9 	.word	0x200001c9
2000011c:	200001c9 	.word	0x200001c9
20000120:	200001c9 	.word	0x200001c9
20000124:	200001c9 	.word	0x200001c9
20000128:	200001c9 	.word	0x200001c9
2000012c:	200001cf 	.word	0x200001cf
20000130:	200001c9 	.word	0x200001c9
20000134:	200001c9 	.word	0x200001c9
20000138:	200001d1 	.word	0x200001d1
2000013c:	200001d3 	.word	0x200001d3
20000140:	200001c1 	.word	0x200001c1
20000144:	200001c1 	.word	0x200001c1
20000148:	200001c1 	.word	0x200001c1
2000014c:	200001c1 	.word	0x200001c1
20000150:	200001c1 	.word	0x200001c1
20000154:	200001c1 	.word	0x200001c1
20000158:	200001c1 	.word	0x200001c1
2000015c:	200001c1 	.word	0x200001c1
20000160:	200001c1 	.word	0x200001c1
20000164:	200001c1 	.word	0x200001c1
20000168:	200001c1 	.word	0x200001c1
2000016c:	200001c1 	.word	0x200001c1
20000170:	200001c1 	.word	0x200001c1
20000174:	200001c1 	.word	0x200001c1
20000178:	200001c1 	.word	0x200001c1
2000017c:	200001c1 	.word	0x200001c1
20000180:	200001c1 	.word	0x200001c1
20000184:	200001c1 	.word	0x200001c1
20000188:	200001c1 	.word	0x200001c1
2000018c:	200001c1 	.word	0x200001c1
20000190:	200001c1 	.word	0x200001c1
20000194:	200001c1 	.word	0x200001c1
20000198:	200001c1 	.word	0x200001c1
2000019c:	200001c1 	.word	0x200001c1
200001a0:	200001c1 	.word	0x200001c1
200001a4:	200001c1 	.word	0x200001c1
200001a8:	200001c1 	.word	0x200001c1
200001ac:	200001c1 	.word	0x200001c1
200001b0:	200001c1 	.word	0x200001c1
200001b4:	200001c1 	.word	0x200001c1
200001b8:	200001c1 	.word	0x200001c1
200001bc:	200001c1 	.word	0x200001c1

200001c0 <__unhandled_user_irq>:
200001c0:	f3ef 8005 	mrs	r0, IPSR
200001c4:	3810      	subs	r0, #16

200001c6 <unhandled_user_irq_num_in_r0>:
200001c6:	be00      	bkpt	0x0000

200001c8 <isr_invalid>:
200001c8:	be00      	bkpt	0x0000

200001ca <isr_nmi>:
200001ca:	be00      	bkpt	0x0000

200001cc <isr_hardfault>:
200001cc:	be00      	bkpt	0x0000

200001ce <isr_svcall>:
200001ce:	be00      	bkpt	0x0000

200001d0 <isr_pendsv>:
200001d0:	be00      	bkpt	0x0000

200001d2 <isr_systick>:
200001d2:	be00      	bkpt	0x0000

200001d4 <mutex_try_enter>:
200001d4:	0003      	movs	r3, r0
200001d6:	6802      	ldr	r2, [r0, #0]
200001d8:	4694      	mov	ip, r2
200001da:	f3ef 8210 	mrs	r2, PRIMASK
200001de:	b672      	cpsid	i
200001e0:	4660      	mov	r0, ip
200001e2:	6800      	ldr	r0, [r0, #0]
200001e4:	2800      	cmp	r0, #0
200001e6:	d0fb      	beq.n	200001e0 <mutex_try_enter+0xc>
200001e8:	f3bf 8f5f 	dmb	sy
200001ec:	2004      	movs	r0, #4
200001ee:	5618      	ldrsb	r0, [r3, r0]
200001f0:	2800      	cmp	r0, #0
200001f2:	db0b      	blt.n	2000020c <mutex_try_enter+0x38>
200001f4:	2900      	cmp	r1, #0
200001f6:	d010      	beq.n	2000021a <mutex_try_enter+0x46>
200001f8:	6008      	str	r0, [r1, #0]
200001fa:	2000      	movs	r0, #0
200001fc:	681b      	ldr	r3, [r3, #0]
200001fe:	f3bf 8f5f 	dmb	sy
20000202:	2100      	movs	r1, #0
20000204:	6019      	str	r1, [r3, #0]
20000206:	f382 8810 	msr	PRIMASK, r2
2000020a:	4770      	bx	lr
2000020c:	21d0      	movs	r1, #208	@ 0xd0
2000020e:	0609      	lsls	r1, r1, #24
20000210:	7809      	ldrb	r1, [r1, #0]
20000212:	b249      	sxtb	r1, r1
20000214:	7119      	strb	r1, [r3, #4]
20000216:	2001      	movs	r0, #1
20000218:	e7f0      	b.n	200001fc <mutex_try_enter+0x28>
2000021a:	2000      	movs	r0, #0
2000021c:	e7ee      	b.n	200001fc <mutex_try_enter+0x28>
	...

20000220 <mutex_enter_block_until>:
20000220:	b5f8      	push	{r3, r4, r5, r6, r7, lr}
20000222:	0004      	movs	r4, r0
20000224:	0015      	movs	r5, r2
20000226:	001e      	movs	r6, r3
20000228:	6803      	ldr	r3, [r0, #0]
2000022a:	2b00      	cmp	r3, #0
2000022c:	d020      	beq.n	20000270 <mutex_enter_block_until+0x50>
2000022e:	23d0      	movs	r3, #208	@ 0xd0
20000230:	061b      	lsls	r3, r3, #24
20000232:	781b      	ldrb	r3, [r3, #0]
20000234:	b25b      	sxtb	r3, r3
20000236:	001f      	movs	r7, r3
20000238:	6823      	ldr	r3, [r4, #0]
2000023a:	f3ef 8110 	mrs	r1, PRIMASK
2000023e:	b672      	cpsid	i
20000240:	6818      	ldr	r0, [r3, #0]
20000242:	2800      	cmp	r0, #0
20000244:	d0fc      	beq.n	20000240 <mutex_enter_block_until+0x20>
20000246:	f3bf 8f5f 	dmb	sy
2000024a:	2304      	movs	r3, #4
2000024c:	56e3      	ldrsb	r3, [r4, r3]
2000024e:	2b00      	cmp	r3, #0
20000250:	db14      	blt.n	2000027c <mutex_enter_block_until+0x5c>
20000252:	6823      	ldr	r3, [r4, #0]
20000254:	f3bf 8f5f 	dmb	sy
20000258:	2200      	movs	r2, #0
2000025a:	601a      	str	r2, [r3, #0]
2000025c:	f381 8810 	msr	PRIMASK, r1
20000260:	0028      	movs	r0, r5
20000262:	0031      	movs	r1, r6
20000264:	f001 fb7c 	bl	20001960 <best_effort_wfe_or_timeout>
20000268:	2800      	cmp	r0, #0
2000026a:	d0e5      	beq.n	20000238 <mutex_enter_block_until+0x18>
2000026c:	2000      	movs	r0, #0
2000026e:	e00e      	b.n	2000028e <mutex_enter_block_until+0x6e>
20000270:	4b07      	ldr	r3, [pc, #28]	@ (20000290 <mutex_enter_block_until+0x70>)
20000272:	4a08      	ldr	r2, [pc, #32]	@ (20000294 <mutex_enter_block_until+0x74>)
20000274:	4808      	ldr	r0, [pc, #32]	@ (20000298 <mutex_enter_block_until+0x78>)
20000276:	21a6      	movs	r1, #166	@ 0xa6
20000278:	f003 ff2e 	bl	200040d8 <__assert_func>
2000027c:	7127      	strb	r7, [r4, #4]
2000027e:	6823      	ldr	r3, [r4, #0]
20000280:	f3bf 8f5f 	dmb	sy
20000284:	2200      	movs	r2, #0
20000286:	601a      	str	r2, [r3, #0]
20000288:	f381 8810 	msr	PRIMASK, r1
2000028c:	2001      	movs	r0, #1
2000028e:	bdf8      	pop	{r3, r4, r5, r6, r7, pc}
20000290:	20007394 	.word	0x20007394
20000294:	20007ac8 	.word	0x20007ac8
20000298:	2000734c 	.word	0x2000734c

2000029c <mutex_try_enter_block_until>:
2000029c:	b570      	push	{r4, r5, r6, lr}
2000029e:	b082      	sub	sp, #8
200002a0:	0006      	movs	r6, r0
200002a2:	0015      	movs	r5, r2
200002a4:	001c      	movs	r4, r3
200002a6:	a901      	add	r1, sp, #4
200002a8:	f7ff ff94 	bl	200001d4 <mutex_try_enter>
200002ac:	2800      	cmp	r0, #0
200002ae:	d107      	bne.n	200002c0 <mutex_try_enter_block_until+0x24>
200002b0:	9b01      	ldr	r3, [sp, #4]
200002b2:	b25b      	sxtb	r3, r3
200002b4:	22d0      	movs	r2, #208	@ 0xd0
200002b6:	0612      	lsls	r2, r2, #24
200002b8:	7812      	ldrb	r2, [r2, #0]
200002ba:	b252      	sxtb	r2, r2
200002bc:	4293      	cmp	r3, r2
200002be:	d101      	bne.n	200002c4 <mutex_try_enter_block_until+0x28>
200002c0:	b002      	add	sp, #8
200002c2:	bd70      	pop	{r4, r5, r6, pc}
200002c4:	002a      	movs	r2, r5
200002c6:	0023      	movs	r3, r4
200002c8:	0030      	movs	r0, r6
200002ca:	f7ff ffa9 	bl	20000220 <mutex_enter_block_until>
200002ce:	e7f7      	b.n	200002c0 <mutex_try_enter_block_until+0x24>

200002d0 <mutex_enter_timeout_ms>:
200002d0:	b5f8      	push	{r3, r4, r5, r6, r7, lr}
200002d2:	0007      	movs	r7, r0
200002d4:	000c      	movs	r4, r1
200002d6:	f001 fc13 	bl	20001b00 <time_us_64>
200002da:	0005      	movs	r5, r0
200002dc:	000e      	movs	r6, r1
200002de:	22fa      	movs	r2, #250	@ 0xfa
200002e0:	0092      	lsls	r2, r2, #2
200002e2:	2300      	movs	r3, #0
200002e4:	0020      	movs	r0, r4
200002e6:	2100      	movs	r1, #0
200002e8:	f002 fd36 	bl	20002d58 <__wrap___aeabi_lmul>
200002ec:	002a      	movs	r2, r5
200002ee:	0033      	movs	r3, r6
200002f0:	1812      	adds	r2, r2, r0
200002f2:	414b      	adcs	r3, r1
200002f4:	2b00      	cmp	r3, #0
200002f6:	db03      	blt.n	20000300 <mutex_enter_timeout_ms+0x30>
200002f8:	0038      	movs	r0, r7
200002fa:	f7ff ff91 	bl	20000220 <mutex_enter_block_until>
200002fe:	bdf8      	pop	{r3, r4, r5, r6, r7, pc}
20000300:	2201      	movs	r2, #1
20000302:	4252      	negs	r2, r2
20000304:	4b00      	ldr	r3, [pc, #0]	@ (20000308 <mutex_enter_timeout_ms+0x38>)
20000306:	e7f7      	b.n	200002f8 <mutex_enter_timeout_ms+0x28>
20000308:	7fffffff 	.word	0x7fffffff

2000030c <mutex_exit>:
2000030c:	b510      	push	{r4, lr}
2000030e:	6801      	ldr	r1, [r0, #0]
20000310:	f3ef 8310 	mrs	r3, PRIMASK
20000314:	b672      	cpsid	i
20000316:	680a      	ldr	r2, [r1, #0]
20000318:	2a00      	cmp	r2, #0
2000031a:	d0fc      	beq.n	20000316 <mutex_exit+0xa>
2000031c:	f3bf 8f5f 	dmb	sy
20000320:	2204      	movs	r2, #4
20000322:	5682      	ldrsb	r2, [r0, r2]
20000324:	2a00      	cmp	r2, #0
20000326:	db0a      	blt.n	2000033e <mutex_exit+0x32>
20000328:	22ff      	movs	r2, #255	@ 0xff
2000032a:	7102      	strb	r2, [r0, #4]
2000032c:	6802      	ldr	r2, [r0, #0]
2000032e:	f3bf 8f5f 	dmb	sy
20000332:	2100      	movs	r1, #0
20000334:	6011      	str	r1, [r2, #0]
20000336:	f383 8810 	msr	PRIMASK, r3
2000033a:	bf40      	sev
2000033c:	bd10      	pop	{r4, pc}
2000033e:	4b03      	ldr	r3, [pc, #12]	@ (2000034c <mutex_exit+0x40>)
20000340:	4a03      	ldr	r2, [pc, #12]	@ (20000350 <mutex_exit+0x44>)
20000342:	4804      	ldr	r0, [pc, #16]	@ (20000354 <mutex_exit+0x48>)
20000344:	21d5      	movs	r1, #213	@ 0xd5
20000346:	f003 fec7 	bl	200040d8 <__assert_func>
2000034a:	46c0      	nop			@ (mov r8, r8)
2000034c:	200073a8 	.word	0x200073a8
20000350:	20007abc 	.word	0x20007abc
20000354:	2000734c 	.word	0x2000734c

20000358 <reset_non_control_endpoints>:
20000358:	b510      	push	{r4, lr}
2000035a:	2300      	movs	r3, #0
2000035c:	e008      	b.n	20000370 <reset_non_control_endpoints+0x18>
2000035e:	3301      	adds	r3, #1
20000360:	00da      	lsls	r2, r3, #3
20000362:	2100      	movs	r1, #0
20000364:	4808      	ldr	r0, [pc, #32]	@ (20000388 <reset_non_control_endpoints+0x30>)
20000366:	5011      	str	r1, [r2, r0]
20000368:	4684      	mov	ip, r0
2000036a:	4462      	add	r2, ip
2000036c:	6051      	str	r1, [r2, #4]
2000036e:	b2db      	uxtb	r3, r3
20000370:	2b0e      	cmp	r3, #14
20000372:	d9f4      	bls.n	2000035e <reset_non_control_endpoints+0x6>
20000374:	4805      	ldr	r0, [pc, #20]	@ (2000038c <reset_non_control_endpoints+0x34>)
20000376:	22f0      	movs	r2, #240	@ 0xf0
20000378:	0092      	lsls	r2, r2, #2
2000037a:	2100      	movs	r1, #0
2000037c:	f002 fda6 	bl	20002ecc <__wrap_memset>
20000380:	4b03      	ldr	r3, [pc, #12]	@ (20000390 <reset_non_control_endpoints+0x38>)
20000382:	4a04      	ldr	r2, [pc, #16]	@ (20000394 <reset_non_control_endpoints+0x3c>)
20000384:	601a      	str	r2, [r3, #0]
20000386:	bd10      	pop	{r4, pc}
20000388:	50100000 	.word	0x50100000
2000038c:	2000870c 	.word	0x2000870c
20000390:	20008ad0 	.word	0x20008ad0
20000394:	50100180 	.word	0x50100180

20000398 <hw_handle_buff_status>:
20000398:	b5f0      	push	{r4, r5, r6, r7, lr}
2000039a:	46ce      	mov	lr, r9
2000039c:	4647      	mov	r7, r8
2000039e:	b580      	push	{r7, lr}
200003a0:	b085      	sub	sp, #20
200003a2:	4b21      	ldr	r3, [pc, #132]	@ (20000428 <hw_handle_buff_status+0x90>)
200003a4:	6d9f      	ldr	r7, [r3, #88]	@ 0x58
200003a6:	2400      	movs	r4, #0
200003a8:	2601      	movs	r6, #1
200003aa:	e003      	b.n	200003b4 <hw_handle_buff_status+0x1c>
200003ac:	43b7      	bics	r7, r6
200003ae:	0076      	lsls	r6, r6, #1
200003b0:	3401      	adds	r4, #1
200003b2:	b2e4      	uxtb	r4, r4
200003b4:	2f00      	cmp	r7, #0
200003b6:	d031      	beq.n	2000041c <hw_handle_buff_status+0x84>
200003b8:	2c1f      	cmp	r4, #31
200003ba:	d82f      	bhi.n	2000041c <hw_handle_buff_status+0x84>
200003bc:	423e      	tst	r6, r7
200003be:	d0f6      	beq.n	200003ae <hw_handle_buff_status+0x16>
200003c0:	4b1a      	ldr	r3, [pc, #104]	@ (2000042c <hw_handle_buff_status+0x94>)
200003c2:	659e      	str	r6, [r3, #88]	@ 0x58
200003c4:	0863      	lsrs	r3, r4, #1
200003c6:	4699      	mov	r9, r3
200003c8:	2301      	movs	r3, #1
200003ca:	4023      	ands	r3, r4
200003cc:	2201      	movs	r2, #1
200003ce:	4053      	eors	r3, r2
200003d0:	b2db      	uxtb	r3, r3
200003d2:	4698      	mov	r8, r3
200003d4:	464b      	mov	r3, r9
200003d6:	005d      	lsls	r5, r3, #1
200003d8:	4445      	add	r5, r8
200003da:	016d      	lsls	r5, r5, #5
200003dc:	4b14      	ldr	r3, [pc, #80]	@ (20000430 <hw_handle_buff_status+0x98>)
200003de:	18ed      	adds	r5, r5, r3
200003e0:	0028      	movs	r0, r5
200003e2:	f000 fa43 	bl	2000086c <hw_endpoint_xfer_continue>
200003e6:	2800      	cmp	r0, #0
200003e8:	d0e0      	beq.n	200003ac <hw_handle_buff_status+0x14>
200003ea:	4a11      	ldr	r2, [pc, #68]	@ (20000430 <hw_handle_buff_status+0x98>)
200003ec:	464b      	mov	r3, r9
200003ee:	005b      	lsls	r3, r3, #1
200003f0:	4443      	add	r3, r8
200003f2:	015b      	lsls	r3, r3, #5
200003f4:	18d3      	adds	r3, r2, r3
200003f6:	7899      	ldrb	r1, [r3, #2]
200003f8:	8ada      	ldrh	r2, [r3, #22]
200003fa:	a801      	add	r0, sp, #4
200003fc:	2300      	movs	r3, #0
200003fe:	4698      	mov	r8, r3
20000400:	7003      	strb	r3, [r0, #0]
20000402:	3307      	adds	r3, #7
20000404:	7043      	strb	r3, [r0, #1]
20000406:	7101      	strb	r1, [r0, #4]
20000408:	6082      	str	r2, [r0, #8]
2000040a:	4643      	mov	r3, r8
2000040c:	7143      	strb	r3, [r0, #5]
2000040e:	2101      	movs	r1, #1
20000410:	f000 fa4c 	bl	200008ac <dcd_event_handler>
20000414:	0028      	movs	r0, r5
20000416:	f000 f9bf 	bl	20000798 <hw_endpoint_reset_transfer>
2000041a:	e7c7      	b.n	200003ac <hw_handle_buff_status+0x14>
2000041c:	b005      	add	sp, #20
2000041e:	bcc0      	pop	{r6, r7}
20000420:	46b9      	mov	r9, r7
20000422:	46b0      	mov	r8, r6
20000424:	bdf0      	pop	{r4, r5, r6, r7, pc}
20000426:	46c0      	nop			@ (mov r8, r8)
20000428:	50110000 	.word	0x50110000
2000042c:	50113000 	.word	0x50113000
20000430:	200086cc 	.word	0x200086cc

20000434 <dcd_rp2040_irq>:
20000434:	b5f0      	push	{r4, r5, r6, r7, lr}
20000436:	46ce      	mov	lr, r9
20000438:	4647      	mov	r7, r8
2000043a:	b580      	push	{r7, lr}
2000043c:	b085      	sub	sp, #20
2000043e:	4a73      	ldr	r2, [pc, #460]	@ (2000060c <dcd_rp2040_irq+0x1d8>)
20000440:	2398      	movs	r3, #152	@ 0x98
20000442:	58d5      	ldr	r5, [r2, r3]
20000444:	2380      	movs	r3, #128	@ 0x80
20000446:	029b      	lsls	r3, r3, #10
20000448:	002f      	movs	r7, r5
2000044a:	401f      	ands	r7, r3
2000044c:	421d      	tst	r5, r3
2000044e:	d045      	beq.n	200004dc <dcd_rp2040_irq+0xa8>
20000450:	4b6f      	ldr	r3, [pc, #444]	@ (20000610 <dcd_rp2040_irq+0x1dc>)
20000452:	6a9a      	ldr	r2, [r3, #40]	@ 0x28
20000454:	4b6f      	ldr	r3, [pc, #444]	@ (20000614 <dcd_rp2040_irq+0x1e0>)
20000456:	601a      	str	r2, [r3, #0]
20000458:	2400      	movs	r4, #0
2000045a:	2100      	movs	r1, #0
2000045c:	e009      	b.n	20000472 <dcd_rp2040_irq+0x3e>
2000045e:	4b6e      	ldr	r3, [pc, #440]	@ (20000618 <dcd_rp2040_irq+0x1e4>)
20000460:	185b      	adds	r3, r3, r1
20000462:	333c      	adds	r3, #60	@ 0x3c
20000464:	2200      	movs	r2, #0
20000466:	701a      	strb	r2, [r3, #0]
20000468:	f000 f9c2 	bl	200007f0 <hw_endpoint_start_next_buffer>
2000046c:	0031      	movs	r1, r6
2000046e:	3401      	adds	r4, #1
20000470:	b2e4      	uxtb	r4, r4
20000472:	2c0f      	cmp	r4, #15
20000474:	d818      	bhi.n	200004a8 <dcd_rp2040_irq+0x74>
20000476:	01a6      	lsls	r6, r4, #6
20000478:	0030      	movs	r0, r6
2000047a:	3020      	adds	r0, #32
2000047c:	4b66      	ldr	r3, [pc, #408]	@ (20000618 <dcd_rp2040_irq+0x1e4>)
2000047e:	18c0      	adds	r0, r0, r3
20000480:	199b      	adds	r3, r3, r6
20000482:	333b      	adds	r3, #59	@ 0x3b
20000484:	781b      	ldrb	r3, [r3, #0]
20000486:	2b02      	cmp	r3, #2
20000488:	d1f1      	bne.n	2000046e <dcd_rp2040_irq+0x3a>
2000048a:	4b63      	ldr	r3, [pc, #396]	@ (20000618 <dcd_rp2040_irq+0x1e4>)
2000048c:	199b      	adds	r3, r3, r6
2000048e:	333a      	adds	r3, #58	@ 0x3a
20000490:	781e      	ldrb	r6, [r3, #0]
20000492:	2e00      	cmp	r6, #0
20000494:	d0eb      	beq.n	2000046e <dcd_rp2040_irq+0x3a>
20000496:	4b60      	ldr	r3, [pc, #384]	@ (20000618 <dcd_rp2040_irq+0x1e4>)
20000498:	01a1      	lsls	r1, r4, #6
2000049a:	185b      	adds	r3, r3, r1
2000049c:	333c      	adds	r3, #60	@ 0x3c
2000049e:	781b      	ldrb	r3, [r3, #0]
200004a0:	2b00      	cmp	r3, #0
200004a2:	d1dc      	bne.n	2000045e <dcd_rp2040_irq+0x2a>
200004a4:	0031      	movs	r1, r6
200004a6:	e7e2      	b.n	2000046e <dcd_rp2040_irq+0x3a>
200004a8:	2900      	cmp	r1, #0
200004aa:	d108      	bne.n	200004be <dcd_rp2040_irq+0x8a>
200004ac:	4b5b      	ldr	r3, [pc, #364]	@ (2000061c <dcd_rp2040_irq+0x1e8>)
200004ae:	781b      	ldrb	r3, [r3, #0]
200004b0:	2b00      	cmp	r3, #0
200004b2:	d104      	bne.n	200004be <dcd_rp2040_irq+0x8a>
200004b4:	4a5a      	ldr	r2, [pc, #360]	@ (20000620 <dcd_rp2040_irq+0x1ec>)
200004b6:	3390      	adds	r3, #144	@ 0x90
200004b8:	2180      	movs	r1, #128	@ 0x80
200004ba:	0289      	lsls	r1, r1, #10
200004bc:	50d1      	str	r1, [r2, r3]
200004be:	4b53      	ldr	r3, [pc, #332]	@ (2000060c <dcd_rp2040_irq+0x1d8>)
200004c0:	6c9b      	ldr	r3, [r3, #72]	@ 0x48
200004c2:	055b      	lsls	r3, r3, #21
200004c4:	0d5b      	lsrs	r3, r3, #21
200004c6:	a801      	add	r0, sp, #4
200004c8:	2200      	movs	r2, #0
200004ca:	7002      	strb	r2, [r0, #0]
200004cc:	3203      	adds	r2, #3
200004ce:	7042      	strb	r2, [r0, #1]
200004d0:	6043      	str	r3, [r0, #4]
200004d2:	2101      	movs	r1, #1
200004d4:	f000 f9ea 	bl	200008ac <dcd_event_handler>
200004d8:	2780      	movs	r7, #128	@ 0x80
200004da:	02bf      	lsls	r7, r7, #10
200004dc:	06eb      	lsls	r3, r5, #27
200004de:	d406      	bmi.n	200004ee <dcd_rp2040_irq+0xba>
200004e0:	03eb      	lsls	r3, r5, #15
200004e2:	d54d      	bpl.n	20000580 <dcd_rp2040_irq+0x14c>
200004e4:	2380      	movs	r3, #128	@ 0x80
200004e6:	025b      	lsls	r3, r3, #9
200004e8:	431f      	orrs	r7, r3
200004ea:	2400      	movs	r4, #0
200004ec:	e016      	b.n	2000051c <dcd_rp2040_irq+0xe8>
200004ee:	2310      	movs	r3, #16
200004f0:	431f      	orrs	r7, r3
200004f2:	f7ff ff51 	bl	20000398 <hw_handle_buff_status>
200004f6:	e7f3      	b.n	200004e0 <dcd_rp2040_irq+0xac>
200004f8:	2602      	movs	r6, #2
200004fa:	e01c      	b.n	20000536 <dcd_rp2040_irq+0x102>
200004fc:	4b49      	ldr	r3, [pc, #292]	@ (20000624 <dcd_rp2040_irq+0x1f0>)
200004fe:	661e      	str	r6, [r3, #96]	@ 0x60
20000500:	4b42      	ldr	r3, [pc, #264]	@ (2000060c <dcd_rp2040_irq+0x1d8>)
20000502:	6e5b      	ldr	r3, [r3, #100]	@ 0x64
20000504:	4033      	ands	r3, r6
20000506:	429e      	cmp	r6, r3
20000508:	d1fa      	bne.n	20000500 <dcd_rp2040_irq+0xcc>
2000050a:	e018      	b.n	2000053e <dcd_rp2040_irq+0x10a>
2000050c:	4b42      	ldr	r3, [pc, #264]	@ (20000618 <dcd_rp2040_irq+0x1e4>)
2000050e:	464a      	mov	r2, r9
20000510:	0152      	lsls	r2, r2, #5
20000512:	189b      	adds	r3, r3, r2
20000514:	2201      	movs	r2, #1
20000516:	70da      	strb	r2, [r3, #3]
20000518:	3401      	adds	r4, #1
2000051a:	b2e4      	uxtb	r4, r4
2000051c:	2c01      	cmp	r4, #1
2000051e:	d81f      	bhi.n	20000560 <dcd_rp2040_irq+0x12c>
20000520:	46a1      	mov	r9, r4
20000522:	0166      	lsls	r6, r4, #5
20000524:	4b3c      	ldr	r3, [pc, #240]	@ (20000618 <dcd_rp2040_irq+0x1e4>)
20000526:	18f3      	adds	r3, r6, r3
20000528:	4698      	mov	r8, r3
2000052a:	7e9b      	ldrb	r3, [r3, #26]
2000052c:	2b00      	cmp	r3, #0
2000052e:	d0ed      	beq.n	2000050c <dcd_rp2040_irq+0xd8>
20000530:	2c00      	cmp	r4, #0
20000532:	d0e1      	beq.n	200004f8 <dcd_rp2040_irq+0xc4>
20000534:	2601      	movs	r6, #1
20000536:	f000 fb2f 	bl	20000b98 <rp2040_chip_version>
2000053a:	2801      	cmp	r0, #1
2000053c:	d8de      	bhi.n	200004fc <dcd_rp2040_irq+0xc8>
2000053e:	22c0      	movs	r2, #192	@ 0xc0
20000540:	0192      	lsls	r2, r2, #6
20000542:	2100      	movs	r1, #0
20000544:	4640      	mov	r0, r8
20000546:	f000 f92d 	bl	200007a4 <_hw_endpoint_buffer_control_update32>
2000054a:	4640      	mov	r0, r8
2000054c:	f000 f924 	bl	20000798 <hw_endpoint_reset_transfer>
20000550:	f000 fb22 	bl	20000b98 <rp2040_chip_version>
20000554:	2801      	cmp	r0, #1
20000556:	d9d9      	bls.n	2000050c <dcd_rp2040_irq+0xd8>
20000558:	4b31      	ldr	r3, [pc, #196]	@ (20000620 <dcd_rp2040_irq+0x1ec>)
2000055a:	665e      	str	r6, [r3, #100]	@ 0x64
2000055c:	661e      	str	r6, [r3, #96]	@ 0x60
2000055e:	e7d5      	b.n	2000050c <dcd_rp2040_irq+0xd8>
20000560:	a801      	add	r0, sp, #4
20000562:	2300      	movs	r3, #0
20000564:	7003      	strb	r3, [r0, #0]
20000566:	3306      	adds	r3, #6
20000568:	7043      	strb	r3, [r0, #1]
2000056a:	4a2f      	ldr	r2, [pc, #188]	@ (20000628 <dcd_rp2040_irq+0x1f4>)
2000056c:	ab02      	add	r3, sp, #8
2000056e:	ca12      	ldmia	r2!, {r1, r4}
20000570:	c312      	stmia	r3!, {r1, r4}
20000572:	2101      	movs	r1, #1
20000574:	f000 f99a 	bl	200008ac <dcd_event_handler>
20000578:	4b29      	ldr	r3, [pc, #164]	@ (20000620 <dcd_rp2040_irq+0x1ec>)
2000057a:	2280      	movs	r2, #128	@ 0x80
2000057c:	0292      	lsls	r2, r2, #10
2000057e:	651a      	str	r2, [r3, #80]	@ 0x50
20000580:	04eb      	lsls	r3, r5, #19
20000582:	d40a      	bmi.n	2000059a <dcd_rp2040_irq+0x166>
20000584:	046b      	lsls	r3, r5, #17
20000586:	d41d      	bmi.n	200005c4 <dcd_rp2040_irq+0x190>
20000588:	042b      	lsls	r3, r5, #16
2000058a:	d42a      	bmi.n	200005e2 <dcd_rp2040_irq+0x1ae>
2000058c:	42af      	cmp	r7, r5
2000058e:	d138      	bne.n	20000602 <dcd_rp2040_irq+0x1ce>
20000590:	b005      	add	sp, #20
20000592:	bcc0      	pop	{r6, r7}
20000594:	46b9      	mov	r9, r7
20000596:	46b0      	mov	r8, r6
20000598:	bdf0      	pop	{r4, r5, r6, r7, pc}
2000059a:	2380      	movs	r3, #128	@ 0x80
2000059c:	015b      	lsls	r3, r3, #5
2000059e:	431f      	orrs	r7, r3
200005a0:	2400      	movs	r4, #0
200005a2:	4b1a      	ldr	r3, [pc, #104]	@ (2000060c <dcd_rp2040_irq+0x1d8>)
200005a4:	601c      	str	r4, [r3, #0]
200005a6:	f7ff fed7 	bl	20000358 <reset_non_control_endpoints>
200005aa:	a801      	add	r0, sp, #4
200005ac:	7004      	strb	r4, [r0, #0]
200005ae:	2301      	movs	r3, #1
200005b0:	7043      	strb	r3, [r0, #1]
200005b2:	7104      	strb	r4, [r0, #4]
200005b4:	2101      	movs	r1, #1
200005b6:	f000 f979 	bl	200008ac <dcd_event_handler>
200005ba:	4b19      	ldr	r3, [pc, #100]	@ (20000620 <dcd_rp2040_irq+0x1ec>)
200005bc:	2280      	movs	r2, #128	@ 0x80
200005be:	0312      	lsls	r2, r2, #12
200005c0:	651a      	str	r2, [r3, #80]	@ 0x50
200005c2:	e7df      	b.n	20000584 <dcd_rp2040_irq+0x150>
200005c4:	2380      	movs	r3, #128	@ 0x80
200005c6:	01db      	lsls	r3, r3, #7
200005c8:	431f      	orrs	r7, r3
200005ca:	a801      	add	r0, sp, #4
200005cc:	2300      	movs	r3, #0
200005ce:	7003      	strb	r3, [r0, #0]
200005d0:	3304      	adds	r3, #4
200005d2:	7043      	strb	r3, [r0, #1]
200005d4:	2101      	movs	r1, #1
200005d6:	f000 f969 	bl	200008ac <dcd_event_handler>
200005da:	4b11      	ldr	r3, [pc, #68]	@ (20000620 <dcd_rp2040_irq+0x1ec>)
200005dc:	2210      	movs	r2, #16
200005de:	651a      	str	r2, [r3, #80]	@ 0x50
200005e0:	e7d2      	b.n	20000588 <dcd_rp2040_irq+0x154>
200005e2:	2380      	movs	r3, #128	@ 0x80
200005e4:	021b      	lsls	r3, r3, #8
200005e6:	431f      	orrs	r7, r3
200005e8:	a801      	add	r0, sp, #4
200005ea:	2300      	movs	r3, #0
200005ec:	7003      	strb	r3, [r0, #0]
200005ee:	3305      	adds	r3, #5
200005f0:	7043      	strb	r3, [r0, #1]
200005f2:	2101      	movs	r1, #1
200005f4:	f000 f95a 	bl	200008ac <dcd_event_handler>
200005f8:	4b09      	ldr	r3, [pc, #36]	@ (20000620 <dcd_rp2040_irq+0x1ec>)
200005fa:	2280      	movs	r2, #128	@ 0x80
200005fc:	0112      	lsls	r2, r2, #4
200005fe:	651a      	str	r2, [r3, #80]	@ 0x50
20000600:	e7c4      	b.n	2000058c <dcd_rp2040_irq+0x158>
20000602:	0039      	movs	r1, r7
20000604:	4069      	eors	r1, r5
20000606:	4809      	ldr	r0, [pc, #36]	@ (2000062c <dcd_rp2040_irq+0x1f8>)
20000608:	f000 faf0 	bl	20000bec <panic>
2000060c:	50110000 	.word	0x50110000
20000610:	40054000 	.word	0x40054000
20000614:	200086c4 	.word	0x200086c4
20000618:	200086cc 	.word	0x200086cc
2000061c:	20008d16 	.word	0x20008d16
20000620:	50113000 	.word	0x50113000
20000624:	50112000 	.word	0x50112000
20000628:	50100000 	.word	0x50100000
2000062c:	20007938 	.word	0x20007938

20000630 <prepare_ep_buffer>:
20000630:	b5f8      	push	{r3, r4, r5, r6, r7, lr}
20000632:	0004      	movs	r4, r0
20000634:	000f      	movs	r7, r1
20000636:	8a83      	ldrh	r3, [r0, #20]
20000638:	8b02      	ldrh	r2, [r0, #24]
2000063a:	1c1e      	adds	r6, r3, #0
2000063c:	4293      	cmp	r3, r2
2000063e:	d900      	bls.n	20000642 <prepare_ep_buffer+0x12>
20000640:	1c16      	adds	r6, r2, #0
20000642:	b2b6      	uxth	r6, r6
20000644:	1b9b      	subs	r3, r3, r6
20000646:	82a3      	strh	r3, [r4, #20]
20000648:	2280      	movs	r2, #128	@ 0x80
2000064a:	00d2      	lsls	r2, r2, #3
2000064c:	4332      	orrs	r2, r6
2000064e:	78e3      	ldrb	r3, [r4, #3]
20000650:	2b00      	cmp	r3, #0
20000652:	d013      	beq.n	2000067c <prepare_ep_buffer+0x4c>
20000654:	2580      	movs	r5, #128	@ 0x80
20000656:	01ad      	lsls	r5, r5, #6
20000658:	4315      	orrs	r5, r2
2000065a:	2201      	movs	r2, #1
2000065c:	4053      	eors	r3, r2
2000065e:	70e3      	strb	r3, [r4, #3]
20000660:	7863      	ldrb	r3, [r4, #1]
20000662:	2b00      	cmp	r3, #0
20000664:	d00c      	beq.n	20000680 <prepare_ep_buffer+0x50>
20000666:	8aa3      	ldrh	r3, [r4, #20]
20000668:	2b00      	cmp	r3, #0
2000066a:	d102      	bne.n	20000672 <prepare_ep_buffer+0x42>
2000066c:	2380      	movs	r3, #128	@ 0x80
2000066e:	01db      	lsls	r3, r3, #7
20000670:	431d      	orrs	r5, r3
20000672:	2f00      	cmp	r7, #0
20000674:	d000      	beq.n	20000678 <prepare_ep_buffer+0x48>
20000676:	042d      	lsls	r5, r5, #16
20000678:	0028      	movs	r0, r5
2000067a:	bdf8      	pop	{r3, r4, r5, r6, r7, pc}
2000067c:	2500      	movs	r5, #0
2000067e:	e7eb      	b.n	20000658 <prepare_ep_buffer+0x28>
20000680:	68e0      	ldr	r0, [r4, #12]
20000682:	01bb      	lsls	r3, r7, #6
20000684:	18c0      	adds	r0, r0, r3
20000686:	6921      	ldr	r1, [r4, #16]
20000688:	0032      	movs	r2, r6
2000068a:	f004 fba7 	bl	20004ddc <unaligned_memcpy>
2000068e:	6923      	ldr	r3, [r4, #16]
20000690:	199b      	adds	r3, r3, r6
20000692:	6123      	str	r3, [r4, #16]
20000694:	2380      	movs	r3, #128	@ 0x80
20000696:	021b      	lsls	r3, r3, #8
20000698:	431d      	orrs	r5, r3
2000069a:	e7e4      	b.n	20000666 <prepare_ep_buffer+0x36>

2000069c <e15_is_bulkin_ep>:
2000069c:	4b09      	ldr	r3, [pc, #36]	@ (200006c4 <e15_is_bulkin_ep+0x28>)
2000069e:	6c1b      	ldr	r3, [r3, #64]	@ 0x40
200006a0:	079b      	lsls	r3, r3, #30
200006a2:	d40c      	bmi.n	200006be <e15_is_bulkin_ep+0x22>
200006a4:	7883      	ldrb	r3, [r0, #2]
200006a6:	09db      	lsrs	r3, r3, #7
200006a8:	2b01      	cmp	r3, #1
200006aa:	d001      	beq.n	200006b0 <e15_is_bulkin_ep+0x14>
200006ac:	2000      	movs	r0, #0
200006ae:	e007      	b.n	200006c0 <e15_is_bulkin_ep+0x24>
200006b0:	7ec3      	ldrb	r3, [r0, #27]
200006b2:	2b02      	cmp	r3, #2
200006b4:	d001      	beq.n	200006ba <e15_is_bulkin_ep+0x1e>
200006b6:	2000      	movs	r0, #0
200006b8:	e002      	b.n	200006c0 <e15_is_bulkin_ep+0x24>
200006ba:	2001      	movs	r0, #1
200006bc:	e000      	b.n	200006c0 <e15_is_bulkin_ep+0x24>
200006be:	2000      	movs	r0, #0
200006c0:	4770      	bx	lr
200006c2:	46c0      	nop			@ (mov r8, r8)
200006c4:	50110000 	.word	0x50110000

200006c8 <e15_is_critical_frame_period>:
200006c8:	b510      	push	{r4, lr}
200006ca:	f7ff ffe7 	bl	2000069c <e15_is_bulkin_ep>
200006ce:	2800      	cmp	r0, #0
200006d0:	d009      	beq.n	200006e6 <e15_is_critical_frame_period+0x1e>
200006d2:	4b06      	ldr	r3, [pc, #24]	@ (200006ec <e15_is_critical_frame_period+0x24>)
200006d4:	6a9b      	ldr	r3, [r3, #40]	@ 0x28
200006d6:	4a06      	ldr	r2, [pc, #24]	@ (200006f0 <e15_is_critical_frame_period+0x28>)
200006d8:	6812      	ldr	r2, [r2, #0]
200006da:	1a9b      	subs	r3, r3, r2
200006dc:	4a05      	ldr	r2, [pc, #20]	@ (200006f4 <e15_is_critical_frame_period+0x2c>)
200006de:	4694      	mov	ip, r2
200006e0:	4463      	add	r3, ip
200006e2:	2bc6      	cmp	r3, #198	@ 0xc6
200006e4:	d800      	bhi.n	200006e8 <e15_is_critical_frame_period+0x20>
200006e6:	bd10      	pop	{r4, pc}
200006e8:	2000      	movs	r0, #0
200006ea:	e7fc      	b.n	200006e6 <e15_is_critical_frame_period+0x1e>
200006ec:	40054000 	.word	0x40054000
200006f0:	200086c4 	.word	0x200086c4
200006f4:	fffffce0 	.word	0xfffffce0

200006f8 <sync_ep_buffer>:
200006f8:	b570      	push	{r4, r5, r6, lr}
200006fa:	0004      	movs	r4, r0
200006fc:	6883      	ldr	r3, [r0, #8]
200006fe:	681b      	ldr	r3, [r3, #0]
20000700:	2900      	cmp	r1, #0
20000702:	d000      	beq.n	20000706 <sync_ep_buffer+0xe>
20000704:	0c1b      	lsrs	r3, r3, #16
20000706:	059d      	lsls	r5, r3, #22
20000708:	0dad      	lsrs	r5, r5, #22
2000070a:	7862      	ldrb	r2, [r4, #1]
2000070c:	2a00      	cmp	r2, #0
2000070e:	d111      	bne.n	20000734 <sync_ep_buffer+0x3c>
20000710:	041b      	lsls	r3, r3, #16
20000712:	d409      	bmi.n	20000728 <sync_ep_buffer+0x30>
20000714:	8ae3      	ldrh	r3, [r4, #22]
20000716:	195b      	adds	r3, r3, r5
20000718:	82e3      	strh	r3, [r4, #22]
2000071a:	8b23      	ldrh	r3, [r4, #24]
2000071c:	42ab      	cmp	r3, r5
2000071e:	d901      	bls.n	20000724 <sync_ep_buffer+0x2c>
20000720:	2300      	movs	r3, #0
20000722:	82a3      	strh	r3, [r4, #20]
20000724:	0028      	movs	r0, r5
20000726:	bd70      	pop	{r4, r5, r6, pc}
20000728:	4b0d      	ldr	r3, [pc, #52]	@ (20000760 <sync_ep_buffer+0x68>)
2000072a:	4a0e      	ldr	r2, [pc, #56]	@ (20000764 <sync_ep_buffer+0x6c>)
2000072c:	480e      	ldr	r0, [pc, #56]	@ (20000768 <sync_ep_buffer+0x70>)
2000072e:	21e8      	movs	r1, #232	@ 0xe8
20000730:	f003 fcd2 	bl	200040d8 <__assert_func>
20000734:	041b      	lsls	r3, r3, #16
20000736:	d50d      	bpl.n	20000754 <sync_ep_buffer+0x5c>
20000738:	6920      	ldr	r0, [r4, #16]
2000073a:	68e3      	ldr	r3, [r4, #12]
2000073c:	0189      	lsls	r1, r1, #6
2000073e:	1859      	adds	r1, r3, r1
20000740:	002a      	movs	r2, r5
20000742:	f004 fb4b 	bl	20004ddc <unaligned_memcpy>
20000746:	8ae3      	ldrh	r3, [r4, #22]
20000748:	195b      	adds	r3, r3, r5
2000074a:	82e3      	strh	r3, [r4, #22]
2000074c:	6923      	ldr	r3, [r4, #16]
2000074e:	195b      	adds	r3, r3, r5
20000750:	6123      	str	r3, [r4, #16]
20000752:	e7e2      	b.n	2000071a <sync_ep_buffer+0x22>
20000754:	4b05      	ldr	r3, [pc, #20]	@ (2000076c <sync_ep_buffer+0x74>)
20000756:	4a03      	ldr	r2, [pc, #12]	@ (20000764 <sync_ep_buffer+0x6c>)
20000758:	4803      	ldr	r0, [pc, #12]	@ (20000768 <sync_ep_buffer+0x70>)
2000075a:	21ee      	movs	r1, #238	@ 0xee
2000075c:	f003 fcbc 	bl	200040d8 <__assert_func>
20000760:	20007958 	.word	0x20007958
20000764:	20007dbc 	.word	0x20007dbc
20000768:	20007978 	.word	0x20007978
2000076c:	200079d4 	.word	0x200079d4

20000770 <_hw_endpoint_xfer_sync>:
20000770:	b510      	push	{r4, lr}
20000772:	0004      	movs	r4, r0
20000774:	6883      	ldr	r3, [r0, #8]
20000776:	681b      	ldr	r3, [r3, #0]
20000778:	2100      	movs	r1, #0
2000077a:	f7ff ffbd 	bl	200006f8 <sync_ep_buffer>
2000077e:	6863      	ldr	r3, [r4, #4]
20000780:	681b      	ldr	r3, [r3, #0]
20000782:	005b      	lsls	r3, r3, #1
20000784:	d502      	bpl.n	2000078c <_hw_endpoint_xfer_sync+0x1c>
20000786:	8b23      	ldrh	r3, [r4, #24]
20000788:	4283      	cmp	r3, r0
2000078a:	d000      	beq.n	2000078e <_hw_endpoint_xfer_sync+0x1e>
2000078c:	bd10      	pop	{r4, pc}
2000078e:	2101      	movs	r1, #1
20000790:	0020      	movs	r0, r4
20000792:	f7ff ffb1 	bl	200006f8 <sync_ep_buffer>
20000796:	e7f9      	b.n	2000078c <_hw_endpoint_xfer_sync+0x1c>

20000798 <hw_endpoint_reset_transfer>:
20000798:	2300      	movs	r3, #0
2000079a:	7683      	strb	r3, [r0, #26]
2000079c:	8283      	strh	r3, [r0, #20]
2000079e:	82c3      	strh	r3, [r0, #22]
200007a0:	6103      	str	r3, [r0, #16]
200007a2:	4770      	bx	lr

200007a4 <_hw_endpoint_buffer_control_update32>:
200007a4:	b510      	push	{r4, lr}
200007a6:	2900      	cmp	r1, #0
200007a8:	d002      	beq.n	200007b0 <_hw_endpoint_buffer_control_update32+0xc>
200007aa:	6883      	ldr	r3, [r0, #8]
200007ac:	681b      	ldr	r3, [r3, #0]
200007ae:	4019      	ands	r1, r3
200007b0:	2a00      	cmp	r2, #0
200007b2:	d010      	beq.n	200007d6 <_hw_endpoint_buffer_control_update32+0x32>
200007b4:	4311      	orrs	r1, r2
200007b6:	0552      	lsls	r2, r2, #21
200007b8:	d50d      	bpl.n	200007d6 <_hw_endpoint_buffer_control_update32+0x32>
200007ba:	6882      	ldr	r2, [r0, #8]
200007bc:	6813      	ldr	r3, [r2, #0]
200007be:	055b      	lsls	r3, r3, #21
200007c0:	d40c      	bmi.n	200007dc <_hw_endpoint_buffer_control_update32+0x38>
200007c2:	4b08      	ldr	r3, [pc, #32]	@ (200007e4 <_hw_endpoint_buffer_control_update32+0x40>)
200007c4:	400b      	ands	r3, r1
200007c6:	6013      	str	r3, [r2, #0]
200007c8:	4b07      	ldr	r3, [pc, #28]	@ (200007e8 <_hw_endpoint_buffer_control_update32+0x44>)
200007ca:	6c1b      	ldr	r3, [r3, #64]	@ 0x40
200007cc:	079b      	lsls	r3, r3, #30
200007ce:	d402      	bmi.n	200007d6 <_hw_endpoint_buffer_control_update32+0x32>
200007d0:	230c      	movs	r3, #12
200007d2:	3b03      	subs	r3, #3
200007d4:	d2fd      	bcs.n	200007d2 <_hw_endpoint_buffer_control_update32+0x2e>
200007d6:	6883      	ldr	r3, [r0, #8]
200007d8:	6019      	str	r1, [r3, #0]
200007da:	bd10      	pop	{r4, pc}
200007dc:	7881      	ldrb	r1, [r0, #2]
200007de:	4803      	ldr	r0, [pc, #12]	@ (200007ec <_hw_endpoint_buffer_control_update32+0x48>)
200007e0:	f000 fa04 	bl	20000bec <panic>
200007e4:	fffffbff 	.word	0xfffffbff
200007e8:	50110000 	.word	0x50110000
200007ec:	200079f4 	.word	0x200079f4

200007f0 <hw_endpoint_start_next_buffer>:
200007f0:	b570      	push	{r4, r5, r6, lr}
200007f2:	0004      	movs	r4, r0
200007f4:	6843      	ldr	r3, [r0, #4]
200007f6:	681e      	ldr	r6, [r3, #0]
200007f8:	2100      	movs	r1, #0
200007fa:	f7ff ff19 	bl	20000630 <prepare_ep_buffer>
200007fe:	2580      	movs	r5, #128	@ 0x80
20000800:	016d      	lsls	r5, r5, #5
20000802:	4305      	orrs	r5, r0
20000804:	4b16      	ldr	r3, [pc, #88]	@ (20000860 <hw_endpoint_start_next_buffer+0x70>)
20000806:	6c1b      	ldr	r3, [r3, #64]	@ 0x40
20000808:	079b      	lsls	r3, r3, #30
2000080a:	d515      	bpl.n	20000838 <hw_endpoint_start_next_buffer+0x48>
2000080c:	78a3      	ldrb	r3, [r4, #2]
2000080e:	065b      	lsls	r3, r3, #25
20000810:	d117      	bne.n	20000842 <hw_endpoint_start_next_buffer+0x52>
20000812:	2300      	movs	r3, #0
20000814:	8aa2      	ldrh	r2, [r4, #20]
20000816:	2a00      	cmp	r2, #0
20000818:	d001      	beq.n	2000081e <hw_endpoint_start_next_buffer+0x2e>
2000081a:	2b00      	cmp	r3, #0
2000081c:	d015      	beq.n	2000084a <hw_endpoint_start_next_buffer+0x5a>
2000081e:	4b11      	ldr	r3, [pc, #68]	@ (20000864 <hw_endpoint_start_next_buffer+0x74>)
20000820:	401e      	ands	r6, r3
20000822:	2380      	movs	r3, #128	@ 0x80
20000824:	059b      	lsls	r3, r3, #22
20000826:	4333      	orrs	r3, r6
20000828:	6862      	ldr	r2, [r4, #4]
2000082a:	6013      	str	r3, [r2, #0]
2000082c:	002a      	movs	r2, r5
2000082e:	2100      	movs	r1, #0
20000830:	0020      	movs	r0, r4
20000832:	f7ff ffb7 	bl	200007a4 <_hw_endpoint_buffer_control_update32>
20000836:	bd70      	pop	{r4, r5, r6, pc}
20000838:	78a3      	ldrb	r3, [r4, #2]
2000083a:	09db      	lsrs	r3, r3, #7
2000083c:	d103      	bne.n	20000846 <hw_endpoint_start_next_buffer+0x56>
2000083e:	3301      	adds	r3, #1
20000840:	e7e8      	b.n	20000814 <hw_endpoint_start_next_buffer+0x24>
20000842:	2301      	movs	r3, #1
20000844:	e7e6      	b.n	20000814 <hw_endpoint_start_next_buffer+0x24>
20000846:	2300      	movs	r3, #0
20000848:	e7e4      	b.n	20000814 <hw_endpoint_start_next_buffer+0x24>
2000084a:	2101      	movs	r1, #1
2000084c:	0020      	movs	r0, r4
2000084e:	f7ff feef 	bl	20000630 <prepare_ep_buffer>
20000852:	4305      	orrs	r5, r0
20000854:	4a04      	ldr	r2, [pc, #16]	@ (20000868 <hw_endpoint_start_next_buffer+0x78>)
20000856:	4032      	ands	r2, r6
20000858:	23a0      	movs	r3, #160	@ 0xa0
2000085a:	05db      	lsls	r3, r3, #23
2000085c:	4313      	orrs	r3, r2
2000085e:	e7e3      	b.n	20000828 <hw_endpoint_start_next_buffer+0x38>
20000860:	50110000 	.word	0x50110000
20000864:	afffffff 	.word	0xafffffff
20000868:	dfffffff 	.word	0xdfffffff

2000086c <hw_endpoint_xfer_continue>:
2000086c:	b570      	push	{r4, r5, r6, lr}
2000086e:	0004      	movs	r4, r0
20000870:	7e85      	ldrb	r5, [r0, #26]
20000872:	2d00      	cmp	r5, #0
20000874:	d006      	beq.n	20000884 <hw_endpoint_xfer_continue+0x18>
20000876:	f7ff ff7b 	bl	20000770 <_hw_endpoint_xfer_sync>
2000087a:	8aa3      	ldrh	r3, [r4, #20]
2000087c:	2b00      	cmp	r3, #0
2000087e:	d105      	bne.n	2000088c <hw_endpoint_xfer_continue+0x20>
20000880:	0028      	movs	r0, r5
20000882:	bd70      	pop	{r4, r5, r6, pc}
20000884:	7881      	ldrb	r1, [r0, #2]
20000886:	4808      	ldr	r0, [pc, #32]	@ (200008a8 <hw_endpoint_xfer_continue+0x3c>)
20000888:	f000 f9b0 	bl	20000bec <panic>
2000088c:	0020      	movs	r0, r4
2000088e:	f7ff ff1b 	bl	200006c8 <e15_is_critical_frame_period>
20000892:	1e05      	subs	r5, r0, #0
20000894:	d003      	beq.n	2000089e <hw_endpoint_xfer_continue+0x32>
20000896:	2301      	movs	r3, #1
20000898:	7723      	strb	r3, [r4, #28]
2000089a:	2500      	movs	r5, #0
2000089c:	e7f0      	b.n	20000880 <hw_endpoint_xfer_continue+0x14>
2000089e:	0020      	movs	r0, r4
200008a0:	f7ff ffa6 	bl	200007f0 <hw_endpoint_start_next_buffer>
200008a4:	e7ec      	b.n	20000880 <hw_endpoint_xfer_continue+0x14>
200008a6:	46c0      	nop			@ (mov r8, r8)
200008a8:	20007a14 	.word	0x20007a14

200008ac <dcd_event_handler>:
200008ac:	b570      	push	{r4, r5, r6, lr}
200008ae:	b084      	sub	sp, #16
200008b0:	0005      	movs	r5, r0
200008b2:	000e      	movs	r6, r1
200008b4:	7843      	ldrb	r3, [r0, #1]
200008b6:	2b04      	cmp	r3, #4
200008b8:	d03c      	beq.n	20000934 <dcd_event_handler+0x88>
200008ba:	d909      	bls.n	200008d0 <dcd_event_handler+0x24>
200008bc:	2b05      	cmp	r3, #5
200008be:	d043      	beq.n	20000948 <dcd_event_handler+0x9c>
200008c0:	2b06      	cmp	r3, #6
200008c2:	d11a      	bne.n	200008fa <dcd_event_handler+0x4e>
200008c4:	4a67      	ldr	r2, [pc, #412]	@ (20000a64 <dcd_event_handler+0x1b8>)
200008c6:	7813      	ldrb	r3, [r2, #0]
200008c8:	3301      	adds	r3, #1
200008ca:	b2db      	uxtb	r3, r3
200008cc:	7013      	strb	r3, [r2, #0]
200008ce:	e014      	b.n	200008fa <dcd_event_handler+0x4e>
200008d0:	2b02      	cmp	r3, #2
200008d2:	d003      	beq.n	200008dc <dcd_event_handler+0x30>
200008d4:	2b03      	cmp	r3, #3
200008d6:	d110      	bne.n	200008fa <dcd_event_handler+0x4e>
200008d8:	2400      	movs	r4, #0
200008da:	e04b      	b.n	20000974 <dcd_event_handler+0xc8>
200008dc:	4b62      	ldr	r3, [pc, #392]	@ (20000a68 <dcd_event_handler+0x1bc>)
200008de:	781a      	ldrb	r2, [r3, #0]
200008e0:	2101      	movs	r1, #1
200008e2:	438a      	bics	r2, r1
200008e4:	701a      	strb	r2, [r3, #0]
200008e6:	781a      	ldrb	r2, [r3, #0]
200008e8:	3101      	adds	r1, #1
200008ea:	438a      	bics	r2, r1
200008ec:	701a      	strb	r2, [r3, #0]
200008ee:	2200      	movs	r2, #0
200008f0:	705a      	strb	r2, [r3, #1]
200008f2:	781a      	ldrb	r2, [r3, #0]
200008f4:	3102      	adds	r1, #2
200008f6:	438a      	bics	r2, r1
200008f8:	701a      	strb	r2, [r3, #0]
200008fa:	4b5c      	ldr	r3, [pc, #368]	@ (20000a6c <dcd_event_handler+0x1c0>)
200008fc:	681c      	ldr	r4, [r3, #0]
200008fe:	6962      	ldr	r2, [r4, #20]
20000900:	f3ef 8110 	mrs	r1, PRIMASK
20000904:	b672      	cpsid	i
20000906:	6813      	ldr	r3, [r2, #0]
20000908:	2b00      	cmp	r3, #0
2000090a:	d0fc      	beq.n	20000906 <dcd_event_handler+0x5a>
2000090c:	f3bf 8f5f 	dmb	sy
20000910:	61a1      	str	r1, [r4, #24]
20000912:	0029      	movs	r1, r5
20000914:	0020      	movs	r0, r4
20000916:	f006 fa47 	bl	20006da8 <tu_fifo_write>
2000091a:	6962      	ldr	r2, [r4, #20]
2000091c:	69a3      	ldr	r3, [r4, #24]
2000091e:	f3bf 8f5f 	dmb	sy
20000922:	2100      	movs	r1, #0
20000924:	6011      	str	r1, [r2, #0]
20000926:	f383 8810 	msr	PRIMASK, r3
2000092a:	2800      	cmp	r0, #0
2000092c:	d000      	beq.n	20000930 <dcd_event_handler+0x84>
2000092e:	e092      	b.n	20000a56 <dcd_event_handler+0x1aa>
20000930:	b004      	add	sp, #16
20000932:	bd70      	pop	{r4, r5, r6, pc}
20000934:	4b4c      	ldr	r3, [pc, #304]	@ (20000a68 <dcd_event_handler+0x1bc>)
20000936:	781b      	ldrb	r3, [r3, #0]
20000938:	07db      	lsls	r3, r3, #31
2000093a:	d5f9      	bpl.n	20000930 <dcd_event_handler+0x84>
2000093c:	4a4a      	ldr	r2, [pc, #296]	@ (20000a68 <dcd_event_handler+0x1bc>)
2000093e:	7813      	ldrb	r3, [r2, #0]
20000940:	2104      	movs	r1, #4
20000942:	430b      	orrs	r3, r1
20000944:	7013      	strb	r3, [r2, #0]
20000946:	e7d8      	b.n	200008fa <dcd_event_handler+0x4e>
20000948:	4b47      	ldr	r3, [pc, #284]	@ (20000a68 <dcd_event_handler+0x1bc>)
2000094a:	781b      	ldrb	r3, [r3, #0]
2000094c:	07db      	lsls	r3, r3, #31
2000094e:	d5ef      	bpl.n	20000930 <dcd_event_handler+0x84>
20000950:	4a45      	ldr	r2, [pc, #276]	@ (20000a68 <dcd_event_handler+0x1bc>)
20000952:	7813      	ldrb	r3, [r2, #0]
20000954:	2104      	movs	r1, #4
20000956:	438b      	bics	r3, r1
20000958:	7013      	strb	r3, [r2, #0]
2000095a:	e7ce      	b.n	200008fa <dcd_event_handler+0x4e>
2000095c:	1a9b      	subs	r3, r3, r2
2000095e:	015b      	lsls	r3, r3, #5
20000960:	4a43      	ldr	r2, [pc, #268]	@ (20000a70 <dcd_event_handler+0x1c4>)
20000962:	189b      	adds	r3, r3, r2
20000964:	69db      	ldr	r3, [r3, #28]
20000966:	2b00      	cmp	r3, #0
20000968:	d002      	beq.n	20000970 <dcd_event_handler+0xc4>
2000096a:	7828      	ldrb	r0, [r5, #0]
2000096c:	6869      	ldr	r1, [r5, #4]
2000096e:	4798      	blx	r3
20000970:	3401      	adds	r4, #1
20000972:	b2e4      	uxtb	r4, r4
20000974:	4b3f      	ldr	r3, [pc, #252]	@ (20000a74 <dcd_event_handler+0x1c8>)
20000976:	781a      	ldrb	r2, [r3, #0]
20000978:	0023      	movs	r3, r4
2000097a:	1c51      	adds	r1, r2, #1
2000097c:	42a1      	cmp	r1, r4
2000097e:	db08      	blt.n	20000992 <dcd_event_handler+0xe6>
20000980:	42a2      	cmp	r2, r4
20000982:	d9eb      	bls.n	2000095c <dcd_event_handler+0xb0>
20000984:	4b3c      	ldr	r3, [pc, #240]	@ (20000a78 <dcd_event_handler+0x1cc>)
20000986:	681b      	ldr	r3, [r3, #0]
20000988:	0162      	lsls	r2, r4, #5
2000098a:	189b      	adds	r3, r3, r2
2000098c:	2b00      	cmp	r3, #0
2000098e:	d1e9      	bne.n	20000964 <dcd_event_handler+0xb8>
20000990:	e7ee      	b.n	20000970 <dcd_event_handler+0xc4>
20000992:	4b35      	ldr	r3, [pc, #212]	@ (20000a68 <dcd_event_handler+0x1bc>)
20000994:	781b      	ldrb	r3, [r3, #0]
20000996:	075b      	lsls	r3, r3, #29
20000998:	d528      	bpl.n	200009ec <dcd_event_handler+0x140>
2000099a:	4a33      	ldr	r2, [pc, #204]	@ (20000a68 <dcd_event_handler+0x1bc>)
2000099c:	7813      	ldrb	r3, [r2, #0]
2000099e:	2104      	movs	r1, #4
200009a0:	438b      	bics	r3, r1
200009a2:	7013      	strb	r3, [r2, #0]
200009a4:	ac01      	add	r4, sp, #4
200009a6:	220c      	movs	r2, #12
200009a8:	2100      	movs	r1, #0
200009aa:	0020      	movs	r0, r4
200009ac:	f002 fa8e 	bl	20002ecc <__wrap_memset>
200009b0:	782b      	ldrb	r3, [r5, #0]
200009b2:	7023      	strb	r3, [r4, #0]
200009b4:	2305      	movs	r3, #5
200009b6:	7063      	strb	r3, [r4, #1]
200009b8:	4b2c      	ldr	r3, [pc, #176]	@ (20000a6c <dcd_event_handler+0x1c0>)
200009ba:	681c      	ldr	r4, [r3, #0]
200009bc:	6962      	ldr	r2, [r4, #20]
200009be:	f3ef 8110 	mrs	r1, PRIMASK
200009c2:	b672      	cpsid	i
200009c4:	6813      	ldr	r3, [r2, #0]
200009c6:	2b00      	cmp	r3, #0
200009c8:	d0fc      	beq.n	200009c4 <dcd_event_handler+0x118>
200009ca:	f3bf 8f5f 	dmb	sy
200009ce:	61a1      	str	r1, [r4, #24]
200009d0:	a901      	add	r1, sp, #4
200009d2:	0020      	movs	r0, r4
200009d4:	f006 f9e8 	bl	20006da8 <tu_fifo_write>
200009d8:	6962      	ldr	r2, [r4, #20]
200009da:	69a3      	ldr	r3, [r4, #24]
200009dc:	f3bf 8f5f 	dmb	sy
200009e0:	2100      	movs	r1, #0
200009e2:	6011      	str	r1, [r2, #0]
200009e4:	f383 8810 	msr	PRIMASK, r3
200009e8:	2800      	cmp	r0, #0
200009ea:	d12d      	bne.n	20000a48 <dcd_event_handler+0x19c>
200009ec:	4b1e      	ldr	r3, [pc, #120]	@ (20000a68 <dcd_event_handler+0x1bc>)
200009ee:	78db      	ldrb	r3, [r3, #3]
200009f0:	07db      	lsls	r3, r3, #31
200009f2:	d400      	bmi.n	200009f6 <dcd_event_handler+0x14a>
200009f4:	e79c      	b.n	20000930 <dcd_event_handler+0x84>
200009f6:	782a      	ldrb	r2, [r5, #0]
200009f8:	ab01      	add	r3, sp, #4
200009fa:	701a      	strb	r2, [r3, #0]
200009fc:	2203      	movs	r2, #3
200009fe:	705a      	strb	r2, [r3, #1]
20000a00:	686a      	ldr	r2, [r5, #4]
20000a02:	9202      	str	r2, [sp, #8]
20000a04:	4b19      	ldr	r3, [pc, #100]	@ (20000a6c <dcd_event_handler+0x1c0>)
20000a06:	681c      	ldr	r4, [r3, #0]
20000a08:	6962      	ldr	r2, [r4, #20]
20000a0a:	f3ef 8110 	mrs	r1, PRIMASK
20000a0e:	b672      	cpsid	i
20000a10:	6813      	ldr	r3, [r2, #0]
20000a12:	2b00      	cmp	r3, #0
20000a14:	d0fc      	beq.n	20000a10 <dcd_event_handler+0x164>
20000a16:	f3bf 8f5f 	dmb	sy
20000a1a:	61a1      	str	r1, [r4, #24]
20000a1c:	a901      	add	r1, sp, #4
20000a1e:	0020      	movs	r0, r4
20000a20:	f006 f9c2 	bl	20006da8 <tu_fifo_write>
20000a24:	6962      	ldr	r2, [r4, #20]
20000a26:	69a3      	ldr	r3, [r4, #24]
20000a28:	f3bf 8f5f 	dmb	sy
20000a2c:	2100      	movs	r1, #0
20000a2e:	6011      	str	r1, [r2, #0]
20000a30:	f383 8810 	msr	PRIMASK, r3
20000a34:	2800      	cmp	r0, #0
20000a36:	d100      	bne.n	20000a3a <dcd_event_handler+0x18e>
20000a38:	e77a      	b.n	20000930 <dcd_event_handler+0x84>
20000a3a:	ab01      	add	r3, sp, #4
20000a3c:	7818      	ldrb	r0, [r3, #0]
20000a3e:	7859      	ldrb	r1, [r3, #1]
20000a40:	0032      	movs	r2, r6
20000a42:	f004 fb1b 	bl	2000507c <tud_event_hook_cb>
20000a46:	e773      	b.n	20000930 <dcd_event_handler+0x84>
20000a48:	ab01      	add	r3, sp, #4
20000a4a:	7818      	ldrb	r0, [r3, #0]
20000a4c:	7859      	ldrb	r1, [r3, #1]
20000a4e:	0032      	movs	r2, r6
20000a50:	f004 fb14 	bl	2000507c <tud_event_hook_cb>
20000a54:	e7ca      	b.n	200009ec <dcd_event_handler+0x140>
20000a56:	7828      	ldrb	r0, [r5, #0]
20000a58:	7869      	ldrb	r1, [r5, #1]
20000a5a:	0032      	movs	r2, r6
20000a5c:	f004 fb0e 	bl	2000507c <tud_event_hook_cb>
20000a60:	e766      	b.n	20000930 <dcd_event_handler+0x84>
20000a62:	46c0      	nop			@ (mov r8, r8)
20000a64:	20008d17 	.word	0x20008d17
20000a68:	20008278 	.word	0x20008278
20000a6c:	200082d0 	.word	0x200082d0
20000a70:	20007dcc 	.word	0x20007dcc
20000a74:	20008d15 	.word	0x20008d15
20000a78:	200080c8 	.word	0x200080c8

20000a7c <spi_write_read_blocking>:
20000a7c:	b570      	push	{r4, r5, r6, lr}
20000a7e:	000d      	movs	r5, r1
20000a80:	0014      	movs	r4, r2
20000a82:	001e      	movs	r6, r3
20000a84:	001a      	movs	r2, r3
20000a86:	e008      	b.n	20000a9a <spi_write_read_blocking+0x1e>
20000a88:	2b00      	cmp	r3, #0
20000a8a:	d006      	beq.n	20000a9a <spi_write_read_blocking+0x1e>
20000a8c:	68c1      	ldr	r1, [r0, #12]
20000a8e:	0749      	lsls	r1, r1, #29
20000a90:	d503      	bpl.n	20000a9a <spi_write_read_blocking+0x1e>
20000a92:	6881      	ldr	r1, [r0, #8]
20000a94:	7021      	strb	r1, [r4, #0]
20000a96:	3b01      	subs	r3, #1
20000a98:	3401      	adds	r4, #1
20000a9a:	0019      	movs	r1, r3
20000a9c:	4311      	orrs	r1, r2
20000a9e:	d00d      	beq.n	20000abc <spi_write_read_blocking+0x40>
20000aa0:	2a00      	cmp	r2, #0
20000aa2:	d0f1      	beq.n	20000a88 <spi_write_read_blocking+0xc>
20000aa4:	68c1      	ldr	r1, [r0, #12]
20000aa6:	0789      	lsls	r1, r1, #30
20000aa8:	d5ee      	bpl.n	20000a88 <spi_write_read_blocking+0xc>
20000aaa:	0011      	movs	r1, r2
20000aac:	3108      	adds	r1, #8
20000aae:	4299      	cmp	r1, r3
20000ab0:	d9ea      	bls.n	20000a88 <spi_write_read_blocking+0xc>
20000ab2:	7829      	ldrb	r1, [r5, #0]
20000ab4:	6081      	str	r1, [r0, #8]
20000ab6:	3a01      	subs	r2, #1
20000ab8:	3501      	adds	r5, #1
20000aba:	e7e5      	b.n	20000a88 <spi_write_read_blocking+0xc>
20000abc:	0030      	movs	r0, r6
20000abe:	bd70      	pop	{r4, r5, r6, pc}

20000ac0 <main>:
20000ac0:	b530      	push	{r4, r5, lr}
20000ac2:	b083      	sub	sp, #12
20000ac4:	f003 fc42 	bl	2000434c <stdio_init_all>
20000ac8:	4921      	ldr	r1, [pc, #132]	@ (20000b50 <main+0x90>)
20000aca:	4822      	ldr	r0, [pc, #136]	@ (20000b54 <main+0x94>)
20000acc:	f006 fa58 	bl	20006f80 <spi_init>
20000ad0:	2101      	movs	r1, #1
20000ad2:	2002      	movs	r0, #2
20000ad4:	f000 f846 	bl	20000b64 <gpio_set_function>
20000ad8:	2101      	movs	r1, #1
20000ada:	2003      	movs	r0, #3
20000adc:	f000 f842 	bl	20000b64 <gpio_set_function>
20000ae0:	2101      	movs	r1, #1
20000ae2:	2004      	movs	r0, #4
20000ae4:	f000 f83e 	bl	20000b64 <gpio_set_function>
20000ae8:	2101      	movs	r1, #1
20000aea:	2005      	movs	r0, #5
20000aec:	f000 f83a 	bl	20000b64 <gpio_set_function>
20000af0:	20fa      	movs	r0, #250	@ 0xfa
20000af2:	00c0      	lsls	r0, r0, #3
20000af4:	f000 ff2a 	bl	2000194c <sleep_ms>
20000af8:	466b      	mov	r3, sp
20000afa:	2255      	movs	r2, #85	@ 0x55
20000afc:	71da      	strb	r2, [r3, #7]
20000afe:	2200      	movs	r2, #0
20000b00:	719a      	strb	r2, [r3, #6]
20000b02:	e00b      	b.n	20000b1c <main+0x5c>
20000b04:	4814      	ldr	r0, [pc, #80]	@ (20000b58 <main+0x98>)
20000b06:	f003 fc25 	bl	20004354 <__wrap_puts>
20000b0a:	466b      	mov	r3, sp
20000b0c:	1dda      	adds	r2, r3, #7
20000b0e:	79db      	ldrb	r3, [r3, #7]
20000b10:	3301      	adds	r3, #1
20000b12:	7013      	strb	r3, [r2, #0]
20000b14:	20fa      	movs	r0, #250	@ 0xfa
20000b16:	0080      	lsls	r0, r0, #2
20000b18:	f000 ff18 	bl	2000194c <sleep_ms>
20000b1c:	466b      	mov	r3, sp
20000b1e:	1d9c      	adds	r4, r3, #6
20000b20:	2300      	movs	r3, #0
20000b22:	7023      	strb	r3, [r4, #0]
20000b24:	466b      	mov	r3, sp
20000b26:	1ddd      	adds	r5, r3, #7
20000b28:	2301      	movs	r3, #1
20000b2a:	0022      	movs	r2, r4
20000b2c:	0029      	movs	r1, r5
20000b2e:	4809      	ldr	r0, [pc, #36]	@ (20000b54 <main+0x94>)
20000b30:	f7ff ffa4 	bl	20000a7c <spi_write_read_blocking>
20000b34:	7822      	ldrb	r2, [r4, #0]
20000b36:	7829      	ldrb	r1, [r5, #0]
20000b38:	4808      	ldr	r0, [pc, #32]	@ (20000b5c <main+0x9c>)
20000b3a:	f003 fc3b 	bl	200043b4 <__wrap_printf>
20000b3e:	782a      	ldrb	r2, [r5, #0]
20000b40:	7823      	ldrb	r3, [r4, #0]
20000b42:	429a      	cmp	r2, r3
20000b44:	d1de      	bne.n	20000b04 <main+0x44>
20000b46:	4806      	ldr	r0, [pc, #24]	@ (20000b60 <main+0xa0>)
20000b48:	f003 fc04 	bl	20004354 <__wrap_puts>
20000b4c:	e7dd      	b.n	20000b0a <main+0x4a>
20000b4e:	46c0      	nop			@ (mov r8, r8)
20000b50:	000f4240 	.word	0x000f4240
20000b54:	4003c000 	.word	0x4003c000
20000b58:	20007080 	.word	0x20007080
20000b5c:	20007058 	.word	0x20007058
20000b60:	20007078 	.word	0x20007078

20000b64 <gpio_set_function>:
20000b64:	b510      	push	{r4, lr}
20000b66:	0083      	lsls	r3, r0, #2
20000b68:	4a08      	ldr	r2, [pc, #32]	@ (20000b8c <gpio_set_function+0x28>)
20000b6a:	189a      	adds	r2, r3, r2
20000b6c:	6812      	ldr	r2, [r2, #0]
20000b6e:	2440      	movs	r4, #64	@ 0x40
20000b70:	4054      	eors	r4, r2
20000b72:	22c0      	movs	r2, #192	@ 0xc0
20000b74:	4022      	ands	r2, r4
20000b76:	4c06      	ldr	r4, [pc, #24]	@ (20000b90 <gpio_set_function+0x2c>)
20000b78:	46a4      	mov	ip, r4
20000b7a:	4463      	add	r3, ip
20000b7c:	601a      	str	r2, [r3, #0]
20000b7e:	00c0      	lsls	r0, r0, #3
20000b80:	4b04      	ldr	r3, [pc, #16]	@ (20000b94 <gpio_set_function+0x30>)
20000b82:	469c      	mov	ip, r3
20000b84:	4460      	add	r0, ip
20000b86:	6041      	str	r1, [r0, #4]
20000b88:	bd10      	pop	{r4, pc}
20000b8a:	46c0      	nop			@ (mov r8, r8)
20000b8c:	4001c004 	.word	0x4001c004
20000b90:	4001d004 	.word	0x4001d004
20000b94:	40014000 	.word	0x40014000

20000b98 <rp2040_chip_version>:
20000b98:	b510      	push	{r4, lr}
20000b9a:	2380      	movs	r3, #128	@ 0x80
20000b9c:	05db      	lsls	r3, r3, #23
20000b9e:	6818      	ldr	r0, [r3, #0]
20000ba0:	0503      	lsls	r3, r0, #20
20000ba2:	0d1b      	lsrs	r3, r3, #20
20000ba4:	4a0b      	ldr	r2, [pc, #44]	@ (20000bd4 <rp2040_chip_version+0x3c>)
20000ba6:	4293      	cmp	r3, r2
20000ba8:	d107      	bne.n	20000bba <rp2040_chip_version+0x22>
20000baa:	4b0b      	ldr	r3, [pc, #44]	@ (20000bd8 <rp2040_chip_version+0x40>)
20000bac:	4003      	ands	r3, r0
20000bae:	2280      	movs	r2, #128	@ 0x80
20000bb0:	0192      	lsls	r2, r2, #6
20000bb2:	4293      	cmp	r3, r2
20000bb4:	d107      	bne.n	20000bc6 <rp2040_chip_version+0x2e>
20000bb6:	0f00      	lsrs	r0, r0, #28
20000bb8:	bd10      	pop	{r4, pc}
20000bba:	4b08      	ldr	r3, [pc, #32]	@ (20000bdc <rp2040_chip_version+0x44>)
20000bbc:	4a08      	ldr	r2, [pc, #32]	@ (20000be0 <rp2040_chip_version+0x48>)
20000bbe:	4809      	ldr	r0, [pc, #36]	@ (20000be4 <rp2040_chip_version+0x4c>)
20000bc0:	2113      	movs	r1, #19
20000bc2:	f003 fa89 	bl	200040d8 <__assert_func>
20000bc6:	4b08      	ldr	r3, [pc, #32]	@ (20000be8 <rp2040_chip_version+0x50>)
20000bc8:	4a05      	ldr	r2, [pc, #20]	@ (20000be0 <rp2040_chip_version+0x48>)
20000bca:	4806      	ldr	r0, [pc, #24]	@ (20000be4 <rp2040_chip_version+0x4c>)
20000bcc:	2114      	movs	r1, #20
20000bce:	f003 fa83 	bl	200040d8 <__assert_func>
20000bd2:	46c0      	nop			@ (mov r8, r8)
20000bd4:	00000927 	.word	0x00000927
20000bd8:	0ffff000 	.word	0x0ffff000
20000bdc:	20007088 	.word	0x20007088
20000be0:	20007a3c 	.word	0x20007a3c
20000be4:	200070ac 	.word	0x200070ac
20000be8:	200070f4 	.word	0x200070f4

20000bec <panic>:
20000bec:	b40f      	push	{r0, r1, r2, r3}
20000bee:	b500      	push	{lr}
20000bf0:	b083      	sub	sp, #12
20000bf2:	4808      	ldr	r0, [pc, #32]	@ (20000c14 <panic+0x28>)
20000bf4:	f003 fbae 	bl	20004354 <__wrap_puts>
20000bf8:	9b04      	ldr	r3, [sp, #16]
20000bfa:	2b00      	cmp	r3, #0
20000bfc:	d007      	beq.n	20000c0e <panic+0x22>
20000bfe:	a905      	add	r1, sp, #20
20000c00:	9101      	str	r1, [sp, #4]
20000c02:	0018      	movs	r0, r3
20000c04:	f003 fbb6 	bl	20004374 <__wrap_vprintf>
20000c08:	4803      	ldr	r0, [pc, #12]	@ (20000c18 <panic+0x2c>)
20000c0a:	f003 fba3 	bl	20004354 <__wrap_puts>
20000c0e:	2001      	movs	r0, #1
20000c10:	f003 fa5c 	bl	200040cc <_exit>
20000c14:	20007108 	.word	0x20007108
20000c18:	20007118 	.word	0x20007118

20000c1c <hw_claim_lock>:
20000c1c:	f3ef 8010 	mrs	r0, PRIMASK
20000c20:	b672      	cpsid	i
20000c22:	4b03      	ldr	r3, [pc, #12]	@ (20000c30 <hw_claim_lock+0x14>)
20000c24:	681b      	ldr	r3, [r3, #0]
20000c26:	2b00      	cmp	r3, #0
20000c28:	d0fb      	beq.n	20000c22 <hw_claim_lock+0x6>
20000c2a:	f3bf 8f5f 	dmb	sy
20000c2e:	4770      	bx	lr
20000c30:	d000012c 	.word	0xd000012c

20000c34 <hw_claim_unlock>:
20000c34:	f3bf 8f5f 	dmb	sy
20000c38:	4b02      	ldr	r3, [pc, #8]	@ (20000c44 <hw_claim_unlock+0x10>)
20000c3a:	2200      	movs	r2, #0
20000c3c:	601a      	str	r2, [r3, #0]
20000c3e:	f380 8810 	msr	PRIMASK, r0
20000c42:	4770      	bx	lr
20000c44:	d000012c 	.word	0xd000012c

20000c48 <hw_claim_or_assert>:
20000c48:	b570      	push	{r4, r5, r6, lr}
20000c4a:	0005      	movs	r5, r0
20000c4c:	000c      	movs	r4, r1
20000c4e:	0016      	movs	r6, r2
20000c50:	f7ff ffe4 	bl	20000c1c <hw_claim_lock>
20000c54:	08e3      	lsrs	r3, r4, #3
20000c56:	18ea      	adds	r2, r5, r3
20000c58:	4694      	mov	ip, r2
20000c5a:	5ce9      	ldrb	r1, [r5, r3]
20000c5c:	2207      	movs	r2, #7
20000c5e:	4022      	ands	r2, r4
20000c60:	2301      	movs	r3, #1
20000c62:	4093      	lsls	r3, r2
20000c64:	420b      	tst	r3, r1
20000c66:	d106      	bne.n	20000c76 <hw_claim_or_assert+0x2e>
20000c68:	b2db      	uxtb	r3, r3
20000c6a:	430b      	orrs	r3, r1
20000c6c:	4662      	mov	r2, ip
20000c6e:	7013      	strb	r3, [r2, #0]
20000c70:	f7ff ffe0 	bl	20000c34 <hw_claim_unlock>
20000c74:	bd70      	pop	{r4, r5, r6, pc}
20000c76:	0021      	movs	r1, r4
20000c78:	0030      	movs	r0, r6
20000c7a:	f7ff ffb7 	bl	20000bec <panic>

20000c7e <hw_claim_unused_from_range>:
20000c7e:	b5f0      	push	{r4, r5, r6, r7, lr}
20000c80:	b083      	sub	sp, #12
20000c82:	0005      	movs	r5, r0
20000c84:	9101      	str	r1, [sp, #4]
20000c86:	0014      	movs	r4, r2
20000c88:	001e      	movs	r6, r3
20000c8a:	f7ff ffc7 	bl	20000c1c <hw_claim_lock>
20000c8e:	e000      	b.n	20000c92 <hw_claim_unused_from_range+0x14>
20000c90:	3401      	adds	r4, #1
20000c92:	42b4      	cmp	r4, r6
20000c94:	d80c      	bhi.n	20000cb0 <hw_claim_unused_from_range+0x32>
20000c96:	08e3      	lsrs	r3, r4, #3
20000c98:	18ef      	adds	r7, r5, r3
20000c9a:	5ceb      	ldrb	r3, [r5, r3]
20000c9c:	2107      	movs	r1, #7
20000c9e:	4021      	ands	r1, r4
20000ca0:	2201      	movs	r2, #1
20000ca2:	408a      	lsls	r2, r1
20000ca4:	421a      	tst	r2, r3
20000ca6:	d1f3      	bne.n	20000c90 <hw_claim_unused_from_range+0x12>
20000ca8:	b2d2      	uxtb	r2, r2
20000caa:	431a      	orrs	r2, r3
20000cac:	703a      	strb	r2, [r7, #0]
20000cae:	e001      	b.n	20000cb4 <hw_claim_unused_from_range+0x36>
20000cb0:	2401      	movs	r4, #1
20000cb2:	4264      	negs	r4, r4
20000cb4:	f7ff ffbe 	bl	20000c34 <hw_claim_unlock>
20000cb8:	2c00      	cmp	r4, #0
20000cba:	db02      	blt.n	20000cc2 <hw_claim_unused_from_range+0x44>
20000cbc:	0020      	movs	r0, r4
20000cbe:	b003      	add	sp, #12
20000cc0:	bdf0      	pop	{r4, r5, r6, r7, pc}
20000cc2:	9b01      	ldr	r3, [sp, #4]
20000cc4:	2b00      	cmp	r3, #0
20000cc6:	d0f9      	beq.n	20000cbc <hw_claim_unused_from_range+0x3e>
20000cc8:	9808      	ldr	r0, [sp, #32]
20000cca:	f7ff ff8f 	bl	20000bec <panic>
	...

20000cd0 <next_striped_spin_lock_num>:
20000cd0:	4a05      	ldr	r2, [pc, #20]	@ (20000ce8 <next_striped_spin_lock_num+0x18>)
20000cd2:	7810      	ldrb	r0, [r2, #0]
20000cd4:	1c43      	adds	r3, r0, #1
20000cd6:	b2db      	uxtb	r3, r3
20000cd8:	7013      	strb	r3, [r2, #0]
20000cda:	2b17      	cmp	r3, #23
20000cdc:	d902      	bls.n	20000ce4 <next_striped_spin_lock_num+0x14>
20000cde:	0013      	movs	r3, r2
20000ce0:	2210      	movs	r2, #16
20000ce2:	701a      	strb	r2, [r3, #0]
20000ce4:	4770      	bx	lr
20000ce6:	46c0      	nop			@ (mov r8, r8)
20000ce8:	20007e30 	.word	0x20007e30

20000cec <spin_lock_claim_unused>:
20000cec:	b500      	push	{lr}
20000cee:	b083      	sub	sp, #12
20000cf0:	0001      	movs	r1, r0
20000cf2:	4804      	ldr	r0, [pc, #16]	@ (20000d04 <spin_lock_claim_unused+0x18>)
20000cf4:	4b04      	ldr	r3, [pc, #16]	@ (20000d08 <spin_lock_claim_unused+0x1c>)
20000cf6:	9300      	str	r3, [sp, #0]
20000cf8:	231f      	movs	r3, #31
20000cfa:	2218      	movs	r2, #24
20000cfc:	f7ff ffbf 	bl	20000c7e <hw_claim_unused_from_range>
20000d00:	b003      	add	sp, #12
20000d02:	bd00      	pop	{pc}
20000d04:	20008668 	.word	0x20008668
20000d08:	2000711c 	.word	0x2000711c

20000d0c <spin_locks_reset>:
20000d0c:	2300      	movs	r3, #0
20000d0e:	e007      	b.n	20000d20 <spin_locks_reset+0x14>
20000d10:	4a05      	ldr	r2, [pc, #20]	@ (20000d28 <spin_locks_reset+0x1c>)
20000d12:	189a      	adds	r2, r3, r2
20000d14:	0092      	lsls	r2, r2, #2
20000d16:	f3bf 8f5f 	dmb	sy
20000d1a:	2100      	movs	r1, #0
20000d1c:	6011      	str	r1, [r2, #0]
20000d1e:	3301      	adds	r3, #1
20000d20:	2b1f      	cmp	r3, #31
20000d22:	d9f5      	bls.n	20000d10 <spin_locks_reset+0x4>
20000d24:	4770      	bx	lr
20000d26:	46c0      	nop			@ (mov r8, r8)
20000d28:	34000040 	.word	0x34000040

20000d2c <set_raw_irq_handler_and_unlock>:
20000d2c:	4b07      	ldr	r3, [pc, #28]	@ (20000d4c <set_raw_irq_handler_and_unlock+0x20>)
20000d2e:	689b      	ldr	r3, [r3, #8]
20000d30:	3010      	adds	r0, #16
20000d32:	0080      	lsls	r0, r0, #2
20000d34:	5019      	str	r1, [r3, r0]
20000d36:	f3bf 8f5f 	dmb	sy
20000d3a:	f3bf 8f5f 	dmb	sy
20000d3e:	4b04      	ldr	r3, [pc, #16]	@ (20000d50 <set_raw_irq_handler_and_unlock+0x24>)
20000d40:	2100      	movs	r1, #0
20000d42:	6019      	str	r1, [r3, #0]
20000d44:	f382 8810 	msr	PRIMASK, r2
20000d48:	4770      	bx	lr
20000d4a:	46c0      	nop			@ (mov r8, r8)
20000d4c:	e000ed00 	.word	0xe000ed00
20000d50:	d0000124 	.word	0xd0000124

20000d54 <nvic_ipr0>:
20000d54:	4800      	ldr	r0, [pc, #0]	@ (20000d58 <nvic_ipr0+0x4>)
20000d56:	4770      	bx	lr
20000d58:	e000e400 	.word	0xe000e400

20000d5c <runtime_init_per_core_irq_priorities>:
20000d5c:	b510      	push	{r4, lr}
20000d5e:	f7ff fff9 	bl	20000d54 <nvic_ipr0>
20000d62:	2300      	movs	r3, #0
20000d64:	e002      	b.n	20000d6c <runtime_init_per_core_irq_priorities+0x10>
20000d66:	4a03      	ldr	r2, [pc, #12]	@ (20000d74 <runtime_init_per_core_irq_priorities+0x18>)
20000d68:	c004      	stmia	r0!, {r2}
20000d6a:	3301      	adds	r3, #1
20000d6c:	2b07      	cmp	r3, #7
20000d6e:	d9fa      	bls.n	20000d66 <runtime_init_per_core_irq_priorities+0xa>
20000d70:	bd10      	pop	{r4, pc}
20000d72:	46c0      	nop			@ (mov r8, r8)
20000d74:	80808080 	.word	0x80808080

20000d78 <resolve_j_16>:
20000d78:	b510      	push	{r4, lr}
20000d7a:	8803      	ldrh	r3, [r0, #0]
20000d7c:	0ada      	lsrs	r2, r3, #11
20000d7e:	2a1c      	cmp	r2, #28
20000d80:	d105      	bne.n	20000d8e <resolve_j_16+0x16>
20000d82:	055b      	lsls	r3, r3, #21
20000d84:	155b      	asrs	r3, r3, #21
20000d86:	3302      	adds	r3, #2
20000d88:	005b      	lsls	r3, r3, #1
20000d8a:	18c0      	adds	r0, r0, r3
20000d8c:	bd10      	pop	{r4, pc}
20000d8e:	4b03      	ldr	r3, [pc, #12]	@ (20000d9c <resolve_j_16+0x24>)
20000d90:	4a03      	ldr	r2, [pc, #12]	@ (20000da0 <resolve_j_16+0x28>)
20000d92:	218e      	movs	r1, #142	@ 0x8e
20000d94:	4803      	ldr	r0, [pc, #12]	@ (20000da4 <resolve_j_16+0x2c>)
20000d96:	0049      	lsls	r1, r1, #1
20000d98:	f003 f99e 	bl	200040d8 <__assert_func>
20000d9c:	20007138 	.word	0x20007138
20000da0:	20007a78 	.word	0x20007a78
20000da4:	20007150 	.word	0x20007150

20000da8 <make_j_16>:
20000da8:	b510      	push	{r4, lr}
20000daa:	1a09      	subs	r1, r1, r0
20000dac:	1f0b      	subs	r3, r1, #4
20000dae:	4a0a      	ldr	r2, [pc, #40]	@ (20000dd8 <make_j_16+0x30>)
20000db0:	1888      	adds	r0, r1, r2
20000db2:	4a0a      	ldr	r2, [pc, #40]	@ (20000ddc <make_j_16+0x34>)
20000db4:	4290      	cmp	r0, r2
20000db6:	d808      	bhi.n	20000dca <make_j_16+0x22>
20000db8:	07c9      	lsls	r1, r1, #31
20000dba:	d406      	bmi.n	20000dca <make_j_16+0x22>
20000dbc:	105b      	asrs	r3, r3, #1
20000dbe:	055b      	lsls	r3, r3, #21
20000dc0:	0d5b      	lsrs	r3, r3, #21
20000dc2:	4807      	ldr	r0, [pc, #28]	@ (20000de0 <make_j_16+0x38>)
20000dc4:	4318      	orrs	r0, r3
20000dc6:	b280      	uxth	r0, r0
20000dc8:	bd10      	pop	{r4, pc}
20000dca:	4b06      	ldr	r3, [pc, #24]	@ (20000de4 <make_j_16+0x3c>)
20000dcc:	4a06      	ldr	r2, [pc, #24]	@ (20000de8 <make_j_16+0x40>)
20000dce:	2187      	movs	r1, #135	@ 0x87
20000dd0:	4806      	ldr	r0, [pc, #24]	@ (20000dec <make_j_16+0x44>)
20000dd2:	0049      	lsls	r1, r1, #1
20000dd4:	f003 f980 	bl	200040d8 <__assert_func>
20000dd8:	000007fc 	.word	0x000007fc
20000ddc:	00000ffe 	.word	0x00000ffe
20000de0:	ffffe000 	.word	0xffffe000
20000de4:	20007198 	.word	0x20007198
20000de8:	20007a6c 	.word	0x20007a6c
20000dec:	20007150 	.word	0x20007150

20000df0 <irq_is_enabled>:
20000df0:	2301      	movs	r3, #1
20000df2:	4083      	lsls	r3, r0
20000df4:	4a03      	ldr	r2, [pc, #12]	@ (20000e04 <irq_is_enabled+0x14>)
20000df6:	6810      	ldr	r0, [r2, #0]
20000df8:	4018      	ands	r0, r3
20000dfa:	1e43      	subs	r3, r0, #1
20000dfc:	4198      	sbcs	r0, r3
20000dfe:	b2c0      	uxtb	r0, r0
20000e00:	4770      	bx	lr
20000e02:	46c0      	nop			@ (mov r8, r8)
20000e04:	e000e100 	.word	0xe000e100

20000e08 <irq_set_mask_n_enabled>:
20000e08:	2a00      	cmp	r2, #0
20000e0a:	d005      	beq.n	20000e18 <irq_set_mask_n_enabled+0x10>
20000e0c:	4b04      	ldr	r3, [pc, #16]	@ (20000e20 <irq_set_mask_n_enabled+0x18>)
20000e0e:	22c0      	movs	r2, #192	@ 0xc0
20000e10:	0052      	lsls	r2, r2, #1
20000e12:	5099      	str	r1, [r3, r2]
20000e14:	6019      	str	r1, [r3, #0]
20000e16:	4770      	bx	lr
20000e18:	4a01      	ldr	r2, [pc, #4]	@ (20000e20 <irq_set_mask_n_enabled+0x18>)
20000e1a:	2380      	movs	r3, #128	@ 0x80
20000e1c:	50d1      	str	r1, [r2, r3]
20000e1e:	e7fa      	b.n	20000e16 <irq_set_mask_n_enabled+0xe>
20000e20:	e000e100 	.word	0xe000e100

20000e24 <irq_set_enabled>:
20000e24:	b510      	push	{r4, lr}
20000e26:	000a      	movs	r2, r1
20000e28:	231f      	movs	r3, #31
20000e2a:	4003      	ands	r3, r0
20000e2c:	2101      	movs	r1, #1
20000e2e:	4099      	lsls	r1, r3
20000e30:	0940      	lsrs	r0, r0, #5
20000e32:	f7ff ffe9 	bl	20000e08 <irq_set_mask_n_enabled>
20000e36:	bd10      	pop	{r4, pc}

20000e38 <irq_set_pending>:
20000e38:	2301      	movs	r3, #1
20000e3a:	4083      	lsls	r3, r0
20000e3c:	4a01      	ldr	r2, [pc, #4]	@ (20000e44 <irq_set_pending+0xc>)
20000e3e:	6013      	str	r3, [r2, #0]
20000e40:	4770      	bx	lr
20000e42:	46c0      	nop			@ (mov r8, r8)
20000e44:	e000e200 	.word	0xe000e200

20000e48 <irq_get_vtable_handler>:
20000e48:	4b02      	ldr	r3, [pc, #8]	@ (20000e54 <irq_get_vtable_handler+0xc>)
20000e4a:	689b      	ldr	r3, [r3, #8]
20000e4c:	3010      	adds	r0, #16
20000e4e:	0080      	lsls	r0, r0, #2
20000e50:	58c0      	ldr	r0, [r0, r3]
20000e52:	4770      	bx	lr
20000e54:	e000ed00 	.word	0xe000ed00

20000e58 <irq_has_shared_handler>:
20000e58:	b510      	push	{r4, lr}
20000e5a:	f7ff fff5 	bl	20000e48 <irq_get_vtable_handler>
20000e5e:	4b04      	ldr	r3, [pc, #16]	@ (20000e70 <irq_has_shared_handler+0x18>)
20000e60:	1ac3      	subs	r3, r0, r3
20000e62:	2000      	movs	r0, #0
20000e64:	222f      	movs	r2, #47	@ 0x2f
20000e66:	429a      	cmp	r2, r3
20000e68:	4140      	adcs	r0, r0
20000e6a:	b2c0      	uxtb	r0, r0
20000e6c:	bd10      	pop	{r4, pc}
20000e6e:	46c0      	nop			@ (mov r8, r8)
20000e70:	20007e34 	.word	0x20007e34

20000e74 <irq_set_exclusive_handler>:
20000e74:	b570      	push	{r4, r5, r6, lr}
20000e76:	0005      	movs	r5, r0
20000e78:	000e      	movs	r6, r1
20000e7a:	f3ef 8410 	mrs	r4, PRIMASK
20000e7e:	b672      	cpsid	i
20000e80:	4b0c      	ldr	r3, [pc, #48]	@ (20000eb4 <irq_set_exclusive_handler+0x40>)
20000e82:	681b      	ldr	r3, [r3, #0]
20000e84:	2b00      	cmp	r3, #0
20000e86:	d0fb      	beq.n	20000e80 <irq_set_exclusive_handler+0xc>
20000e88:	f3bf 8f5f 	dmb	sy
20000e8c:	0028      	movs	r0, r5
20000e8e:	f7ff ffdb 	bl	20000e48 <irq_get_vtable_handler>
20000e92:	4b09      	ldr	r3, [pc, #36]	@ (20000eb8 <irq_set_exclusive_handler+0x44>)
20000e94:	4298      	cmp	r0, r3
20000e96:	d001      	beq.n	20000e9c <irq_set_exclusive_handler+0x28>
20000e98:	42b0      	cmp	r0, r6
20000e9a:	d105      	bne.n	20000ea8 <irq_set_exclusive_handler+0x34>
20000e9c:	0022      	movs	r2, r4
20000e9e:	0031      	movs	r1, r6
20000ea0:	0028      	movs	r0, r5
20000ea2:	f7ff ff43 	bl	20000d2c <set_raw_irq_handler_and_unlock>
20000ea6:	bd70      	pop	{r4, r5, r6, pc}
20000ea8:	4b04      	ldr	r3, [pc, #16]	@ (20000ebc <irq_set_exclusive_handler+0x48>)
20000eaa:	4a05      	ldr	r2, [pc, #20]	@ (20000ec0 <irq_set_exclusive_handler+0x4c>)
20000eac:	4805      	ldr	r0, [pc, #20]	@ (20000ec4 <irq_set_exclusive_handler+0x50>)
20000eae:	21ed      	movs	r1, #237	@ 0xed
20000eb0:	f003 f912 	bl	200040d8 <__assert_func>
20000eb4:	d0000124 	.word	0xd0000124
20000eb8:	200001c1 	.word	0x200001c1
20000ebc:	200071c8 	.word	0x200071c8
20000ec0:	20007aa0 	.word	0x20007aa0
20000ec4:	20007150 	.word	0x20007150

20000ec8 <irq_add_shared_handler>:
20000ec8:	b5f0      	push	{r4, r5, r6, r7, lr}
20000eca:	46de      	mov	lr, fp
20000ecc:	4657      	mov	r7, sl
20000ece:	464e      	mov	r6, r9
20000ed0:	4645      	mov	r5, r8
20000ed2:	b5e0      	push	{r5, r6, r7, lr}
20000ed4:	b089      	sub	sp, #36	@ 0x24
20000ed6:	4681      	mov	r9, r0
20000ed8:	9101      	str	r1, [sp, #4]
20000eda:	0015      	movs	r5, r2
20000edc:	f3ef 8310 	mrs	r3, PRIMASK
20000ee0:	b672      	cpsid	i
20000ee2:	469a      	mov	sl, r3
20000ee4:	4b6e      	ldr	r3, [pc, #440]	@ (200010a0 <irq_add_shared_handler+0x1d8>)
20000ee6:	681b      	ldr	r3, [r3, #0]
20000ee8:	2b00      	cmp	r3, #0
20000eea:	d0fb      	beq.n	20000ee4 <irq_add_shared_handler+0x1c>
20000eec:	f3bf 8f5f 	dmb	sy
20000ef0:	4b6c      	ldr	r3, [pc, #432]	@ (200010a4 <irq_add_shared_handler+0x1dc>)
20000ef2:	2600      	movs	r6, #0
20000ef4:	579e      	ldrsb	r6, [r3, r6]
20000ef6:	2e00      	cmp	r6, #0
20000ef8:	db40      	blt.n	20000f7c <irq_add_shared_handler+0xb4>
20000efa:	0074      	lsls	r4, r6, #1
20000efc:	19a4      	adds	r4, r4, r6
20000efe:	00a4      	lsls	r4, r4, #2
20000f00:	4869      	ldr	r0, [pc, #420]	@ (200010a8 <irq_add_shared_handler+0x1e0>)
20000f02:	1823      	adds	r3, r4, r0
20000f04:	469b      	mov	fp, r3
20000f06:	2206      	movs	r2, #6
20000f08:	569a      	ldrsb	r2, [r3, r2]
20000f0a:	4b66      	ldr	r3, [pc, #408]	@ (200010a4 <irq_add_shared_handler+0x1dc>)
20000f0c:	701a      	strb	r2, [r3, #0]
20000f0e:	4b67      	ldr	r3, [pc, #412]	@ (200010ac <irq_add_shared_handler+0x1e4>)
20000f10:	689a      	ldr	r2, [r3, #8]
20000f12:	464b      	mov	r3, r9
20000f14:	3310      	adds	r3, #16
20000f16:	009b      	lsls	r3, r3, #2
20000f18:	58d7      	ldr	r7, [r2, r3]
20000f1a:	1a3b      	subs	r3, r7, r0
20000f1c:	2b2f      	cmp	r3, #47	@ 0x2f
20000f1e:	d93b      	bls.n	20000f98 <irq_add_shared_handler+0xd0>
20000f20:	4b63      	ldr	r3, [pc, #396]	@ (200010b0 <irq_add_shared_handler+0x1e8>)
20000f22:	429f      	cmp	r7, r3
20000f24:	d131      	bne.n	20000f8a <irq_add_shared_handler+0xc2>
20000f26:	af05      	add	r7, sp, #20
20000f28:	4b62      	ldr	r3, [pc, #392]	@ (200010b4 <irq_add_shared_handler+0x1ec>)
20000f2a:	803b      	strh	r3, [r7, #0]
20000f2c:	4962      	ldr	r1, [pc, #392]	@ (200010b8 <irq_add_shared_handler+0x1f0>)
20000f2e:	0073      	lsls	r3, r6, #1
20000f30:	9302      	str	r3, [sp, #8]
20000f32:	1998      	adds	r0, r3, r6
20000f34:	0080      	lsls	r0, r0, #2
20000f36:	4c5c      	ldr	r4, [pc, #368]	@ (200010a8 <irq_add_shared_handler+0x1e0>)
20000f38:	1900      	adds	r0, r0, r4
20000f3a:	3002      	adds	r0, #2
20000f3c:	f7ff ff34 	bl	20000da8 <make_j_16>
20000f40:	8078      	strh	r0, [r7, #2]
20000f42:	4b5e      	ldr	r3, [pc, #376]	@ (200010bc <irq_add_shared_handler+0x1f4>)
20000f44:	80bb      	strh	r3, [r7, #4]
20000f46:	23ff      	movs	r3, #255	@ 0xff
20000f48:	71bb      	strb	r3, [r7, #6]
20000f4a:	71fd      	strb	r5, [r7, #7]
20000f4c:	9a01      	ldr	r2, [sp, #4]
20000f4e:	9207      	str	r2, [sp, #28]
20000f50:	9b02      	ldr	r3, [sp, #8]
20000f52:	199b      	adds	r3, r3, r6
20000f54:	009b      	lsls	r3, r3, #2
20000f56:	18e3      	adds	r3, r4, r3
20000f58:	cf07      	ldmia	r7!, {r0, r1, r2}
20000f5a:	c307      	stmia	r3!, {r0, r1, r2}
20000f5c:	2701      	movs	r7, #1
20000f5e:	465b      	mov	r3, fp
20000f60:	433b      	orrs	r3, r7
20000f62:	001f      	movs	r7, r3
20000f64:	4652      	mov	r2, sl
20000f66:	0039      	movs	r1, r7
20000f68:	4648      	mov	r0, r9
20000f6a:	f7ff fedf 	bl	20000d2c <set_raw_irq_handler_and_unlock>
20000f6e:	b009      	add	sp, #36	@ 0x24
20000f70:	bcf0      	pop	{r4, r5, r6, r7}
20000f72:	46bb      	mov	fp, r7
20000f74:	46b2      	mov	sl, r6
20000f76:	46a9      	mov	r9, r5
20000f78:	46a0      	mov	r8, r4
20000f7a:	bdf0      	pop	{r4, r5, r6, r7, pc}
20000f7c:	4b50      	ldr	r3, [pc, #320]	@ (200010c0 <irq_add_shared_handler+0x1f8>)
20000f7e:	4a51      	ldr	r2, [pc, #324]	@ (200010c4 <irq_add_shared_handler+0x1fc>)
20000f80:	21be      	movs	r1, #190	@ 0xbe
20000f82:	4851      	ldr	r0, [pc, #324]	@ (200010c8 <irq_add_shared_handler+0x200>)
20000f84:	0049      	lsls	r1, r1, #1
20000f86:	f003 f8a7 	bl	200040d8 <__assert_func>
20000f8a:	4b50      	ldr	r3, [pc, #320]	@ (200010cc <irq_add_shared_handler+0x204>)
20000f8c:	4a4d      	ldr	r2, [pc, #308]	@ (200010c4 <irq_add_shared_handler+0x1fc>)
20000f8e:	2184      	movs	r1, #132	@ 0x84
20000f90:	484d      	ldr	r0, [pc, #308]	@ (200010c8 <irq_add_shared_handler+0x200>)
20000f92:	31ff      	adds	r1, #255	@ 0xff
20000f94:	f003 f8a0 	bl	200040d8 <__assert_func>
20000f98:	2301      	movs	r3, #1
20000f9a:	003a      	movs	r2, r7
20000f9c:	439a      	bics	r2, r3
20000f9e:	4690      	mov	r8, r2
20000fa0:	1a10      	subs	r0, r2, r0
20000fa2:	210c      	movs	r1, #12
20000fa4:	f001 f89c 	bl	200020e0 <__wrap___aeabi_uidiv>
20000fa8:	2900      	cmp	r1, #0
20000faa:	d10f      	bne.n	20000fcc <irq_add_shared_handler+0x104>
20000fac:	4643      	mov	r3, r8
20000fae:	2400      	movs	r4, #0
20000fb0:	79da      	ldrb	r2, [r3, #7]
20000fb2:	42aa      	cmp	r2, r5
20000fb4:	d912      	bls.n	20000fdc <irq_add_shared_handler+0x114>
20000fb6:	2106      	movs	r1, #6
20000fb8:	5659      	ldrsb	r1, [r3, r1]
20000fba:	2900      	cmp	r1, #0
20000fbc:	db0d      	blt.n	20000fda <irq_add_shared_handler+0x112>
20000fbe:	004a      	lsls	r2, r1, #1
20000fc0:	1852      	adds	r2, r2, r1
20000fc2:	0092      	lsls	r2, r2, #2
20000fc4:	4938      	ldr	r1, [pc, #224]	@ (200010a8 <irq_add_shared_handler+0x1e0>)
20000fc6:	001c      	movs	r4, r3
20000fc8:	188b      	adds	r3, r1, r2
20000fca:	e7f1      	b.n	20000fb0 <irq_add_shared_handler+0xe8>
20000fcc:	4b40      	ldr	r3, [pc, #256]	@ (200010d0 <irq_add_shared_handler+0x208>)
20000fce:	4a3d      	ldr	r2, [pc, #244]	@ (200010c4 <irq_add_shared_handler+0x1fc>)
20000fd0:	21ca      	movs	r1, #202	@ 0xca
20000fd2:	483d      	ldr	r0, [pc, #244]	@ (200010c8 <irq_add_shared_handler+0x200>)
20000fd4:	0049      	lsls	r1, r1, #1
20000fd6:	f003 f87f 	bl	200040d8 <__assert_func>
20000fda:	001c      	movs	r4, r3
20000fdc:	2c00      	cmp	r4, #0
20000fde:	d02d      	beq.n	2000103c <irq_add_shared_handler+0x174>
20000fe0:	ab05      	add	r3, sp, #20
20000fe2:	4a3c      	ldr	r2, [pc, #240]	@ (200010d4 <irq_add_shared_handler+0x20c>)
20000fe4:	801a      	strh	r2, [r3, #0]
20000fe6:	3a81      	subs	r2, #129	@ 0x81
20000fe8:	805a      	strh	r2, [r3, #2]
20000fea:	2306      	movs	r3, #6
20000fec:	56e3      	ldrsb	r3, [r4, r3]
20000fee:	4698      	mov	r8, r3
20000ff0:	2b00      	cmp	r3, #0
20000ff2:	da16      	bge.n	20001022 <irq_add_shared_handler+0x15a>
20000ff4:	4838      	ldr	r0, [pc, #224]	@ (200010d8 <irq_add_shared_handler+0x210>)
20000ff6:	ab04      	add	r3, sp, #16
20000ff8:	8118      	strh	r0, [r3, #8]
20000ffa:	4642      	mov	r2, r8
20000ffc:	729a      	strb	r2, [r3, #10]
20000ffe:	72dd      	strb	r5, [r3, #11]
20001000:	9b01      	ldr	r3, [sp, #4]
20001002:	9307      	str	r3, [sp, #28]
20001004:	1d20      	adds	r0, r4, #4
20001006:	4659      	mov	r1, fp
20001008:	f7ff fece 	bl	20000da8 <make_j_16>
2000100c:	80a0      	strh	r0, [r4, #4]
2000100e:	71a6      	strb	r6, [r4, #6]
20001010:	4b25      	ldr	r3, [pc, #148]	@ (200010a8 <irq_add_shared_handler+0x1e0>)
20001012:	0072      	lsls	r2, r6, #1
20001014:	1992      	adds	r2, r2, r6
20001016:	0092      	lsls	r2, r2, #2
20001018:	189b      	adds	r3, r3, r2
2000101a:	aa05      	add	r2, sp, #20
2000101c:	ca13      	ldmia	r2!, {r0, r1, r4}
2000101e:	c313      	stmia	r3!, {r0, r1, r4}
20001020:	e7a0      	b.n	20000f64 <irq_add_shared_handler+0x9c>
20001022:	1d20      	adds	r0, r4, #4
20001024:	f7ff fea8 	bl	20000d78 <resolve_j_16>
20001028:	0001      	movs	r1, r0
2000102a:	0070      	lsls	r0, r6, #1
2000102c:	1980      	adds	r0, r0, r6
2000102e:	0080      	lsls	r0, r0, #2
20001030:	4b1d      	ldr	r3, [pc, #116]	@ (200010a8 <irq_add_shared_handler+0x1e0>)
20001032:	18c0      	adds	r0, r0, r3
20001034:	3004      	adds	r0, #4
20001036:	f7ff feb7 	bl	20000da8 <make_j_16>
2000103a:	e7dc      	b.n	20000ff6 <irq_add_shared_handler+0x12e>
2000103c:	af05      	add	r7, sp, #20
2000103e:	4b1d      	ldr	r3, [pc, #116]	@ (200010b4 <irq_add_shared_handler+0x1ec>)
20001040:	803b      	strh	r3, [r7, #0]
20001042:	491d      	ldr	r1, [pc, #116]	@ (200010b8 <irq_add_shared_handler+0x1f0>)
20001044:	0073      	lsls	r3, r6, #1
20001046:	9302      	str	r3, [sp, #8]
20001048:	199b      	adds	r3, r3, r6
2000104a:	009b      	lsls	r3, r3, #2
2000104c:	4c16      	ldr	r4, [pc, #88]	@ (200010a8 <irq_add_shared_handler+0x1e0>)
2000104e:	0018      	movs	r0, r3
20001050:	46a4      	mov	ip, r4
20001052:	4460      	add	r0, ip
20001054:	9003      	str	r0, [sp, #12]
20001056:	3002      	adds	r0, #2
20001058:	f7ff fea6 	bl	20000da8 <make_j_16>
2000105c:	8078      	strh	r0, [r7, #2]
2000105e:	9a03      	ldr	r2, [sp, #12]
20001060:	1d10      	adds	r0, r2, #4
20001062:	4641      	mov	r1, r8
20001064:	f7ff fea0 	bl	20000da8 <make_j_16>
20001068:	80b8      	strh	r0, [r7, #4]
2000106a:	4b1c      	ldr	r3, [pc, #112]	@ (200010dc <irq_add_shared_handler+0x214>)
2000106c:	4642      	mov	r2, r8
2000106e:	1b12      	subs	r2, r2, r4
20001070:	4152      	adcs	r2, r2
20001072:	4353      	muls	r3, r2
20001074:	0d1b      	lsrs	r3, r3, #20
20001076:	71bb      	strb	r3, [r7, #6]
20001078:	71fd      	strb	r5, [r7, #7]
2000107a:	9901      	ldr	r1, [sp, #4]
2000107c:	9107      	str	r1, [sp, #28]
2000107e:	9b02      	ldr	r3, [sp, #8]
20001080:	199b      	adds	r3, r3, r6
20001082:	009b      	lsls	r3, r3, #2
20001084:	46a4      	mov	ip, r4
20001086:	4463      	add	r3, ip
20001088:	cf07      	ldmia	r7!, {r0, r1, r2}
2000108a:	c307      	stmia	r3!, {r0, r1, r2}
2000108c:	4b11      	ldr	r3, [pc, #68]	@ (200010d4 <irq_add_shared_handler+0x20c>)
2000108e:	4642      	mov	r2, r8
20001090:	8013      	strh	r3, [r2, #0]
20001092:	3b81      	subs	r3, #129	@ 0x81
20001094:	8053      	strh	r3, [r2, #2]
20001096:	2701      	movs	r7, #1
20001098:	465b      	mov	r3, fp
2000109a:	433b      	orrs	r3, r7
2000109c:	001f      	movs	r7, r3
2000109e:	e761      	b.n	20000f64 <irq_add_shared_handler+0x9c>
200010a0:	d0000124 	.word	0xd0000124
200010a4:	20008d18 	.word	0x20008d18
200010a8:	20007e34 	.word	0x20007e34
200010ac:	e000ed00 	.word	0xe000ed00
200010b0:	200001c1 	.word	0x200001c1
200010b4:	ffffa100 	.word	0xffffa100
200010b8:	20007e64 	.word	0x20007e64
200010bc:	ffffbd01 	.word	0xffffbd01
200010c0:	20007200 	.word	0x20007200
200010c4:	20007a88 	.word	0x20007a88
200010c8:	20007150 	.word	0x20007150
200010cc:	20007228 	.word	0x20007228
200010d0:	20007250 	.word	0x20007250
200010d4:	00004801 	.word	0x00004801
200010d8:	0000bd01 	.word	0x0000bd01
200010dc:	0000aaaa 	.word	0x0000aaaa

200010e0 <irq_add_tail_to_free_list>:
200010e0:	b570      	push	{r4, r5, r6, lr}
200010e2:	2201      	movs	r2, #1
200010e4:	4302      	orrs	r2, r0
200010e6:	4b2d      	ldr	r3, [pc, #180]	@ (2000119c <irq_add_tail_to_free_list+0xbc>)
200010e8:	1ad3      	subs	r3, r2, r3
200010ea:	2b2f      	cmp	r3, #47	@ 0x2f
200010ec:	d829      	bhi.n	20001142 <irq_add_tail_to_free_list+0x62>
200010ee:	f3ef 8305 	mrs	r3, IPSR
200010f2:	2b00      	cmp	r3, #0
200010f4:	d02b      	beq.n	2000114e <irq_add_tail_to_free_list+0x6e>
200010f6:	f3ef 8110 	mrs	r1, PRIMASK
200010fa:	b672      	cpsid	i
200010fc:	468c      	mov	ip, r1
200010fe:	4928      	ldr	r1, [pc, #160]	@ (200011a0 <irq_add_tail_to_free_list+0xc0>)
20001100:	6809      	ldr	r1, [r1, #0]
20001102:	2900      	cmp	r1, #0
20001104:	d0fb      	beq.n	200010fe <irq_add_tail_to_free_list+0x1e>
20001106:	f3bf 8f5f 	dmb	sy
2000110a:	4c24      	ldr	r4, [pc, #144]	@ (2000119c <irq_add_tail_to_free_list+0xbc>)
2000110c:	4925      	ldr	r1, [pc, #148]	@ (200011a4 <irq_add_tail_to_free_list+0xc4>)
2000110e:	0005      	movs	r5, r0
20001110:	1b2d      	subs	r5, r5, r4
20001112:	416d      	adcs	r5, r5
20001114:	4369      	muls	r1, r5
20001116:	0d09      	lsrs	r1, r1, #20
20001118:	b24c      	sxtb	r4, r1
2000111a:	4923      	ldr	r1, [pc, #140]	@ (200011a8 <irq_add_tail_to_free_list+0xc8>)
2000111c:	6889      	ldr	r1, [r1, #8]
2000111e:	009b      	lsls	r3, r3, #2
20001120:	58c9      	ldr	r1, [r1, r3]
20001122:	4291      	cmp	r1, r2
20001124:	d019      	beq.n	2000115a <irq_add_tail_to_free_list+0x7a>
20001126:	2100      	movs	r1, #0
20001128:	2903      	cmp	r1, #3
2000112a:	d830      	bhi.n	2000118e <irq_add_tail_to_free_list+0xae>
2000112c:	4b1b      	ldr	r3, [pc, #108]	@ (2000119c <irq_add_tail_to_free_list+0xbc>)
2000112e:	004a      	lsls	r2, r1, #1
20001130:	1852      	adds	r2, r2, r1
20001132:	0092      	lsls	r2, r2, #2
20001134:	189b      	adds	r3, r3, r2
20001136:	799b      	ldrb	r3, [r3, #6]
20001138:	b25b      	sxtb	r3, r3
2000113a:	42a3      	cmp	r3, r4
2000113c:	d01d      	beq.n	2000117a <irq_add_tail_to_free_list+0x9a>
2000113e:	3101      	adds	r1, #1
20001140:	e7f2      	b.n	20001128 <irq_add_tail_to_free_list+0x48>
20001142:	4b1a      	ldr	r3, [pc, #104]	@ (200011ac <irq_add_tail_to_free_list+0xcc>)
20001144:	4a1a      	ldr	r2, [pc, #104]	@ (200011b0 <irq_add_tail_to_free_list+0xd0>)
20001146:	481b      	ldr	r0, [pc, #108]	@ (200011b4 <irq_add_tail_to_free_list+0xd4>)
20001148:	491b      	ldr	r1, [pc, #108]	@ (200011b8 <irq_add_tail_to_free_list+0xd8>)
2000114a:	f002 ffc5 	bl	200040d8 <__assert_func>
2000114e:	4b1b      	ldr	r3, [pc, #108]	@ (200011bc <irq_add_tail_to_free_list+0xdc>)
20001150:	4a17      	ldr	r2, [pc, #92]	@ (200011b0 <irq_add_tail_to_free_list+0xd0>)
20001152:	4818      	ldr	r0, [pc, #96]	@ (200011b4 <irq_add_tail_to_free_list+0xd4>)
20001154:	491a      	ldr	r1, [pc, #104]	@ (200011c0 <irq_add_tail_to_free_list+0xe0>)
20001156:	f002 ffbf 	bl	200040d8 <__assert_func>
2000115a:	4a13      	ldr	r2, [pc, #76]	@ (200011a8 <irq_add_tail_to_free_list+0xc8>)
2000115c:	6892      	ldr	r2, [r2, #8]
2000115e:	4919      	ldr	r1, [pc, #100]	@ (200011c4 <irq_add_tail_to_free_list+0xe4>)
20001160:	50d1      	str	r1, [r2, r3]
20001162:	4b19      	ldr	r3, [pc, #100]	@ (200011c8 <irq_add_tail_to_free_list+0xe8>)
20001164:	781a      	ldrb	r2, [r3, #0]
20001166:	7182      	strb	r2, [r0, #6]
20001168:	701c      	strb	r4, [r3, #0]
2000116a:	f3bf 8f5f 	dmb	sy
2000116e:	4b0c      	ldr	r3, [pc, #48]	@ (200011a0 <irq_add_tail_to_free_list+0xc0>)
20001170:	2200      	movs	r2, #0
20001172:	601a      	str	r2, [r3, #0]
20001174:	f38c 8810 	msr	PRIMASK, ip
20001178:	bd70      	pop	{r4, r5, r6, pc}
2000117a:	4b08      	ldr	r3, [pc, #32]	@ (2000119c <irq_add_tail_to_free_list+0xbc>)
2000117c:	004a      	lsls	r2, r1, #1
2000117e:	1855      	adds	r5, r2, r1
20001180:	00ad      	lsls	r5, r5, #2
20001182:	195d      	adds	r5, r3, r5
20001184:	26ff      	movs	r6, #255	@ 0xff
20001186:	71ae      	strb	r6, [r5, #6]
20001188:	4a10      	ldr	r2, [pc, #64]	@ (200011cc <irq_add_tail_to_free_list+0xec>)
2000118a:	80aa      	strh	r2, [r5, #4]
2000118c:	e7e9      	b.n	20001162 <irq_add_tail_to_free_list+0x82>
2000118e:	4b10      	ldr	r3, [pc, #64]	@ (200011d0 <irq_add_tail_to_free_list+0xf0>)
20001190:	4a07      	ldr	r2, [pc, #28]	@ (200011b0 <irq_add_tail_to_free_list+0xd0>)
20001192:	4808      	ldr	r0, [pc, #32]	@ (200011b4 <irq_add_tail_to_free_list+0xd4>)
20001194:	490f      	ldr	r1, [pc, #60]	@ (200011d4 <irq_add_tail_to_free_list+0xf4>)
20001196:	f002 ff9f 	bl	200040d8 <__assert_func>
2000119a:	46c0      	nop			@ (mov r8, r8)
2000119c:	20007e34 	.word	0x20007e34
200011a0:	d0000124 	.word	0xd0000124
200011a4:	0000aaaa 	.word	0x0000aaaa
200011a8:	e000ed00 	.word	0xe000ed00
200011ac:	200072d4 	.word	0x200072d4
200011b0:	20007a50 	.word	0x20007a50
200011b4:	20007150 	.word	0x20007150
200011b8:	0000027f 	.word	0x0000027f
200011bc:	200072fc 	.word	0x200072fc
200011c0:	00000282 	.word	0x00000282
200011c4:	200001c1 	.word	0x200001c1
200011c8:	20008d18 	.word	0x20008d18
200011cc:	ffffbd01 	.word	0xffffbd01
200011d0:	20007308 	.word	0x20007308
200011d4:	00000293 	.word	0x00000293

200011d8 <user_irq_claim_unused>:
200011d8:	b500      	push	{lr}
200011da:	b083      	sub	sp, #12
200011dc:	0001      	movs	r1, r0
200011de:	4806      	ldr	r0, [pc, #24]	@ (200011f8 <user_irq_claim_unused+0x20>)
200011e0:	4b06      	ldr	r3, [pc, #24]	@ (200011fc <user_irq_claim_unused+0x24>)
200011e2:	9300      	str	r3, [sp, #0]
200011e4:	2305      	movs	r3, #5
200011e6:	2200      	movs	r2, #0
200011e8:	f7ff fd49 	bl	20000c7e <hw_claim_unused_from_range>
200011ec:	2800      	cmp	r0, #0
200011ee:	db01      	blt.n	200011f4 <user_irq_claim_unused+0x1c>
200011f0:	231f      	movs	r3, #31
200011f2:	1a18      	subs	r0, r3, r0
200011f4:	b003      	add	sp, #12
200011f6:	bd00      	pop	{pc}
200011f8:	20008d1c 	.word	0x20008d1c
200011fc:	20007310 	.word	0x20007310

20001200 <lock_init>:
20001200:	4b02      	ldr	r3, [pc, #8]	@ (2000120c <lock_init+0xc>)
20001202:	469c      	mov	ip, r3
20001204:	4461      	add	r1, ip
20001206:	0089      	lsls	r1, r1, #2
20001208:	6001      	str	r1, [r0, #0]
2000120a:	4770      	bx	lr
2000120c:	34000040 	.word	0x34000040

20001210 <mutex_init>:
20001210:	b510      	push	{r4, lr}
20001212:	0004      	movs	r4, r0
20001214:	f7ff fd5c 	bl	20000cd0 <next_striped_spin_lock_num>
20001218:	0001      	movs	r1, r0
2000121a:	0020      	movs	r0, r4
2000121c:	f7ff fff0 	bl	20001200 <lock_init>
20001220:	23ff      	movs	r3, #255	@ 0xff
20001222:	7123      	strb	r3, [r4, #4]
20001224:	f3bf 8f5f 	dmb	sy
20001228:	bd10      	pop	{r4, pc}

2000122a <recursive_mutex_init>:
2000122a:	b510      	push	{r4, lr}
2000122c:	0004      	movs	r4, r0
2000122e:	f7ff fd4f 	bl	20000cd0 <next_striped_spin_lock_num>
20001232:	0001      	movs	r1, r0
20001234:	0020      	movs	r0, r4
20001236:	f7ff ffe3 	bl	20001200 <lock_init>
2000123a:	23ff      	movs	r3, #255	@ 0xff
2000123c:	7123      	strb	r3, [r4, #4]
2000123e:	2300      	movs	r3, #0
20001240:	7163      	strb	r3, [r4, #5]
20001242:	f3bf 8f5f 	dmb	sy
20001246:	bd10      	pop	{r4, pc}

20001248 <runtime_init_mutex>:
20001248:	b510      	push	{r4, lr}
2000124a:	4c0d      	ldr	r4, [pc, #52]	@ (20001280 <runtime_init_mutex+0x38>)
2000124c:	e009      	b.n	20001262 <runtime_init_mutex+0x1a>
2000124e:	4b0d      	ldr	r3, [pc, #52]	@ (20001284 <runtime_init_mutex+0x3c>)
20001250:	4a0d      	ldr	r2, [pc, #52]	@ (20001288 <runtime_init_mutex+0x40>)
20001252:	480e      	ldr	r0, [pc, #56]	@ (2000128c <runtime_init_mutex+0x44>)
20001254:	211a      	movs	r1, #26
20001256:	f002 ff3f 	bl	200040d8 <__assert_func>
2000125a:	0020      	movs	r0, r4
2000125c:	f7ff ffd8 	bl	20001210 <mutex_init>
20001260:	3408      	adds	r4, #8
20001262:	4b0b      	ldr	r3, [pc, #44]	@ (20001290 <runtime_init_mutex+0x48>)
20001264:	429c      	cmp	r4, r3
20001266:	d209      	bcs.n	2000127c <runtime_init_mutex+0x34>
20001268:	6823      	ldr	r3, [r4, #0]
2000126a:	2b00      	cmp	r3, #0
2000126c:	d0f5      	beq.n	2000125a <runtime_init_mutex+0x12>
2000126e:	2b01      	cmp	r3, #1
20001270:	d1ed      	bne.n	2000124e <runtime_init_mutex+0x6>
20001272:	0020      	movs	r0, r4
20001274:	f7ff ffd9 	bl	2000122a <recursive_mutex_init>
20001278:	3408      	adds	r4, #8
2000127a:	e7f2      	b.n	20001262 <runtime_init_mutex+0x1a>
2000127c:	bd10      	pop	{r4, pc}
2000127e:	46c0      	nop			@ (mov r8, r8)
20001280:	20007ef8 	.word	0x20007ef8
20001284:	2000732c 	.word	0x2000732c
20001288:	20007ae0 	.word	0x20007ae0
2000128c:	2000734c 	.word	0x2000734c
20001290:	20007f00 	.word	0x20007f00

20001294 <critical_section_init_with_lock_num>:
20001294:	4b03      	ldr	r3, [pc, #12]	@ (200012a4 <critical_section_init_with_lock_num+0x10>)
20001296:	469c      	mov	ip, r3
20001298:	4461      	add	r1, ip
2000129a:	0089      	lsls	r1, r1, #2
2000129c:	6001      	str	r1, [r0, #0]
2000129e:	f3bf 8f5f 	dmb	sy
200012a2:	4770      	bx	lr
200012a4:	34000040 	.word	0x34000040

200012a8 <critical_section_init>:
200012a8:	b510      	push	{r4, lr}
200012aa:	0004      	movs	r4, r0
200012ac:	2001      	movs	r0, #1
200012ae:	f7ff fd1d 	bl	20000cec <spin_lock_claim_unused>
200012b2:	0001      	movs	r1, r0
200012b4:	0020      	movs	r0, r4
200012b6:	f7ff ffed 	bl	20001294 <critical_section_init_with_lock_num>
200012ba:	bd10      	pop	{r4, pc}

200012bc <ta_set_timeout>:
200012bc:	b530      	push	{r4, r5, lr}
200012be:	6a83      	ldr	r3, [r0, #40]	@ 0x28
200012c0:	469c      	mov	ip, r3
200012c2:	1ad4      	subs	r4, r2, r3
200012c4:	1d0b      	adds	r3, r1, #4
200012c6:	009b      	lsls	r3, r3, #2
200012c8:	581b      	ldr	r3, [r3, r0]
200012ca:	4665      	mov	r5, ip
200012cc:	1b5b      	subs	r3, r3, r5
200012ce:	429c      	cmp	r4, r3
200012d0:	d304      	bcc.n	200012dc <ta_set_timeout+0x20>
200012d2:	6a04      	ldr	r4, [r0, #32]
200012d4:	2301      	movs	r3, #1
200012d6:	408b      	lsls	r3, r1
200012d8:	4223      	tst	r3, r4
200012da:	d102      	bne.n	200012e2 <ta_set_timeout+0x26>
200012dc:	3104      	adds	r1, #4
200012de:	0089      	lsls	r1, r1, #2
200012e0:	500a      	str	r2, [r1, r0]
200012e2:	bd30      	pop	{r4, r5, pc}

200012e4 <make_alarm_id>:
200012e4:	0400      	lsls	r0, r0, #16
200012e6:	4308      	orrs	r0, r1
200012e8:	4770      	bx	lr
	...

200012ec <sleep_until_callback>:
200012ec:	4b0a      	ldr	r3, [pc, #40]	@ (20001318 <sleep_until_callback+0x2c>)
200012ee:	6819      	ldr	r1, [r3, #0]
200012f0:	f3ef 8310 	mrs	r3, PRIMASK
200012f4:	b672      	cpsid	i
200012f6:	680a      	ldr	r2, [r1, #0]
200012f8:	2a00      	cmp	r2, #0
200012fa:	d0fc      	beq.n	200012f6 <sleep_until_callback+0xa>
200012fc:	f3bf 8f5f 	dmb	sy
20001300:	4a05      	ldr	r2, [pc, #20]	@ (20001318 <sleep_until_callback+0x2c>)
20001302:	6812      	ldr	r2, [r2, #0]
20001304:	f3bf 8f5f 	dmb	sy
20001308:	2100      	movs	r1, #0
2000130a:	6011      	str	r1, [r2, #0]
2000130c:	f383 8810 	msr	PRIMASK, r3
20001310:	bf40      	sev
20001312:	2000      	movs	r0, #0
20001314:	2100      	movs	r1, #0
20001316:	4770      	bx	lr
20001318:	20008cf8 	.word	0x20008cf8

2000131c <alarm_pool_irq_handler>:
2000131c:	b5f0      	push	{r4, r5, r6, r7, lr}
2000131e:	46de      	mov	lr, fp
20001320:	4657      	mov	r7, sl
20001322:	464e      	mov	r6, r9
20001324:	4645      	mov	r5, r8
20001326:	b5e0      	push	{r5, r6, r7, lr}
20001328:	b083      	sub	sp, #12
2000132a:	f3ef 8305 	mrs	r3, IPSR
2000132e:	2203      	movs	r2, #3
20001330:	401a      	ands	r2, r3
20001332:	0011      	movs	r1, r2
20001334:	9201      	str	r2, [sp, #4]
20001336:	4baf      	ldr	r3, [pc, #700]	@ (200015f4 <alarm_pool_irq_handler+0x2d8>)
20001338:	0092      	lsls	r2, r2, #2
2000133a:	58d3      	ldr	r3, [r2, r3]
2000133c:	4698      	mov	r8, r3
2000133e:	781b      	ldrb	r3, [r3, #0]
20001340:	428b      	cmp	r3, r1
20001342:	d107      	bne.n	20001354 <alarm_pool_irq_handler+0x38>
20001344:	2301      	movs	r3, #1
20001346:	9a01      	ldr	r2, [sp, #4]
20001348:	4093      	lsls	r3, r2
2000134a:	9300      	str	r3, [sp, #0]
2000134c:	4baa      	ldr	r3, [pc, #680]	@ (200015f8 <alarm_pool_irq_handler+0x2dc>)
2000134e:	9a00      	ldr	r2, [sp, #0]
20001350:	601a      	str	r2, [r3, #0]
20001352:	e11f      	b.n	20001594 <alarm_pool_irq_handler+0x278>
20001354:	4ba9      	ldr	r3, [pc, #676]	@ (200015fc <alarm_pool_irq_handler+0x2e0>)
20001356:	4aaa      	ldr	r2, [pc, #680]	@ (20001600 <alarm_pool_irq_handler+0x2e4>)
20001358:	48aa      	ldr	r0, [pc, #680]	@ (20001604 <alarm_pool_irq_handler+0x2e8>)
2000135a:	2192      	movs	r1, #146	@ 0x92
2000135c:	f002 febc 	bl	200040d8 <__assert_func>
20001360:	4643      	mov	r3, r8
20001362:	695a      	ldr	r2, [r3, #20]
20001364:	464b      	mov	r3, r9
20001366:	005b      	lsls	r3, r3, #1
20001368:	444b      	add	r3, r9
2000136a:	00db      	lsls	r3, r3, #3
2000136c:	4693      	mov	fp, r2
2000136e:	449b      	add	fp, r3
20001370:	465b      	mov	r3, fp
20001372:	689e      	ldr	r6, [r3, #8]
20001374:	68df      	ldr	r7, [r3, #12]
20001376:	48a4      	ldr	r0, [pc, #656]	@ (20001608 <alarm_pool_irq_handler+0x2ec>)
20001378:	f000 fbac 	bl	20001ad4 <timer_time_us_64>
2000137c:	1b80      	subs	r0, r0, r6
2000137e:	41b9      	sbcs	r1, r7
20001380:	2900      	cmp	r1, #0
20001382:	da00      	bge.n	20001386 <alarm_pool_irq_handler+0x6a>
20001384:	e110      	b.n	200015a8 <alarm_pool_irq_handler+0x28c>
20001386:	2f00      	cmp	r7, #0
20001388:	db61      	blt.n	2000144e <alarm_pool_irq_handler+0x132>
2000138a:	465b      	mov	r3, fp
2000138c:	691c      	ldr	r4, [r3, #16]
2000138e:	4b9f      	ldr	r3, [pc, #636]	@ (2000160c <alarm_pool_irq_handler+0x2f0>)
20001390:	429c      	cmp	r4, r3
20001392:	d047      	beq.n	20001424 <alarm_pool_irq_handler+0x108>
20001394:	4643      	mov	r3, r8
20001396:	2008      	movs	r0, #8
20001398:	5e18      	ldrsh	r0, [r3, r0]
2000139a:	465b      	mov	r3, fp
2000139c:	8859      	ldrh	r1, [r3, #2]
2000139e:	b289      	uxth	r1, r1
200013a0:	f7ff ffa0 	bl	200012e4 <make_alarm_id>
200013a4:	465b      	mov	r3, fp
200013a6:	6959      	ldr	r1, [r3, #20]
200013a8:	47a0      	blx	r4
200013aa:	0004      	movs	r4, r0
200013ac:	000d      	movs	r5, r1
200013ae:	0023      	movs	r3, r4
200013b0:	432b      	orrs	r3, r5
200013b2:	d04c      	beq.n	2000144e <alarm_pool_irq_handler+0x132>
200013b4:	2d00      	cmp	r5, #0
200013b6:	da3e      	bge.n	20001436 <alarm_pool_irq_handler+0x11a>
200013b8:	0030      	movs	r0, r6
200013ba:	0039      	movs	r1, r7
200013bc:	1b00      	subs	r0, r0, r4
200013be:	41a9      	sbcs	r1, r5
200013c0:	465b      	mov	r3, fp
200013c2:	6098      	str	r0, [r3, #8]
200013c4:	60d9      	str	r1, [r3, #12]
200013c6:	2400      	movs	r4, #0
200013c8:	5f1c      	ldrsh	r4, [r3, r4]
200013ca:	2c00      	cmp	r4, #0
200013cc:	da00      	bge.n	200013d0 <alarm_pool_irq_handler+0xb4>
200013ce:	e0eb      	b.n	200015a8 <alarm_pool_irq_handler+0x28c>
200013d0:	4643      	mov	r3, r8
200013d2:	695a      	ldr	r2, [r3, #20]
200013d4:	4692      	mov	sl, r2
200013d6:	0063      	lsls	r3, r4, #1
200013d8:	191b      	adds	r3, r3, r4
200013da:	00db      	lsls	r3, r3, #3
200013dc:	4453      	add	r3, sl
200013de:	689a      	ldr	r2, [r3, #8]
200013e0:	68db      	ldr	r3, [r3, #12]
200013e2:	0005      	movs	r5, r0
200013e4:	000e      	movs	r6, r1
200013e6:	1aad      	subs	r5, r5, r2
200013e8:	419e      	sbcs	r6, r3
200013ea:	2e00      	cmp	r6, #0
200013ec:	da00      	bge.n	200013f0 <alarm_pool_irq_handler+0xd4>
200013ee:	e0db      	b.n	200015a8 <alarm_pool_irq_handler+0x28c>
200013f0:	4643      	mov	r3, r8
200013f2:	811c      	strh	r4, [r3, #8]
200013f4:	4647      	mov	r7, r8
200013f6:	3708      	adds	r7, #8
200013f8:	46bc      	mov	ip, r7
200013fa:	2c00      	cmp	r4, #0
200013fc:	db21      	blt.n	20001442 <alarm_pool_irq_handler+0x126>
200013fe:	4663      	mov	r3, ip
20001400:	2200      	movs	r2, #0
20001402:	5e9b      	ldrsh	r3, [r3, r2]
20001404:	005d      	lsls	r5, r3, #1
20001406:	18ed      	adds	r5, r5, r3
20001408:	00ed      	lsls	r5, r5, #3
2000140a:	4455      	add	r5, sl
2000140c:	68aa      	ldr	r2, [r5, #8]
2000140e:	68eb      	ldr	r3, [r5, #12]
20001410:	0006      	movs	r6, r0
20001412:	000f      	movs	r7, r1
20001414:	1ab6      	subs	r6, r6, r2
20001416:	419f      	sbcs	r7, r3
20001418:	2f00      	cmp	r7, #0
2000141a:	db12      	blt.n	20001442 <alarm_pool_irq_handler+0x126>
2000141c:	46ac      	mov	ip, r5
2000141e:	2300      	movs	r3, #0
20001420:	5eec      	ldrsh	r4, [r5, r3]
20001422:	e7ea      	b.n	200013fa <alarm_pool_irq_handler+0xde>
20001424:	465b      	mov	r3, fp
20001426:	695c      	ldr	r4, [r3, #20]
20001428:	6923      	ldr	r3, [r4, #16]
2000142a:	0020      	movs	r0, r4
2000142c:	4798      	blx	r3
2000142e:	2800      	cmp	r0, #0
20001430:	d00d      	beq.n	2000144e <alarm_pool_irq_handler+0x132>
20001432:	cc30      	ldmia	r4, {r4, r5}
20001434:	e7bb      	b.n	200013ae <alarm_pool_irq_handler+0x92>
20001436:	4874      	ldr	r0, [pc, #464]	@ (20001608 <alarm_pool_irq_handler+0x2ec>)
20001438:	f000 fb4c 	bl	20001ad4 <timer_time_us_64>
2000143c:	1900      	adds	r0, r0, r4
2000143e:	4169      	adcs	r1, r5
20001440:	e7be      	b.n	200013c0 <alarm_pool_irq_handler+0xa4>
20001442:	465b      	mov	r3, fp
20001444:	801c      	strh	r4, [r3, #0]
20001446:	464b      	mov	r3, r9
20001448:	4662      	mov	r2, ip
2000144a:	8013      	strh	r3, [r2, #0]
2000144c:	e0ac      	b.n	200015a8 <alarm_pool_irq_handler+0x28c>
2000144e:	465b      	mov	r3, fp
20001450:	2200      	movs	r2, #0
20001452:	5e9b      	ldrsh	r3, [r3, r2]
20001454:	4642      	mov	r2, r8
20001456:	8113      	strh	r3, [r2, #8]
20001458:	6912      	ldr	r2, [r2, #16]
2000145a:	f3ef 8310 	mrs	r3, PRIMASK
2000145e:	b672      	cpsid	i
20001460:	6811      	ldr	r1, [r2, #0]
20001462:	2900      	cmp	r1, #0
20001464:	d0fc      	beq.n	20001460 <alarm_pool_irq_handler+0x144>
20001466:	f3bf 8f5f 	dmb	sy
2000146a:	4642      	mov	r2, r8
2000146c:	2102      	movs	r1, #2
2000146e:	5e52      	ldrsh	r2, [r2, r1]
20001470:	4659      	mov	r1, fp
20001472:	800a      	strh	r2, [r1, #0]
20001474:	4642      	mov	r2, r8
20001476:	4649      	mov	r1, r9
20001478:	8051      	strh	r1, [r2, #2]
2000147a:	6912      	ldr	r2, [r2, #16]
2000147c:	f3bf 8f5f 	dmb	sy
20001480:	2100      	movs	r1, #0
20001482:	6011      	str	r1, [r2, #0]
20001484:	f383 8810 	msr	PRIMASK, r3
20001488:	e08e      	b.n	200015a8 <alarm_pool_irq_handler+0x28c>
2000148a:	4643      	mov	r3, r8
2000148c:	6919      	ldr	r1, [r3, #16]
2000148e:	f3ef 8310 	mrs	r3, PRIMASK
20001492:	b672      	cpsid	i
20001494:	680a      	ldr	r2, [r1, #0]
20001496:	2a00      	cmp	r2, #0
20001498:	d0fc      	beq.n	20001494 <alarm_pool_irq_handler+0x178>
2000149a:	f3bf 8f5f 	dmb	sy
2000149e:	4642      	mov	r2, r8
200014a0:	8892      	ldrh	r2, [r2, #4]
200014a2:	b212      	sxth	r2, r2
200014a4:	4691      	mov	r9, r2
200014a6:	2201      	movs	r2, #1
200014a8:	4252      	negs	r2, r2
200014aa:	4641      	mov	r1, r8
200014ac:	808a      	strh	r2, [r1, #4]
200014ae:	690a      	ldr	r2, [r1, #16]
200014b0:	f3bf 8f5f 	dmb	sy
200014b4:	2100      	movs	r1, #0
200014b6:	6011      	str	r1, [r2, #0]
200014b8:	f383 8810 	msr	PRIMASK, r3
200014bc:	e01c      	b.n	200014f8 <alarm_pool_irq_handler+0x1dc>
200014be:	469b      	mov	fp, r3
200014c0:	2200      	movs	r2, #0
200014c2:	5e9a      	ldrsh	r2, [r3, r2]
200014c4:	2a00      	cmp	r2, #0
200014c6:	db0e      	blt.n	200014e6 <alarm_pool_irq_handler+0x1ca>
200014c8:	465b      	mov	r3, fp
200014ca:	2100      	movs	r1, #0
200014cc:	5e59      	ldrsh	r1, [r3, r1]
200014ce:	004b      	lsls	r3, r1, #1
200014d0:	185b      	adds	r3, r3, r1
200014d2:	00db      	lsls	r3, r3, #3
200014d4:	4453      	add	r3, sl
200014d6:	6898      	ldr	r0, [r3, #8]
200014d8:	68d9      	ldr	r1, [r3, #12]
200014da:	0026      	movs	r6, r4
200014dc:	002f      	movs	r7, r5
200014de:	1a36      	subs	r6, r6, r0
200014e0:	418f      	sbcs	r7, r1
200014e2:	2f00      	cmp	r7, #0
200014e4:	daeb      	bge.n	200014be <alarm_pool_irq_handler+0x1a2>
200014e6:	464b      	mov	r3, r9
200014e8:	4659      	mov	r1, fp
200014ea:	800b      	strh	r3, [r1, #0]
200014ec:	4663      	mov	r3, ip
200014ee:	2100      	movs	r1, #0
200014f0:	5e5b      	ldrsh	r3, [r3, r1]
200014f2:	4699      	mov	r9, r3
200014f4:	4663      	mov	r3, ip
200014f6:	801a      	strh	r2, [r3, #0]
200014f8:	464b      	mov	r3, r9
200014fa:	2b00      	cmp	r3, #0
200014fc:	db5a      	blt.n	200015b4 <alarm_pool_irq_handler+0x298>
200014fe:	4643      	mov	r3, r8
20001500:	695a      	ldr	r2, [r3, #20]
20001502:	4692      	mov	sl, r2
20001504:	464b      	mov	r3, r9
20001506:	005b      	lsls	r3, r3, #1
20001508:	444b      	add	r3, r9
2000150a:	00db      	lsls	r3, r3, #3
2000150c:	469c      	mov	ip, r3
2000150e:	44d4      	add	ip, sl
20001510:	4663      	mov	r3, ip
20001512:	689c      	ldr	r4, [r3, #8]
20001514:	68dd      	ldr	r5, [r3, #12]
20001516:	4646      	mov	r6, r8
20001518:	3608      	adds	r6, #8
2000151a:	46b3      	mov	fp, r6
2000151c:	4643      	mov	r3, r8
2000151e:	2208      	movs	r2, #8
20001520:	5e9a      	ldrsh	r2, [r3, r2]
20001522:	e7cf      	b.n	200014c4 <alarm_pool_irq_handler+0x1a8>
20001524:	2300      	movs	r3, #0
20001526:	4642      	mov	r2, r8
20001528:	7193      	strb	r3, [r2, #6]
2000152a:	4641      	mov	r1, r8
2000152c:	3108      	adds	r1, #8
2000152e:	4643      	mov	r3, r8
20001530:	2008      	movs	r0, #8
20001532:	5e18      	ldrsh	r0, [r3, r0]
20001534:	e011      	b.n	2000155a <alarm_pool_irq_handler+0x23e>
20001536:	2201      	movs	r2, #1
20001538:	4252      	negs	r2, r2
2000153a:	17d3      	asrs	r3, r2, #31
2000153c:	60a2      	str	r2, [r4, #8]
2000153e:	60e3      	str	r3, [r4, #12]
20001540:	4643      	mov	r3, r8
20001542:	2208      	movs	r2, #8
20001544:	5e9b      	ldrsh	r3, [r3, r2]
20001546:	4283      	cmp	r3, r0
20001548:	d006      	beq.n	20001558 <alarm_pool_irq_handler+0x23c>
2000154a:	800d      	strh	r5, [r1, #0]
2000154c:	4643      	mov	r3, r8
2000154e:	2208      	movs	r2, #8
20001550:	5e9b      	ldrsh	r3, [r3, r2]
20001552:	8023      	strh	r3, [r4, #0]
20001554:	4643      	mov	r3, r8
20001556:	8118      	strh	r0, [r3, #8]
20001558:	0028      	movs	r0, r5
2000155a:	1c43      	adds	r3, r0, #1
2000155c:	d02e      	beq.n	200015bc <alarm_pool_irq_handler+0x2a0>
2000155e:	4643      	mov	r3, r8
20001560:	695a      	ldr	r2, [r3, #20]
20001562:	0043      	lsls	r3, r0, #1
20001564:	181b      	adds	r3, r3, r0
20001566:	00db      	lsls	r3, r3, #3
20001568:	18d4      	adds	r4, r2, r3
2000156a:	5ed5      	ldrsh	r5, [r2, r3]
2000156c:	8863      	ldrh	r3, [r4, #2]
2000156e:	b21b      	sxth	r3, r3
20001570:	2b00      	cmp	r3, #0
20001572:	dbe0      	blt.n	20001536 <alarm_pool_irq_handler+0x21a>
20001574:	0021      	movs	r1, r4
20001576:	e7ef      	b.n	20001558 <alarm_pool_irq_handler+0x23c>
20001578:	0022      	movs	r2, r4
2000157a:	002b      	movs	r3, r5
2000157c:	9901      	ldr	r1, [sp, #4]
2000157e:	4822      	ldr	r0, [pc, #136]	@ (20001608 <alarm_pool_irq_handler+0x2ec>)
20001580:	f7ff fe9c 	bl	200012bc <ta_set_timeout>
20001584:	4820      	ldr	r0, [pc, #128]	@ (20001608 <alarm_pool_irq_handler+0x2ec>)
20001586:	f000 faa5 	bl	20001ad4 <timer_time_us_64>
2000158a:	1a24      	subs	r4, r4, r0
2000158c:	418d      	sbcs	r5, r1
2000158e:	2d00      	cmp	r5, #0
20001590:	dc28      	bgt.n	200015e4 <alarm_pool_irq_handler+0x2c8>
20001592:	d025      	beq.n	200015e0 <alarm_pool_irq_handler+0x2c4>
20001594:	4b1c      	ldr	r3, [pc, #112]	@ (20001608 <alarm_pool_irq_handler+0x2ec>)
20001596:	9a00      	ldr	r2, [sp, #0]
20001598:	635a      	str	r2, [r3, #52]	@ 0x34
2000159a:	4643      	mov	r3, r8
2000159c:	2208      	movs	r2, #8
2000159e:	5e9b      	ldrsh	r3, [r3, r2]
200015a0:	4699      	mov	r9, r3
200015a2:	2b00      	cmp	r3, #0
200015a4:	db00      	blt.n	200015a8 <alarm_pool_irq_handler+0x28c>
200015a6:	e6db      	b.n	20001360 <alarm_pool_irq_handler+0x44>
200015a8:	4643      	mov	r3, r8
200015aa:	889b      	ldrh	r3, [r3, #4]
200015ac:	b21b      	sxth	r3, r3
200015ae:	2b00      	cmp	r3, #0
200015b0:	db00      	blt.n	200015b4 <alarm_pool_irq_handler+0x298>
200015b2:	e76a      	b.n	2000148a <alarm_pool_irq_handler+0x16e>
200015b4:	4643      	mov	r3, r8
200015b6:	799b      	ldrb	r3, [r3, #6]
200015b8:	2b00      	cmp	r3, #0
200015ba:	d1b3      	bne.n	20001524 <alarm_pool_irq_handler+0x208>
200015bc:	4643      	mov	r3, r8
200015be:	2208      	movs	r2, #8
200015c0:	5e9a      	ldrsh	r2, [r3, r2]
200015c2:	2a00      	cmp	r2, #0
200015c4:	db0e      	blt.n	200015e4 <alarm_pool_irq_handler+0x2c8>
200015c6:	4643      	mov	r3, r8
200015c8:	6959      	ldr	r1, [r3, #20]
200015ca:	0053      	lsls	r3, r2, #1
200015cc:	189b      	adds	r3, r3, r2
200015ce:	00db      	lsls	r3, r3, #3
200015d0:	18cb      	adds	r3, r1, r3
200015d2:	689c      	ldr	r4, [r3, #8]
200015d4:	68dd      	ldr	r5, [r3, #12]
200015d6:	1c63      	adds	r3, r4, #1
200015d8:	d1ce      	bne.n	20001578 <alarm_pool_irq_handler+0x25c>
200015da:	1c6b      	adds	r3, r5, #1
200015dc:	d0d2      	beq.n	20001584 <alarm_pool_irq_handler+0x268>
200015de:	e7cb      	b.n	20001578 <alarm_pool_irq_handler+0x25c>
200015e0:	2c00      	cmp	r4, #0
200015e2:	d0d7      	beq.n	20001594 <alarm_pool_irq_handler+0x278>
200015e4:	bf40      	sev
200015e6:	b003      	add	sp, #12
200015e8:	bcf0      	pop	{r4, r5, r6, r7}
200015ea:	46bb      	mov	fp, r7
200015ec:	46b2      	mov	sl, r6
200015ee:	46a9      	mov	r9, r5
200015f0:	46a0      	mov	r8, r4
200015f2:	bdf0      	pop	{r4, r5, r6, r7, pc}
200015f4:	20008adc 	.word	0x20008adc
200015f8:	4005703c 	.word	0x4005703c
200015fc:	200073e0 	.word	0x200073e0
20001600:	20007b0c 	.word	0x20007b0c
20001604:	2000740c 	.word	0x2000740c
20001608:	40054000 	.word	0x40054000
2000160c:	2000131d 	.word	0x2000131d

20001610 <ta_enable_irq_handler>:
20001610:	b570      	push	{r4, r5, r6, lr}
20001612:	0004      	movs	r4, r0
20001614:	000d      	movs	r5, r1
20001616:	0011      	movs	r1, r2
20001618:	2601      	movs	r6, #1
2000161a:	40ae      	lsls	r6, r5
2000161c:	6206      	str	r6, [r0, #32]
2000161e:	0028      	movs	r0, r5
20001620:	f7ff fc28 	bl	20000e74 <irq_set_exclusive_handler>
20001624:	2101      	movs	r1, #1
20001626:	0028      	movs	r0, r5
20001628:	f7ff fbfc 	bl	20000e24 <irq_set_enabled>
2000162c:	4b02      	ldr	r3, [pc, #8]	@ (20001638 <ta_enable_irq_handler+0x28>)
2000162e:	469c      	mov	ip, r3
20001630:	4464      	add	r4, ip
20001632:	6026      	str	r6, [r4, #0]
20001634:	bd70      	pop	{r4, r5, r6, pc}
20001636:	46c0      	nop			@ (mov r8, r8)
20001638:	00002038 	.word	0x00002038

2000163c <alarm_pool_post_alloc_init>:
2000163c:	b5f8      	push	{r3, r4, r5, r6, r7, lr}
2000163e:	0004      	movs	r4, r0
20001640:	000f      	movs	r7, r1
20001642:	0016      	movs	r6, r2
20001644:	001d      	movs	r5, r3
20001646:	60c1      	str	r1, [r0, #12]
20001648:	f7ff fb42 	bl	20000cd0 <next_striped_spin_lock_num>
2000164c:	4b12      	ldr	r3, [pc, #72]	@ (20001698 <alarm_pool_post_alloc_init+0x5c>)
2000164e:	469c      	mov	ip, r3
20001650:	4460      	add	r0, ip
20001652:	0080      	lsls	r0, r0, #2
20001654:	6120      	str	r0, [r4, #16]
20001656:	7026      	strb	r6, [r4, #0]
20001658:	b2ab      	uxth	r3, r5
2000165a:	8163      	strh	r3, [r4, #10]
2000165c:	22d0      	movs	r2, #208	@ 0xd0
2000165e:	0612      	lsls	r2, r2, #24
20001660:	7812      	ldrb	r2, [r2, #0]
20001662:	7062      	strb	r2, [r4, #1]
20001664:	2201      	movs	r2, #1
20001666:	4252      	negs	r2, r2
20001668:	8122      	strh	r2, [r4, #8]
2000166a:	80a2      	strh	r2, [r4, #4]
2000166c:	189b      	adds	r3, r3, r2
2000166e:	8063      	strh	r3, [r4, #2]
20001670:	2300      	movs	r3, #0
20001672:	e006      	b.n	20001682 <alarm_pool_post_alloc_init+0x46>
20001674:	1e58      	subs	r0, r3, #1
20001676:	6961      	ldr	r1, [r4, #20]
20001678:	005a      	lsls	r2, r3, #1
2000167a:	18d2      	adds	r2, r2, r3
2000167c:	00d2      	lsls	r2, r2, #3
2000167e:	5288      	strh	r0, [r1, r2]
20001680:	3301      	adds	r3, #1
20001682:	42ab      	cmp	r3, r5
20001684:	d3f6      	bcc.n	20001674 <alarm_pool_post_alloc_init+0x38>
20001686:	4b05      	ldr	r3, [pc, #20]	@ (2000169c <alarm_pool_post_alloc_init+0x60>)
20001688:	00b2      	lsls	r2, r6, #2
2000168a:	50d4      	str	r4, [r2, r3]
2000168c:	4a04      	ldr	r2, [pc, #16]	@ (200016a0 <alarm_pool_post_alloc_init+0x64>)
2000168e:	0031      	movs	r1, r6
20001690:	0038      	movs	r0, r7
20001692:	f7ff ffbd 	bl	20001610 <ta_enable_irq_handler>
20001696:	bdf8      	pop	{r3, r4, r5, r6, r7, pc}
20001698:	34000040 	.word	0x34000040
2000169c:	20008adc 	.word	0x20008adc
200016a0:	2000131d 	.word	0x2000131d

200016a4 <alarm_pool_get_default>:
200016a4:	b510      	push	{r4, lr}
200016a6:	4b06      	ldr	r3, [pc, #24]	@ (200016c0 <alarm_pool_get_default+0x1c>)
200016a8:	691b      	ldr	r3, [r3, #16]
200016aa:	2b00      	cmp	r3, #0
200016ac:	d001      	beq.n	200016b2 <alarm_pool_get_default+0xe>
200016ae:	4804      	ldr	r0, [pc, #16]	@ (200016c0 <alarm_pool_get_default+0x1c>)
200016b0:	bd10      	pop	{r4, pc}
200016b2:	4b04      	ldr	r3, [pc, #16]	@ (200016c4 <alarm_pool_get_default+0x20>)
200016b4:	4a04      	ldr	r2, [pc, #16]	@ (200016c8 <alarm_pool_get_default+0x24>)
200016b6:	4805      	ldr	r0, [pc, #20]	@ (200016cc <alarm_pool_get_default+0x28>)
200016b8:	2165      	movs	r1, #101	@ 0x65
200016ba:	f002 fd0d 	bl	200040d8 <__assert_func>
200016be:	46c0      	nop			@ (mov r8, r8)
200016c0:	20007e7c 	.word	0x20007e7c
200016c4:	2000744c 	.word	0x2000744c
200016c8:	20007af4 	.word	0x20007af4
200016cc:	2000740c 	.word	0x2000740c

200016d0 <alarm_pool_add_alarm_at_force_in_context>:
200016d0:	b5f8      	push	{r3, r4, r5, r6, r7, lr}
200016d2:	0004      	movs	r4, r0
200016d4:	6905      	ldr	r5, [r0, #16]
200016d6:	f3ef 8010 	mrs	r0, PRIMASK
200016da:	b672      	cpsid	i
200016dc:	6829      	ldr	r1, [r5, #0]
200016de:	2900      	cmp	r1, #0
200016e0:	d0fc      	beq.n	200016dc <alarm_pool_add_alarm_at_force_in_context+0xc>
200016e2:	f3bf 8f5f 	dmb	sy
200016e6:	2102      	movs	r1, #2
200016e8:	5e66      	ldrsh	r6, [r4, r1]
200016ea:	6965      	ldr	r5, [r4, #20]
200016ec:	0071      	lsls	r1, r6, #1
200016ee:	1989      	adds	r1, r1, r6
200016f0:	00c9      	lsls	r1, r1, #3
200016f2:	186d      	adds	r5, r5, r1
200016f4:	2e00      	cmp	r6, #0
200016f6:	db02      	blt.n	200016fe <alarm_pool_add_alarm_at_force_in_context+0x2e>
200016f8:	2700      	movs	r7, #0
200016fa:	5fe9      	ldrsh	r1, [r5, r7]
200016fc:	8061      	strh	r1, [r4, #2]
200016fe:	6921      	ldr	r1, [r4, #16]
20001700:	f3bf 8f5f 	dmb	sy
20001704:	2700      	movs	r7, #0
20001706:	600f      	str	r7, [r1, #0]
20001708:	f380 8810 	msr	PRIMASK, r0
2000170c:	2e00      	cmp	r6, #0
2000170e:	db2c      	blt.n	2000176a <alarm_pool_add_alarm_at_force_in_context+0x9a>
20001710:	9906      	ldr	r1, [sp, #24]
20001712:	6129      	str	r1, [r5, #16]
20001714:	9907      	ldr	r1, [sp, #28]
20001716:	6169      	str	r1, [r5, #20]
20001718:	60aa      	str	r2, [r5, #8]
2000171a:	60eb      	str	r3, [r5, #12]
2000171c:	886b      	ldrh	r3, [r5, #2]
2000171e:	3301      	adds	r3, #1
20001720:	045b      	lsls	r3, r3, #17
20001722:	0c59      	lsrs	r1, r3, #17
20001724:	2b00      	cmp	r3, #0
20001726:	d100      	bne.n	2000172a <alarm_pool_add_alarm_at_force_in_context+0x5a>
20001728:	2101      	movs	r1, #1
2000172a:	8069      	strh	r1, [r5, #2]
2000172c:	0030      	movs	r0, r6
2000172e:	f7ff fdd9 	bl	200012e4 <make_alarm_id>
20001732:	6921      	ldr	r1, [r4, #16]
20001734:	f3ef 8310 	mrs	r3, PRIMASK
20001738:	b672      	cpsid	i
2000173a:	680a      	ldr	r2, [r1, #0]
2000173c:	2a00      	cmp	r2, #0
2000173e:	d0fc      	beq.n	2000173a <alarm_pool_add_alarm_at_force_in_context+0x6a>
20001740:	f3bf 8f5f 	dmb	sy
20001744:	88a2      	ldrh	r2, [r4, #4]
20001746:	802a      	strh	r2, [r5, #0]
20001748:	80a6      	strh	r6, [r4, #4]
2000174a:	6922      	ldr	r2, [r4, #16]
2000174c:	f3bf 8f5f 	dmb	sy
20001750:	2100      	movs	r1, #0
20001752:	6011      	str	r1, [r2, #0]
20001754:	f383 8810 	msr	PRIMASK, r3
20001758:	68e3      	ldr	r3, [r4, #12]
2000175a:	7821      	ldrb	r1, [r4, #0]
2000175c:	2201      	movs	r2, #1
2000175e:	408a      	lsls	r2, r1
20001760:	4903      	ldr	r1, [pc, #12]	@ (20001770 <alarm_pool_add_alarm_at_force_in_context+0xa0>)
20001762:	468c      	mov	ip, r1
20001764:	4463      	add	r3, ip
20001766:	601a      	str	r2, [r3, #0]
20001768:	bdf8      	pop	{r3, r4, r5, r6, r7, pc}
2000176a:	2001      	movs	r0, #1
2000176c:	4240      	negs	r0, r0
2000176e:	e7fb      	b.n	20001768 <alarm_pool_add_alarm_at_force_in_context+0x98>
20001770:	0000203c 	.word	0x0000203c

20001774 <alarm_pool_add_alarm_at>:
20001774:	b570      	push	{r4, r5, r6, lr}
20001776:	b082      	sub	sp, #8
20001778:	0006      	movs	r6, r0
2000177a:	0014      	movs	r4, r2
2000177c:	001d      	movs	r5, r3
2000177e:	ab08      	add	r3, sp, #32
20001780:	781b      	ldrb	r3, [r3, #0]
20001782:	2b00      	cmp	r3, #0
20001784:	d107      	bne.n	20001796 <alarm_pool_add_alarm_at+0x22>
20001786:	f000 f9bb 	bl	20001b00 <time_us_64>
2000178a:	0022      	movs	r2, r4
2000178c:	002b      	movs	r3, r5
2000178e:	1a12      	subs	r2, r2, r0
20001790:	418b      	sbcs	r3, r1
20001792:	2b00      	cmp	r3, #0
20001794:	db0a      	blt.n	200017ac <alarm_pool_add_alarm_at+0x38>
20001796:	9b07      	ldr	r3, [sp, #28]
20001798:	9301      	str	r3, [sp, #4]
2000179a:	9b06      	ldr	r3, [sp, #24]
2000179c:	9300      	str	r3, [sp, #0]
2000179e:	0022      	movs	r2, r4
200017a0:	002b      	movs	r3, r5
200017a2:	0030      	movs	r0, r6
200017a4:	f7ff ff94 	bl	200016d0 <alarm_pool_add_alarm_at_force_in_context>
200017a8:	b002      	add	sp, #8
200017aa:	bd70      	pop	{r4, r5, r6, pc}
200017ac:	2000      	movs	r0, #0
200017ae:	e7fb      	b.n	200017a8 <alarm_pool_add_alarm_at+0x34>

200017b0 <add_alarm_at>:
200017b0:	b5f0      	push	{r4, r5, r6, r7, lr}
200017b2:	46c6      	mov	lr, r8
200017b4:	b500      	push	{lr}
200017b6:	b084      	sub	sp, #16
200017b8:	4680      	mov	r8, r0
200017ba:	000f      	movs	r7, r1
200017bc:	0016      	movs	r6, r2
200017be:	001d      	movs	r5, r3
200017c0:	ab0a      	add	r3, sp, #40	@ 0x28
200017c2:	781c      	ldrb	r4, [r3, #0]
200017c4:	f7ff ff6e 	bl	200016a4 <alarm_pool_get_default>
200017c8:	9402      	str	r4, [sp, #8]
200017ca:	9501      	str	r5, [sp, #4]
200017cc:	9600      	str	r6, [sp, #0]
200017ce:	4642      	mov	r2, r8
200017d0:	003b      	movs	r3, r7
200017d2:	f7ff ffcf 	bl	20001774 <alarm_pool_add_alarm_at>
200017d6:	b004      	add	sp, #16
200017d8:	bc80      	pop	{r7}
200017da:	46b8      	mov	r8, r7
200017dc:	bdf0      	pop	{r4, r5, r6, r7, pc}
	...

200017e0 <alarm_pool_cancel_alarm>:
200017e0:	b530      	push	{r4, r5, lr}
200017e2:	0004      	movs	r4, r0
200017e4:	140a      	asrs	r2, r1, #16
200017e6:	8943      	ldrh	r3, [r0, #10]
200017e8:	429a      	cmp	r2, r3
200017ea:	da30      	bge.n	2000184e <alarm_pool_cancel_alarm+0x6e>
200017ec:	6940      	ldr	r0, [r0, #20]
200017ee:	0053      	lsls	r3, r2, #1
200017f0:	189b      	adds	r3, r3, r2
200017f2:	00db      	lsls	r3, r3, #3
200017f4:	18c3      	adds	r3, r0, r3
200017f6:	6922      	ldr	r2, [r4, #16]
200017f8:	4694      	mov	ip, r2
200017fa:	f3ef 8210 	mrs	r2, PRIMASK
200017fe:	b672      	cpsid	i
20001800:	4660      	mov	r0, ip
20001802:	6800      	ldr	r0, [r0, #0]
20001804:	2800      	cmp	r0, #0
20001806:	d0fb      	beq.n	20001800 <alarm_pool_cancel_alarm+0x20>
20001808:	f3bf 8f5f 	dmb	sy
2000180c:	8858      	ldrh	r0, [r3, #2]
2000180e:	b285      	uxth	r5, r0
20001810:	0409      	lsls	r1, r1, #16
20001812:	0c09      	lsrs	r1, r1, #16
20001814:	4288      	cmp	r0, r1
20001816:	d012      	beq.n	2000183e <alarm_pool_cancel_alarm+0x5e>
20001818:	2000      	movs	r0, #0
2000181a:	6923      	ldr	r3, [r4, #16]
2000181c:	f3bf 8f5f 	dmb	sy
20001820:	2100      	movs	r1, #0
20001822:	6019      	str	r1, [r3, #0]
20001824:	f382 8810 	msr	PRIMASK, r2
20001828:	2800      	cmp	r0, #0
2000182a:	d011      	beq.n	20001850 <alarm_pool_cancel_alarm+0x70>
2000182c:	68e3      	ldr	r3, [r4, #12]
2000182e:	7821      	ldrb	r1, [r4, #0]
20001830:	2201      	movs	r2, #1
20001832:	408a      	lsls	r2, r1
20001834:	4907      	ldr	r1, [pc, #28]	@ (20001854 <alarm_pool_cancel_alarm+0x74>)
20001836:	468c      	mov	ip, r1
20001838:	4463      	add	r3, ip
2000183a:	601a      	str	r2, [r3, #0]
2000183c:	e008      	b.n	20001850 <alarm_pool_cancel_alarm+0x70>
2000183e:	4906      	ldr	r1, [pc, #24]	@ (20001858 <alarm_pool_cancel_alarm+0x78>)
20001840:	4329      	orrs	r1, r5
20001842:	b289      	uxth	r1, r1
20001844:	8059      	strh	r1, [r3, #2]
20001846:	2301      	movs	r3, #1
20001848:	71a3      	strb	r3, [r4, #6]
2000184a:	2001      	movs	r0, #1
2000184c:	e7e5      	b.n	2000181a <alarm_pool_cancel_alarm+0x3a>
2000184e:	2000      	movs	r0, #0
20001850:	bd30      	pop	{r4, r5, pc}
20001852:	46c0      	nop			@ (mov r8, r8)
20001854:	0000203c 	.word	0x0000203c
20001858:	ffff8000 	.word	0xffff8000

2000185c <cancel_alarm>:
2000185c:	b510      	push	{r4, lr}
2000185e:	0004      	movs	r4, r0
20001860:	f7ff ff20 	bl	200016a4 <alarm_pool_get_default>
20001864:	0021      	movs	r1, r4
20001866:	f7ff ffbb 	bl	200017e0 <alarm_pool_cancel_alarm>
2000186a:	bd10      	pop	{r4, pc}

2000186c <alarm_pool_core_num>:
2000186c:	7840      	ldrb	r0, [r0, #1]
2000186e:	4770      	bx	lr

20001870 <sleep_until>:
20001870:	b5f0      	push	{r4, r5, r6, r7, lr}
20001872:	b083      	sub	sp, #12
20001874:	0006      	movs	r6, r0
20001876:	000f      	movs	r7, r1
20001878:	f3ef 8305 	mrs	r3, IPSR
2000187c:	2b00      	cmp	r3, #0
2000187e:	d11a      	bne.n	200018b6 <sleep_until+0x46>
20001880:	2406      	movs	r4, #6
20001882:	4264      	negs	r4, r4
20001884:	17e5      	asrs	r5, r4, #31
20001886:	19a4      	adds	r4, r4, r6
20001888:	417d      	adcs	r5, r7
2000188a:	428d      	cmp	r5, r1
2000188c:	d802      	bhi.n	20001894 <sleep_until+0x24>
2000188e:	d103      	bne.n	20001898 <sleep_until+0x28>
20001890:	4284      	cmp	r4, r0
20001892:	d901      	bls.n	20001898 <sleep_until+0x28>
20001894:	2400      	movs	r4, #0
20001896:	2500      	movs	r5, #0
20001898:	f000 f932 	bl	20001b00 <time_us_64>
2000189c:	0022      	movs	r2, r4
2000189e:	002b      	movs	r3, r5
200018a0:	1a12      	subs	r2, r2, r0
200018a2:	418b      	sbcs	r3, r1
200018a4:	2b00      	cmp	r3, #0
200018a6:	dc0b      	bgt.n	200018c0 <sleep_until+0x50>
200018a8:	d008      	beq.n	200018bc <sleep_until+0x4c>
200018aa:	0030      	movs	r0, r6
200018ac:	0039      	movs	r1, r7
200018ae:	f000 f92f 	bl	20001b10 <busy_wait_until>
200018b2:	b003      	add	sp, #12
200018b4:	bdf0      	pop	{r4, r5, r6, r7, pc}
200018b6:	4816      	ldr	r0, [pc, #88]	@ (20001910 <sleep_until+0xa0>)
200018b8:	f7ff f998 	bl	20000bec <panic>
200018bc:	2a00      	cmp	r2, #0
200018be:	d0f4      	beq.n	200018aa <sleep_until+0x3a>
200018c0:	4a14      	ldr	r2, [pc, #80]	@ (20001914 <sleep_until+0xa4>)
200018c2:	2300      	movs	r3, #0
200018c4:	9300      	str	r3, [sp, #0]
200018c6:	0020      	movs	r0, r4
200018c8:	0029      	movs	r1, r5
200018ca:	f7ff ff71 	bl	200017b0 <add_alarm_at>
200018ce:	2800      	cmp	r0, #0
200018d0:	da13      	bge.n	200018fa <sleep_until+0x8a>
200018d2:	e7ea      	b.n	200018aa <sleep_until+0x3a>
200018d4:	4b10      	ldr	r3, [pc, #64]	@ (20001918 <sleep_until+0xa8>)
200018d6:	6819      	ldr	r1, [r3, #0]
200018d8:	f3ef 8310 	mrs	r3, PRIMASK
200018dc:	b672      	cpsid	i
200018de:	680a      	ldr	r2, [r1, #0]
200018e0:	2a00      	cmp	r2, #0
200018e2:	d0fc      	beq.n	200018de <sleep_until+0x6e>
200018e4:	f3bf 8f5f 	dmb	sy
200018e8:	4a0b      	ldr	r2, [pc, #44]	@ (20001918 <sleep_until+0xa8>)
200018ea:	6812      	ldr	r2, [r2, #0]
200018ec:	f3bf 8f5f 	dmb	sy
200018f0:	2100      	movs	r1, #0
200018f2:	6011      	str	r1, [r2, #0]
200018f4:	f383 8810 	msr	PRIMASK, r3
200018f8:	bf20      	wfe
200018fa:	4b08      	ldr	r3, [pc, #32]	@ (2000191c <sleep_until+0xac>)
200018fc:	6a5b      	ldr	r3, [r3, #36]	@ 0x24
200018fe:	429d      	cmp	r5, r3
20001900:	d8e8      	bhi.n	200018d4 <sleep_until+0x64>
20001902:	4906      	ldr	r1, [pc, #24]	@ (2000191c <sleep_until+0xac>)
20001904:	6a89      	ldr	r1, [r1, #40]	@ 0x28
20001906:	42a1      	cmp	r1, r4
20001908:	d2cf      	bcs.n	200018aa <sleep_until+0x3a>
2000190a:	429d      	cmp	r5, r3
2000190c:	d1cd      	bne.n	200018aa <sleep_until+0x3a>
2000190e:	e7e1      	b.n	200018d4 <sleep_until+0x64>
20001910:	20007470 	.word	0x20007470
20001914:	200012ed 	.word	0x200012ed
20001918:	20008cf8 	.word	0x20008cf8
2000191c:	40054000 	.word	0x40054000

20001920 <sleep_us>:
20001920:	b570      	push	{r4, r5, r6, lr}
20001922:	0004      	movs	r4, r0
20001924:	000d      	movs	r5, r1
20001926:	f000 f8eb 	bl	20001b00 <time_us_64>
2000192a:	0022      	movs	r2, r4
2000192c:	002b      	movs	r3, r5
2000192e:	1812      	adds	r2, r2, r0
20001930:	414b      	adcs	r3, r1
20001932:	0010      	movs	r0, r2
20001934:	1e19      	subs	r1, r3, #0
20001936:	db02      	blt.n	2000193e <sleep_us+0x1e>
20001938:	f7ff ff9a 	bl	20001870 <sleep_until>
2000193c:	bd70      	pop	{r4, r5, r6, pc}
2000193e:	2001      	movs	r0, #1
20001940:	4240      	negs	r0, r0
20001942:	4901      	ldr	r1, [pc, #4]	@ (20001948 <sleep_us+0x28>)
20001944:	e7f8      	b.n	20001938 <sleep_us+0x18>
20001946:	46c0      	nop			@ (mov r8, r8)
20001948:	7fffffff 	.word	0x7fffffff

2000194c <sleep_ms>:
2000194c:	b510      	push	{r4, lr}
2000194e:	22fa      	movs	r2, #250	@ 0xfa
20001950:	0092      	lsls	r2, r2, #2
20001952:	2300      	movs	r3, #0
20001954:	2100      	movs	r1, #0
20001956:	f001 f9ff 	bl	20002d58 <__wrap___aeabi_lmul>
2000195a:	f7ff ffe1 	bl	20001920 <sleep_us>
2000195e:	bd10      	pop	{r4, pc}

20001960 <best_effort_wfe_or_timeout>:
20001960:	b5f0      	push	{r4, r5, r6, r7, lr}
20001962:	b085      	sub	sp, #20
20001964:	9003      	str	r0, [sp, #12]
20001966:	9102      	str	r1, [sp, #8]
20001968:	f3ef 8305 	mrs	r3, IPSR
2000196c:	2b00      	cmp	r3, #0
2000196e:	d013      	beq.n	20001998 <best_effort_wfe_or_timeout+0x38>
20001970:	000b      	movs	r3, r1
20001972:	4a41      	ldr	r2, [pc, #260]	@ (20001a78 <best_effort_wfe_or_timeout+0x118>)
20001974:	6a52      	ldr	r2, [r2, #36]	@ 0x24
20001976:	428a      	cmp	r2, r1
20001978:	d309      	bcc.n	2000198e <best_effort_wfe_or_timeout+0x2e>
2000197a:	493f      	ldr	r1, [pc, #252]	@ (20001a78 <best_effort_wfe_or_timeout+0x118>)
2000197c:	6a89      	ldr	r1, [r1, #40]	@ 0x28
2000197e:	4281      	cmp	r1, r0
20001980:	d208      	bcs.n	20001994 <best_effort_wfe_or_timeout+0x34>
20001982:	429a      	cmp	r2, r3
20001984:	d001      	beq.n	2000198a <best_effort_wfe_or_timeout+0x2a>
20001986:	2001      	movs	r0, #1
20001988:	e002      	b.n	20001990 <best_effort_wfe_or_timeout+0x30>
2000198a:	2000      	movs	r0, #0
2000198c:	e000      	b.n	20001990 <best_effort_wfe_or_timeout+0x30>
2000198e:	2000      	movs	r0, #0
20001990:	b005      	add	sp, #20
20001992:	bdf0      	pop	{r4, r5, r6, r7, pc}
20001994:	2001      	movs	r0, #1
20001996:	e7fb      	b.n	20001990 <best_effort_wfe_or_timeout+0x30>
20001998:	f7ff fe84 	bl	200016a4 <alarm_pool_get_default>
2000199c:	68c3      	ldr	r3, [r0, #12]
2000199e:	001f      	movs	r7, r3
200019a0:	7806      	ldrb	r6, [r0, #0]
200019a2:	9a03      	ldr	r2, [sp, #12]
200019a4:	0014      	movs	r4, r2
200019a6:	9a02      	ldr	r2, [sp, #8]
200019a8:	0015      	movs	r5, r2
200019aa:	0018      	movs	r0, r3
200019ac:	f000 f892 	bl	20001ad4 <timer_time_us_64>
200019b0:	0002      	movs	r2, r0
200019b2:	000b      	movs	r3, r1
200019b4:	1aa4      	subs	r4, r4, r2
200019b6:	419d      	sbcs	r5, r3
200019b8:	0022      	movs	r2, r4
200019ba:	1d31      	adds	r1, r6, #4
200019bc:	0089      	lsls	r1, r1, #2
200019be:	59c9      	ldr	r1, [r1, r7]
200019c0:	1a09      	subs	r1, r1, r0
200019c2:	2000      	movs	r0, #0
200019c4:	42a8      	cmp	r0, r5
200019c6:	dc11      	bgt.n	200019ec <best_effort_wfe_or_timeout+0x8c>
200019c8:	d00e      	beq.n	200019e8 <best_effort_wfe_or_timeout+0x88>
200019ca:	bf20      	wfe
200019cc:	9a02      	ldr	r2, [sp, #8]
200019ce:	4b2a      	ldr	r3, [pc, #168]	@ (20001a78 <best_effort_wfe_or_timeout+0x118>)
200019d0:	6a5b      	ldr	r3, [r3, #36]	@ 0x24
200019d2:	429a      	cmp	r2, r3
200019d4:	d834      	bhi.n	20001a40 <best_effort_wfe_or_timeout+0xe0>
200019d6:	4928      	ldr	r1, [pc, #160]	@ (20001a78 <best_effort_wfe_or_timeout+0x118>)
200019d8:	6a89      	ldr	r1, [r1, #40]	@ 0x28
200019da:	9803      	ldr	r0, [sp, #12]
200019dc:	4281      	cmp	r1, r0
200019de:	d231      	bcs.n	20001a44 <best_effort_wfe_or_timeout+0xe4>
200019e0:	429a      	cmp	r2, r3
200019e2:	d02b      	beq.n	20001a3c <best_effort_wfe_or_timeout+0xdc>
200019e4:	2001      	movs	r0, #1
200019e6:	e7d3      	b.n	20001990 <best_effort_wfe_or_timeout+0x30>
200019e8:	4291      	cmp	r1, r2
200019ea:	d9ee      	bls.n	200019ca <best_effort_wfe_or_timeout+0x6a>
200019ec:	4a23      	ldr	r2, [pc, #140]	@ (20001a7c <best_effort_wfe_or_timeout+0x11c>)
200019ee:	2300      	movs	r3, #0
200019f0:	9300      	str	r3, [sp, #0]
200019f2:	9d03      	ldr	r5, [sp, #12]
200019f4:	0028      	movs	r0, r5
200019f6:	9c02      	ldr	r4, [sp, #8]
200019f8:	0021      	movs	r1, r4
200019fa:	f7ff fed9 	bl	200017b0 <add_alarm_at>
200019fe:	2800      	cmp	r0, #0
20001a00:	dd22      	ble.n	20001a48 <best_effort_wfe_or_timeout+0xe8>
20001a02:	9902      	ldr	r1, [sp, #8]
20001a04:	000d      	movs	r5, r1
20001a06:	4b1c      	ldr	r3, [pc, #112]	@ (20001a78 <best_effort_wfe_or_timeout+0x118>)
20001a08:	6a5b      	ldr	r3, [r3, #36]	@ 0x24
20001a0a:	4299      	cmp	r1, r3
20001a0c:	d806      	bhi.n	20001a1c <best_effort_wfe_or_timeout+0xbc>
20001a0e:	4a1a      	ldr	r2, [pc, #104]	@ (20001a78 <best_effort_wfe_or_timeout+0x118>)
20001a10:	6a92      	ldr	r2, [r2, #40]	@ 0x28
20001a12:	9c03      	ldr	r4, [sp, #12]
20001a14:	42a2      	cmp	r2, r4
20001a16:	d202      	bcs.n	20001a1e <best_effort_wfe_or_timeout+0xbe>
20001a18:	4299      	cmp	r1, r3
20001a1a:	d100      	bne.n	20001a1e <best_effort_wfe_or_timeout+0xbe>
20001a1c:	bf20      	wfe
20001a1e:	f7ff ff1d 	bl	2000185c <cancel_alarm>
20001a22:	4b15      	ldr	r3, [pc, #84]	@ (20001a78 <best_effort_wfe_or_timeout+0x118>)
20001a24:	6a5b      	ldr	r3, [r3, #36]	@ 0x24
20001a26:	429d      	cmp	r5, r3
20001a28:	d822      	bhi.n	20001a70 <best_effort_wfe_or_timeout+0x110>
20001a2a:	4a13      	ldr	r2, [pc, #76]	@ (20001a78 <best_effort_wfe_or_timeout+0x118>)
20001a2c:	6a92      	ldr	r2, [r2, #40]	@ 0x28
20001a2e:	9803      	ldr	r0, [sp, #12]
20001a30:	4282      	cmp	r2, r0
20001a32:	d21f      	bcs.n	20001a74 <best_effort_wfe_or_timeout+0x114>
20001a34:	429d      	cmp	r5, r3
20001a36:	d019      	beq.n	20001a6c <best_effort_wfe_or_timeout+0x10c>
20001a38:	2001      	movs	r0, #1
20001a3a:	e7a9      	b.n	20001990 <best_effort_wfe_or_timeout+0x30>
20001a3c:	2000      	movs	r0, #0
20001a3e:	e7a7      	b.n	20001990 <best_effort_wfe_or_timeout+0x30>
20001a40:	2000      	movs	r0, #0
20001a42:	e7a5      	b.n	20001990 <best_effort_wfe_or_timeout+0x30>
20001a44:	2001      	movs	r0, #1
20001a46:	e7a3      	b.n	20001990 <best_effort_wfe_or_timeout+0x30>
20001a48:	4b0b      	ldr	r3, [pc, #44]	@ (20001a78 <best_effort_wfe_or_timeout+0x118>)
20001a4a:	6a5b      	ldr	r3, [r3, #36]	@ 0x24
20001a4c:	429c      	cmp	r4, r3
20001a4e:	d809      	bhi.n	20001a64 <best_effort_wfe_or_timeout+0x104>
20001a50:	4909      	ldr	r1, [pc, #36]	@ (20001a78 <best_effort_wfe_or_timeout+0x118>)
20001a52:	6a89      	ldr	r1, [r1, #40]	@ 0x28
20001a54:	42a9      	cmp	r1, r5
20001a56:	d207      	bcs.n	20001a68 <best_effort_wfe_or_timeout+0x108>
20001a58:	429c      	cmp	r4, r3
20001a5a:	d001      	beq.n	20001a60 <best_effort_wfe_or_timeout+0x100>
20001a5c:	2001      	movs	r0, #1
20001a5e:	e797      	b.n	20001990 <best_effort_wfe_or_timeout+0x30>
20001a60:	2000      	movs	r0, #0
20001a62:	e795      	b.n	20001990 <best_effort_wfe_or_timeout+0x30>
20001a64:	2000      	movs	r0, #0
20001a66:	e793      	b.n	20001990 <best_effort_wfe_or_timeout+0x30>
20001a68:	2001      	movs	r0, #1
20001a6a:	e791      	b.n	20001990 <best_effort_wfe_or_timeout+0x30>
20001a6c:	2000      	movs	r0, #0
20001a6e:	e78f      	b.n	20001990 <best_effort_wfe_or_timeout+0x30>
20001a70:	2000      	movs	r0, #0
20001a72:	e78d      	b.n	20001990 <best_effort_wfe_or_timeout+0x30>
20001a74:	2001      	movs	r0, #1
20001a76:	e78b      	b.n	20001990 <best_effort_wfe_or_timeout+0x30>
20001a78:	40054000 	.word	0x40054000
20001a7c:	200012ed 	.word	0x200012ed

20001a80 <alarm_pool_get_default_timer>:
20001a80:	4800      	ldr	r0, [pc, #0]	@ (20001a84 <alarm_pool_get_default_timer+0x4>)
20001a82:	4770      	bx	lr
20001a84:	40054000 	.word	0x40054000

20001a88 <runtime_init_default_alarm_pool>:
20001a88:	b510      	push	{r4, lr}
20001a8a:	4b0b      	ldr	r3, [pc, #44]	@ (20001ab8 <runtime_init_default_alarm_pool+0x30>)
20001a8c:	691b      	ldr	r3, [r3, #16]
20001a8e:	2b00      	cmp	r3, #0
20001a90:	d004      	beq.n	20001a9c <runtime_init_default_alarm_pool+0x14>
20001a92:	480a      	ldr	r0, [pc, #40]	@ (20001abc <runtime_init_default_alarm_pool+0x34>)
20001a94:	210a      	movs	r1, #10
20001a96:	f7ff fbb3 	bl	20001200 <lock_init>
20001a9a:	bd10      	pop	{r4, pc}
20001a9c:	f7ff fff0 	bl	20001a80 <alarm_pool_get_default_timer>
20001aa0:	0004      	movs	r4, r0
20001aa2:	2103      	movs	r1, #3
20001aa4:	f000 f80c 	bl	20001ac0 <timer_hardware_alarm_claim>
20001aa8:	4803      	ldr	r0, [pc, #12]	@ (20001ab8 <runtime_init_default_alarm_pool+0x30>)
20001aaa:	2310      	movs	r3, #16
20001aac:	2203      	movs	r2, #3
20001aae:	0021      	movs	r1, r4
20001ab0:	f7ff fdc4 	bl	2000163c <alarm_pool_post_alloc_init>
20001ab4:	e7ed      	b.n	20001a92 <runtime_init_default_alarm_pool+0xa>
20001ab6:	46c0      	nop			@ (mov r8, r8)
20001ab8:	20007e7c 	.word	0x20007e7c
20001abc:	20008cf8 	.word	0x20008cf8

20001ac0 <timer_hardware_alarm_claim>:
20001ac0:	b510      	push	{r4, lr}
20001ac2:	4a02      	ldr	r2, [pc, #8]	@ (20001acc <timer_hardware_alarm_claim+0xc>)
20001ac4:	4802      	ldr	r0, [pc, #8]	@ (20001ad0 <timer_hardware_alarm_claim+0x10>)
20001ac6:	f7ff f8bf 	bl	20000c48 <hw_claim_or_assert>
20001aca:	bd10      	pop	{r4, pc}
20001acc:	200074c0 	.word	0x200074c0
20001ad0:	2000866c 	.word	0x2000866c

20001ad4 <timer_time_us_64>:
20001ad4:	0002      	movs	r2, r0
20001ad6:	6a43      	ldr	r3, [r0, #36]	@ 0x24
20001ad8:	6a90      	ldr	r0, [r2, #40]	@ 0x28
20001ada:	0019      	movs	r1, r3
20001adc:	6a53      	ldr	r3, [r2, #36]	@ 0x24
20001ade:	4299      	cmp	r1, r3
20001ae0:	d1fa      	bne.n	20001ad8 <timer_time_us_64+0x4>
20001ae2:	4770      	bx	lr

20001ae4 <timer_busy_wait_until>:
20001ae4:	6a41      	ldr	r1, [r0, #36]	@ 0x24
20001ae6:	e000      	b.n	20001aea <timer_busy_wait_until+0x6>
20001ae8:	6a41      	ldr	r1, [r0, #36]	@ 0x24
20001aea:	4299      	cmp	r1, r3
20001aec:	d3fc      	bcc.n	20001ae8 <timer_busy_wait_until+0x4>
20001aee:	e000      	b.n	20001af2 <timer_busy_wait_until+0xe>
20001af0:	6a41      	ldr	r1, [r0, #36]	@ 0x24
20001af2:	4299      	cmp	r1, r3
20001af4:	d102      	bne.n	20001afc <timer_busy_wait_until+0x18>
20001af6:	6a81      	ldr	r1, [r0, #40]	@ 0x28
20001af8:	4291      	cmp	r1, r2
20001afa:	d3f9      	bcc.n	20001af0 <timer_busy_wait_until+0xc>
20001afc:	4770      	bx	lr
	...

20001b00 <time_us_64>:
20001b00:	b510      	push	{r4, lr}
20001b02:	4802      	ldr	r0, [pc, #8]	@ (20001b0c <time_us_64+0xc>)
20001b04:	f7ff ffe6 	bl	20001ad4 <timer_time_us_64>
20001b08:	bd10      	pop	{r4, pc}
20001b0a:	46c0      	nop			@ (mov r8, r8)
20001b0c:	40054000 	.word	0x40054000

20001b10 <busy_wait_until>:
20001b10:	b510      	push	{r4, lr}
20001b12:	0002      	movs	r2, r0
20001b14:	000b      	movs	r3, r1
20001b16:	4802      	ldr	r0, [pc, #8]	@ (20001b20 <busy_wait_until+0x10>)
20001b18:	f7ff ffe4 	bl	20001ae4 <timer_busy_wait_until>
20001b1c:	bd10      	pop	{r4, pc}
20001b1e:	46c0      	nop			@ (mov r8, r8)
20001b20:	40054000 	.word	0x40054000

20001b24 <clock_configure_internal>:
20001b24:	b5f8      	push	{r3, r4, r5, r6, r7, lr}
20001b26:	46ce      	mov	lr, r9
20001b28:	4647      	mov	r7, r8
20001b2a:	b580      	push	{r7, lr}
20001b2c:	0005      	movs	r5, r0
20001b2e:	000e      	movs	r6, r1
20001b30:	4690      	mov	r8, r2
20001b32:	4699      	mov	r9, r3
20001b34:	0044      	lsls	r4, r0, #1
20001b36:	1824      	adds	r4, r4, r0
20001b38:	00a4      	lsls	r4, r4, #2
20001b3a:	4b28      	ldr	r3, [pc, #160]	@ (20001bdc <clock_configure_internal+0xb8>)
20001b3c:	469c      	mov	ip, r3
20001b3e:	4464      	add	r4, ip
20001b40:	6863      	ldr	r3, [r4, #4]
20001b42:	9a08      	ldr	r2, [sp, #32]
20001b44:	4293      	cmp	r3, r2
20001b46:	d200      	bcs.n	20001b4a <clock_configure_internal+0x26>
20001b48:	6062      	str	r2, [r4, #4]
20001b4a:	1f2f      	subs	r7, r5, #4
20001b4c:	b2ff      	uxtb	r7, r7
20001b4e:	2f01      	cmp	r7, #1
20001b50:	d92e      	bls.n	20001bb0 <clock_configure_internal+0x8c>
20001b52:	2280      	movs	r2, #128	@ 0x80
20001b54:	0112      	lsls	r2, r2, #4
20001b56:	23c0      	movs	r3, #192	@ 0xc0
20001b58:	019b      	lsls	r3, r3, #6
20001b5a:	18e3      	adds	r3, r4, r3
20001b5c:	601a      	str	r2, [r3, #0]
20001b5e:	4b20      	ldr	r3, [pc, #128]	@ (20001be0 <clock_configure_internal+0xbc>)
20001b60:	00aa      	lsls	r2, r5, #2
20001b62:	58d1      	ldr	r1, [r2, r3]
20001b64:	2900      	cmp	r1, #0
20001b66:	d007      	beq.n	20001b78 <clock_configure_internal+0x54>
20001b68:	6958      	ldr	r0, [r3, #20]
20001b6a:	f000 fab9 	bl	200020e0 <__wrap___aeabi_uidiv>
20001b6e:	3001      	adds	r0, #1
20001b70:	0043      	lsls	r3, r0, #1
20001b72:	181b      	adds	r3, r3, r0
20001b74:	3b03      	subs	r3, #3
20001b76:	d2fd      	bcs.n	20001b74 <clock_configure_internal+0x50>
20001b78:	4643      	mov	r3, r8
20001b7a:	015b      	lsls	r3, r3, #5
20001b7c:	6822      	ldr	r2, [r4, #0]
20001b7e:	4053      	eors	r3, r2
20001b80:	22e0      	movs	r2, #224	@ 0xe0
20001b82:	4013      	ands	r3, r2
20001b84:	2280      	movs	r2, #128	@ 0x80
20001b86:	0152      	lsls	r2, r2, #5
20001b88:	18a2      	adds	r2, r4, r2
20001b8a:	6013      	str	r3, [r2, #0]
20001b8c:	2f01      	cmp	r7, #1
20001b8e:	d91a      	bls.n	20001bc6 <clock_configure_internal+0xa2>
20001b90:	2380      	movs	r3, #128	@ 0x80
20001b92:	019b      	lsls	r3, r3, #6
20001b94:	18e3      	adds	r3, r4, r3
20001b96:	2280      	movs	r2, #128	@ 0x80
20001b98:	0112      	lsls	r2, r2, #4
20001b9a:	601a      	str	r2, [r3, #0]
20001b9c:	9b08      	ldr	r3, [sp, #32]
20001b9e:	6063      	str	r3, [r4, #4]
20001ba0:	4b0f      	ldr	r3, [pc, #60]	@ (20001be0 <clock_configure_internal+0xbc>)
20001ba2:	00ad      	lsls	r5, r5, #2
20001ba4:	464a      	mov	r2, r9
20001ba6:	50ea      	str	r2, [r5, r3]
20001ba8:	bcc0      	pop	{r6, r7}
20001baa:	46b9      	mov	r9, r7
20001bac:	46b0      	mov	r8, r6
20001bae:	bdf8      	pop	{r3, r4, r5, r6, r7, pc}
20001bb0:	2e01      	cmp	r6, #1
20001bb2:	d1ce      	bne.n	20001b52 <clock_configure_internal+0x2e>
20001bb4:	2203      	movs	r2, #3
20001bb6:	23c0      	movs	r3, #192	@ 0xc0
20001bb8:	019b      	lsls	r3, r3, #6
20001bba:	18e3      	adds	r3, r4, r3
20001bbc:	601a      	str	r2, [r3, #0]
20001bbe:	68a3      	ldr	r3, [r4, #8]
20001bc0:	07db      	lsls	r3, r3, #31
20001bc2:	d5fc      	bpl.n	20001bbe <clock_configure_internal+0x9a>
20001bc4:	e7d8      	b.n	20001b78 <clock_configure_internal+0x54>
20001bc6:	6821      	ldr	r1, [r4, #0]
20001bc8:	4071      	eors	r1, r6
20001bca:	2303      	movs	r3, #3
20001bcc:	400b      	ands	r3, r1
20001bce:	6013      	str	r3, [r2, #0]
20001bd0:	68a3      	ldr	r3, [r4, #8]
20001bd2:	2201      	movs	r2, #1
20001bd4:	40b2      	lsls	r2, r6
20001bd6:	421a      	tst	r2, r3
20001bd8:	d0fa      	beq.n	20001bd0 <clock_configure_internal+0xac>
20001bda:	e7d9      	b.n	20001b90 <clock_configure_internal+0x6c>
20001bdc:	40008000 	.word	0x40008000
20001be0:	20008670 	.word	0x20008670

20001be4 <clock_configure_int_divider>:
20001be4:	b570      	push	{r4, r5, r6, lr}
20001be6:	b082      	sub	sp, #8
20001be8:	0006      	movs	r6, r0
20001bea:	000d      	movs	r5, r1
20001bec:	0014      	movs	r4, r2
20001bee:	0018      	movs	r0, r3
20001bf0:	9906      	ldr	r1, [sp, #24]
20001bf2:	f000 fa75 	bl	200020e0 <__wrap___aeabi_uidiv>
20001bf6:	0003      	movs	r3, r0
20001bf8:	9a06      	ldr	r2, [sp, #24]
20001bfa:	0211      	lsls	r1, r2, #8
20001bfc:	9100      	str	r1, [sp, #0]
20001bfe:	0022      	movs	r2, r4
20001c00:	0029      	movs	r1, r5
20001c02:	0030      	movs	r0, r6
20001c04:	f7ff ff8e 	bl	20001b24 <clock_configure_internal>
20001c08:	b002      	add	sp, #8
20001c0a:	bd70      	pop	{r4, r5, r6, pc}

20001c0c <clock_configure_undivided>:
20001c0c:	b510      	push	{r4, lr}
20001c0e:	b082      	sub	sp, #8
20001c10:	2480      	movs	r4, #128	@ 0x80
20001c12:	0064      	lsls	r4, r4, #1
20001c14:	9400      	str	r4, [sp, #0]
20001c16:	f7ff ff85 	bl	20001b24 <clock_configure_internal>
20001c1a:	b002      	add	sp, #8
20001c1c:	bd10      	pop	{r4, pc}
	...

20001c20 <clock_get_hz>:
20001c20:	4b01      	ldr	r3, [pc, #4]	@ (20001c28 <clock_get_hz+0x8>)
20001c22:	0080      	lsls	r0, r0, #2
20001c24:	58c0      	ldr	r0, [r0, r3]
20001c26:	4770      	bx	lr
20001c28:	20008670 	.word	0x20008670

20001c2c <pll_init>:
20001c2c:	b5f0      	push	{r4, r5, r6, r7, lr}
20001c2e:	46c6      	mov	lr, r8
20001c30:	b500      	push	{lr}
20001c32:	0004      	movs	r4, r0
20001c34:	000e      	movs	r6, r1
20001c36:	0017      	movs	r7, r2
20001c38:	001d      	movs	r5, r3
20001c3a:	4837      	ldr	r0, [pc, #220]	@ (20001d18 <pll_init+0xec>)
20001c3c:	f000 fa50 	bl	200020e0 <__wrap___aeabi_uidiv>
20001c40:	4680      	mov	r8, r0
20001c42:	4b36      	ldr	r3, [pc, #216]	@ (20001d1c <pll_init+0xf0>)
20001c44:	18fa      	adds	r2, r7, r3
20001c46:	4b36      	ldr	r3, [pc, #216]	@ (20001d20 <pll_init+0xf4>)
20001c48:	429a      	cmp	r2, r3
20001c4a:	d839      	bhi.n	20001cc0 <pll_init+0x94>
20001c4c:	0001      	movs	r1, r0
20001c4e:	0038      	movs	r0, r7
20001c50:	f000 fa46 	bl	200020e0 <__wrap___aeabi_uidiv>
20001c54:	0002      	movs	r2, r0
20001c56:	3a10      	subs	r2, #16
20001c58:	2398      	movs	r3, #152	@ 0x98
20001c5a:	005b      	lsls	r3, r3, #1
20001c5c:	429a      	cmp	r2, r3
20001c5e:	d835      	bhi.n	20001ccc <pll_init+0xa0>
20001c60:	1e6b      	subs	r3, r5, #1
20001c62:	2b06      	cmp	r3, #6
20001c64:	d838      	bhi.n	20001cd8 <pll_init+0xac>
20001c66:	9b06      	ldr	r3, [sp, #24]
20001c68:	3b01      	subs	r3, #1
20001c6a:	2b06      	cmp	r3, #6
20001c6c:	d834      	bhi.n	20001cd8 <pll_init+0xac>
20001c6e:	093f      	lsrs	r7, r7, #4
20001c70:	4547      	cmp	r7, r8
20001c72:	d337      	bcc.n	20001ce4 <pll_init+0xb8>
20001c74:	042d      	lsls	r5, r5, #16
20001c76:	9b06      	ldr	r3, [sp, #24]
20001c78:	031b      	lsls	r3, r3, #12
20001c7a:	431d      	orrs	r5, r3
20001c7c:	6823      	ldr	r3, [r4, #0]
20001c7e:	2b00      	cmp	r3, #0
20001c80:	db36      	blt.n	20001cf0 <pll_init+0xc4>
20001c82:	4b28      	ldr	r3, [pc, #160]	@ (20001d24 <pll_init+0xf8>)
20001c84:	429c      	cmp	r4, r3
20001c86:	d044      	beq.n	20001d12 <pll_init+0xe6>
20001c88:	220c      	movs	r2, #12
20001c8a:	2301      	movs	r3, #1
20001c8c:	4093      	lsls	r3, r2
20001c8e:	4a26      	ldr	r2, [pc, #152]	@ (20001d28 <pll_init+0xfc>)
20001c90:	6013      	str	r3, [r2, #0]
20001c92:	4a26      	ldr	r2, [pc, #152]	@ (20001d2c <pll_init+0x100>)
20001c94:	6013      	str	r3, [r2, #0]
20001c96:	4a26      	ldr	r2, [pc, #152]	@ (20001d30 <pll_init+0x104>)
20001c98:	6812      	ldr	r2, [r2, #0]
20001c9a:	0019      	movs	r1, r3
20001c9c:	4391      	bics	r1, r2
20001c9e:	1e0a      	subs	r2, r1, #0
20001ca0:	d1f9      	bne.n	20001c96 <pll_init+0x6a>
20001ca2:	6026      	str	r6, [r4, #0]
20001ca4:	60a0      	str	r0, [r4, #8]
20001ca6:	4b23      	ldr	r3, [pc, #140]	@ (20001d34 <pll_init+0x108>)
20001ca8:	18e3      	adds	r3, r4, r3
20001caa:	3221      	adds	r2, #33	@ 0x21
20001cac:	601a      	str	r2, [r3, #0]
20001cae:	6822      	ldr	r2, [r4, #0]
20001cb0:	2a00      	cmp	r2, #0
20001cb2:	dafc      	bge.n	20001cae <pll_init+0x82>
20001cb4:	60e5      	str	r5, [r4, #12]
20001cb6:	2208      	movs	r2, #8
20001cb8:	601a      	str	r2, [r3, #0]
20001cba:	bc80      	pop	{r7}
20001cbc:	46b8      	mov	r8, r7
20001cbe:	bdf0      	pop	{r4, r5, r6, r7, pc}
20001cc0:	4b1d      	ldr	r3, [pc, #116]	@ (20001d38 <pll_init+0x10c>)
20001cc2:	4a1e      	ldr	r2, [pc, #120]	@ (20001d3c <pll_init+0x110>)
20001cc4:	481e      	ldr	r0, [pc, #120]	@ (20001d40 <pll_init+0x114>)
20001cc6:	2111      	movs	r1, #17
20001cc8:	f002 fa06 	bl	200040d8 <__assert_func>
20001ccc:	4b1d      	ldr	r3, [pc, #116]	@ (20001d44 <pll_init+0x118>)
20001cce:	4a1b      	ldr	r2, [pc, #108]	@ (20001d3c <pll_init+0x110>)
20001cd0:	481b      	ldr	r0, [pc, #108]	@ (20001d40 <pll_init+0x114>)
20001cd2:	2119      	movs	r1, #25
20001cd4:	f002 fa00 	bl	200040d8 <__assert_func>
20001cd8:	4b1b      	ldr	r3, [pc, #108]	@ (20001d48 <pll_init+0x11c>)
20001cda:	4a18      	ldr	r2, [pc, #96]	@ (20001d3c <pll_init+0x110>)
20001cdc:	4818      	ldr	r0, [pc, #96]	@ (20001d40 <pll_init+0x114>)
20001cde:	211c      	movs	r1, #28
20001ce0:	f002 f9fa 	bl	200040d8 <__assert_func>
20001ce4:	4b19      	ldr	r3, [pc, #100]	@ (20001d4c <pll_init+0x120>)
20001ce6:	4a15      	ldr	r2, [pc, #84]	@ (20001d3c <pll_init+0x110>)
20001ce8:	4815      	ldr	r0, [pc, #84]	@ (20001d40 <pll_init+0x114>)
20001cea:	2123      	movs	r1, #35	@ 0x23
20001cec:	f002 f9f4 	bl	200040d8 <__assert_func>
20001cf0:	6822      	ldr	r2, [r4, #0]
20001cf2:	233f      	movs	r3, #63	@ 0x3f
20001cf4:	4013      	ands	r3, r2
20001cf6:	42b3      	cmp	r3, r6
20001cf8:	d1c3      	bne.n	20001c82 <pll_init+0x56>
20001cfa:	68a3      	ldr	r3, [r4, #8]
20001cfc:	051b      	lsls	r3, r3, #20
20001cfe:	0d1b      	lsrs	r3, r3, #20
20001d00:	4283      	cmp	r3, r0
20001d02:	d1be      	bne.n	20001c82 <pll_init+0x56>
20001d04:	68e3      	ldr	r3, [r4, #12]
20001d06:	22ee      	movs	r2, #238	@ 0xee
20001d08:	02d2      	lsls	r2, r2, #11
20001d0a:	4013      	ands	r3, r2
20001d0c:	42ab      	cmp	r3, r5
20001d0e:	d1b8      	bne.n	20001c82 <pll_init+0x56>
20001d10:	e7d3      	b.n	20001cba <pll_init+0x8e>
20001d12:	220d      	movs	r2, #13
20001d14:	e7b9      	b.n	20001c8a <pll_init+0x5e>
20001d16:	46c0      	nop			@ (mov r8, r8)
20001d18:	00b71b00 	.word	0x00b71b00
20001d1c:	d34be880 	.word	0xd34be880
20001d20:	32a9f880 	.word	0x32a9f880
20001d24:	4002c000 	.word	0x4002c000
20001d28:	4000e000 	.word	0x4000e000
20001d2c:	4000f000 	.word	0x4000f000
20001d30:	4000c008 	.word	0x4000c008
20001d34:	00003004 	.word	0x00003004
20001d38:	200074e4 	.word	0x200074e4
20001d3c:	20007b24 	.word	0x20007b24
20001d40:	20007534 	.word	0x20007534
20001d44:	2000757c 	.word	0x2000757c
20001d48:	20007598 	.word	0x20007598
20001d4c:	200075e4 	.word	0x200075e4

20001d50 <watchdog_update>:
20001d50:	4b02      	ldr	r3, [pc, #8]	@ (20001d5c <watchdog_update+0xc>)
20001d52:	681a      	ldr	r2, [r3, #0]
20001d54:	4b02      	ldr	r3, [pc, #8]	@ (20001d60 <watchdog_update+0x10>)
20001d56:	605a      	str	r2, [r3, #4]
20001d58:	4770      	bx	lr
20001d5a:	46c0      	nop			@ (mov r8, r8)
20001d5c:	20008acc 	.word	0x20008acc
20001d60:	40058000 	.word	0x40058000

20001d64 <_watchdog_enable>:
20001d64:	b510      	push	{r4, lr}
20001d66:	4b17      	ldr	r3, [pc, #92]	@ (20001dc4 <_watchdog_enable+0x60>)
20001d68:	2280      	movs	r2, #128	@ 0x80
20001d6a:	05d2      	lsls	r2, r2, #23
20001d6c:	601a      	str	r2, [r3, #0]
20001d6e:	4b16      	ldr	r3, [pc, #88]	@ (20001dc8 <_watchdog_enable+0x64>)
20001d70:	4a16      	ldr	r2, [pc, #88]	@ (20001dcc <_watchdog_enable+0x68>)
20001d72:	601a      	str	r2, [r3, #0]
20001d74:	2900      	cmp	r1, #0
20001d76:	d00a      	beq.n	20001d8e <_watchdog_enable+0x2a>
20001d78:	4b15      	ldr	r3, [pc, #84]	@ (20001dd0 <_watchdog_enable+0x6c>)
20001d7a:	22e0      	movs	r2, #224	@ 0xe0
20001d7c:	04d2      	lsls	r2, r2, #19
20001d7e:	601a      	str	r2, [r3, #0]
20001d80:	2800      	cmp	r0, #0
20001d82:	d109      	bne.n	20001d98 <_watchdog_enable+0x34>
20001d84:	4b12      	ldr	r3, [pc, #72]	@ (20001dd0 <_watchdog_enable+0x6c>)
20001d86:	2280      	movs	r2, #128	@ 0x80
20001d88:	0612      	lsls	r2, r2, #24
20001d8a:	601a      	str	r2, [r3, #0]
20001d8c:	bd10      	pop	{r4, pc}
20001d8e:	4b0d      	ldr	r3, [pc, #52]	@ (20001dc4 <_watchdog_enable+0x60>)
20001d90:	22e0      	movs	r2, #224	@ 0xe0
20001d92:	04d2      	lsls	r2, r2, #19
20001d94:	601a      	str	r2, [r3, #0]
20001d96:	e7f3      	b.n	20001d80 <_watchdog_enable+0x1c>
20001d98:	0143      	lsls	r3, r0, #5
20001d9a:	1a1b      	subs	r3, r3, r0
20001d9c:	009b      	lsls	r3, r3, #2
20001d9e:	1818      	adds	r0, r3, r0
20001da0:	0100      	lsls	r0, r0, #4
20001da2:	4b0c      	ldr	r3, [pc, #48]	@ (20001dd4 <_watchdog_enable+0x70>)
20001da4:	6018      	str	r0, [r3, #0]
20001da6:	2380      	movs	r3, #128	@ 0x80
20001da8:	045b      	lsls	r3, r3, #17
20001daa:	4298      	cmp	r0, r3
20001dac:	d302      	bcc.n	20001db4 <_watchdog_enable+0x50>
20001dae:	4b09      	ldr	r3, [pc, #36]	@ (20001dd4 <_watchdog_enable+0x70>)
20001db0:	4a09      	ldr	r2, [pc, #36]	@ (20001dd8 <_watchdog_enable+0x74>)
20001db2:	601a      	str	r2, [r3, #0]
20001db4:	f7ff ffcc 	bl	20001d50 <watchdog_update>
20001db8:	4b05      	ldr	r3, [pc, #20]	@ (20001dd0 <_watchdog_enable+0x6c>)
20001dba:	2280      	movs	r2, #128	@ 0x80
20001dbc:	05d2      	lsls	r2, r2, #23
20001dbe:	601a      	str	r2, [r3, #0]
20001dc0:	e7e4      	b.n	20001d8c <_watchdog_enable+0x28>
20001dc2:	46c0      	nop			@ (mov r8, r8)
20001dc4:	4005b000 	.word	0x4005b000
20001dc8:	40012008 	.word	0x40012008
20001dcc:	0001fffc 	.word	0x0001fffc
20001dd0:	4005a000 	.word	0x4005a000
20001dd4:	20008acc 	.word	0x20008acc
20001dd8:	00ffffff 	.word	0x00ffffff

20001ddc <watchdog_reboot>:
20001ddc:	b510      	push	{r4, lr}
20001dde:	0003      	movs	r3, r0
20001de0:	000c      	movs	r4, r1
20001de2:	0010      	movs	r0, r2
20001de4:	4a0b      	ldr	r2, [pc, #44]	@ (20001e14 <watchdog_reboot+0x38>)
20001de6:	2180      	movs	r1, #128	@ 0x80
20001de8:	05c9      	lsls	r1, r1, #23
20001dea:	6011      	str	r1, [r2, #0]
20001dec:	2b00      	cmp	r3, #0
20001dee:	d00d      	beq.n	20001e0c <watchdog_reboot+0x30>
20001df0:	2201      	movs	r2, #1
20001df2:	4313      	orrs	r3, r2
20001df4:	4a08      	ldr	r2, [pc, #32]	@ (20001e18 <watchdog_reboot+0x3c>)
20001df6:	4909      	ldr	r1, [pc, #36]	@ (20001e1c <watchdog_reboot+0x40>)
20001df8:	61d1      	str	r1, [r2, #28]
20001dfa:	4909      	ldr	r1, [pc, #36]	@ (20001e20 <watchdog_reboot+0x44>)
20001dfc:	4059      	eors	r1, r3
20001dfe:	6211      	str	r1, [r2, #32]
20001e00:	6254      	str	r4, [r2, #36]	@ 0x24
20001e02:	6293      	str	r3, [r2, #40]	@ 0x28
20001e04:	2100      	movs	r1, #0
20001e06:	f7ff ffad 	bl	20001d64 <_watchdog_enable>
20001e0a:	bd10      	pop	{r4, pc}
20001e0c:	4b02      	ldr	r3, [pc, #8]	@ (20001e18 <watchdog_reboot+0x3c>)
20001e0e:	2200      	movs	r2, #0
20001e10:	61da      	str	r2, [r3, #28]
20001e12:	e7f7      	b.n	20001e04 <watchdog_reboot+0x28>
20001e14:	4005b000 	.word	0x4005b000
20001e18:	40058000 	.word	0x40058000
20001e1c:	b007c0d3 	.word	0xb007c0d3
20001e20:	4ff83f2d 	.word	0x4ff83f2d

20001e24 <tick_start>:
20001e24:	2380      	movs	r3, #128	@ 0x80
20001e26:	009b      	lsls	r3, r3, #2
20001e28:	430b      	orrs	r3, r1
20001e2a:	4a01      	ldr	r2, [pc, #4]	@ (20001e30 <tick_start+0xc>)
20001e2c:	62d3      	str	r3, [r2, #44]	@ 0x2c
20001e2e:	4770      	bx	lr
20001e30:	40058000 	.word	0x40058000

20001e34 <rom_func_lookup>:
20001e34:	b510      	push	{r4, lr}
20001e36:	0001      	movs	r1, r0
20001e38:	2318      	movs	r3, #24
20001e3a:	881b      	ldrh	r3, [r3, #0]
20001e3c:	2214      	movs	r2, #20
20001e3e:	8810      	ldrh	r0, [r2, #0]
20001e40:	4798      	blx	r3
20001e42:	bd10      	pop	{r4, pc}

20001e44 <rom_data_lookup>:
20001e44:	b510      	push	{r4, lr}
20001e46:	0001      	movs	r1, r0
20001e48:	2318      	movs	r3, #24
20001e4a:	881b      	ldrh	r3, [r3, #0]
20001e4c:	2216      	movs	r2, #22
20001e4e:	8810      	ldrh	r0, [r2, #0]
20001e50:	4798      	blx	r3
20001e52:	bd10      	pop	{r4, pc}

20001e54 <rom_funcs_lookup>:
20001e54:	b5f0      	push	{r4, r5, r6, r7, lr}
20001e56:	46c6      	mov	lr, r8
20001e58:	b500      	push	{lr}
20001e5a:	0007      	movs	r7, r0
20001e5c:	000e      	movs	r6, r1
20001e5e:	2500      	movs	r5, #0
20001e60:	2301      	movs	r3, #1
20001e62:	4698      	mov	r8, r3
20001e64:	e000      	b.n	20001e68 <rom_funcs_lookup+0x14>
20001e66:	3501      	adds	r5, #1
20001e68:	42b5      	cmp	r5, r6
20001e6a:	d20a      	bcs.n	20001e82 <rom_funcs_lookup+0x2e>
20001e6c:	00ac      	lsls	r4, r5, #2
20001e6e:	193c      	adds	r4, r7, r4
20001e70:	6820      	ldr	r0, [r4, #0]
20001e72:	f7ff ffdf 	bl	20001e34 <rom_func_lookup>
20001e76:	6020      	str	r0, [r4, #0]
20001e78:	2800      	cmp	r0, #0
20001e7a:	d1f4      	bne.n	20001e66 <rom_funcs_lookup+0x12>
20001e7c:	2300      	movs	r3, #0
20001e7e:	4698      	mov	r8, r3
20001e80:	e7f1      	b.n	20001e66 <rom_funcs_lookup+0x12>
20001e82:	4640      	mov	r0, r8
20001e84:	bc80      	pop	{r7}
20001e86:	46b8      	mov	r8, r7
20001e88:	bdf0      	pop	{r4, r5, r6, r7, pc}
	...

20001e8c <rom_reset_usb_boot_extra>:
20001e8c:	b570      	push	{r4, r5, r6, lr}
20001e8e:	0004      	movs	r4, r0
20001e90:	000d      	movs	r5, r1
20001e92:	4806      	ldr	r0, [pc, #24]	@ (20001eac <rom_reset_usb_boot_extra+0x20>)
20001e94:	f7ff ffce 	bl	20001e34 <rom_func_lookup>
20001e98:	0003      	movs	r3, r0
20001e9a:	2c00      	cmp	r4, #0
20001e9c:	db03      	blt.n	20001ea6 <rom_reset_usb_boot_extra+0x1a>
20001e9e:	2001      	movs	r0, #1
20001ea0:	40a0      	lsls	r0, r4
20001ea2:	0029      	movs	r1, r5
20001ea4:	4798      	blx	r3
20001ea6:	2000      	movs	r0, #0
20001ea8:	e7fb      	b.n	20001ea2 <rom_reset_usb_boot_extra+0x16>
20001eaa:	46c0      	nop			@ (mov r8, r8)
20001eac:	00004255 	.word	0x00004255

20001eb0 <xosc_init>:
20001eb0:	4b07      	ldr	r3, [pc, #28]	@ (20001ed0 <xosc_init+0x20>)
20001eb2:	22aa      	movs	r2, #170	@ 0xaa
20001eb4:	0112      	lsls	r2, r2, #4
20001eb6:	601a      	str	r2, [r3, #0]
20001eb8:	228d      	movs	r2, #141	@ 0x8d
20001eba:	0052      	lsls	r2, r2, #1
20001ebc:	60da      	str	r2, [r3, #12]
20001ebe:	4b05      	ldr	r3, [pc, #20]	@ (20001ed4 <xosc_init+0x24>)
20001ec0:	4a05      	ldr	r2, [pc, #20]	@ (20001ed8 <xosc_init+0x28>)
20001ec2:	601a      	str	r2, [r3, #0]
20001ec4:	4b02      	ldr	r3, [pc, #8]	@ (20001ed0 <xosc_init+0x20>)
20001ec6:	685b      	ldr	r3, [r3, #4]
20001ec8:	2b00      	cmp	r3, #0
20001eca:	dafb      	bge.n	20001ec4 <xosc_init+0x14>
20001ecc:	4770      	bx	lr
20001ece:	46c0      	nop			@ (mov r8, r8)
20001ed0:	40024000 	.word	0x40024000
20001ed4:	40026000 	.word	0x40026000
20001ed8:	00fab000 	.word	0x00fab000

20001edc <runtime_run_initializers_from>:
20001edc:	b510      	push	{r4, lr}
20001ede:	0004      	movs	r4, r0
20001ee0:	e001      	b.n	20001ee6 <runtime_run_initializers_from+0xa>
20001ee2:	cc08      	ldmia	r4!, {r3}
20001ee4:	4798      	blx	r3
20001ee6:	4b02      	ldr	r3, [pc, #8]	@ (20001ef0 <runtime_run_initializers_from+0x14>)
20001ee8:	429c      	cmp	r4, r3
20001eea:	d3fa      	bcc.n	20001ee2 <runtime_run_initializers_from+0x6>
20001eec:	bd10      	pop	{r4, pc}
20001eee:	46c0      	nop			@ (mov r8, r8)
20001ef0:	20007f38 	.word	0x20007f38

20001ef4 <first_per_core_initializer>:
20001ef4:	4770      	bx	lr
	...

20001ef8 <runtime_run_initializers>:
20001ef8:	b510      	push	{r4, lr}
20001efa:	4802      	ldr	r0, [pc, #8]	@ (20001f04 <runtime_run_initializers+0xc>)
20001efc:	f7ff ffee 	bl	20001edc <runtime_run_initializers_from>
20001f00:	bd10      	pop	{r4, pc}
20001f02:	46c0      	nop			@ (mov r8, r8)
20001f04:	20007f00 	.word	0x20007f00

20001f08 <runtime_init_early_resets>:
20001f08:	4b05      	ldr	r3, [pc, #20]	@ (20001f20 <runtime_init_early_resets+0x18>)
20001f0a:	4a06      	ldr	r2, [pc, #24]	@ (20001f24 <runtime_init_early_resets+0x1c>)
20001f0c:	601a      	str	r2, [r3, #0]
20001f0e:	4b06      	ldr	r3, [pc, #24]	@ (20001f28 <runtime_init_early_resets+0x20>)
20001f10:	4a06      	ldr	r2, [pc, #24]	@ (20001f2c <runtime_init_early_resets+0x24>)
20001f12:	601a      	str	r2, [r3, #0]
20001f14:	4b06      	ldr	r3, [pc, #24]	@ (20001f30 <runtime_init_early_resets+0x28>)
20001f16:	681a      	ldr	r2, [r3, #0]
20001f18:	4b04      	ldr	r3, [pc, #16]	@ (20001f2c <runtime_init_early_resets+0x24>)
20001f1a:	4393      	bics	r3, r2
20001f1c:	d1fa      	bne.n	20001f14 <runtime_init_early_resets+0xc>
20001f1e:	4770      	bx	lr
20001f20:	4000e000 	.word	0x4000e000
20001f24:	fefbcdbf 	.word	0xfefbcdbf
20001f28:	4000f000 	.word	0x4000f000
20001f2c:	003c7ffe 	.word	0x003c7ffe
20001f30:	4000c008 	.word	0x4000c008

20001f34 <runtime_init_usb_power_down>:
20001f34:	4b04      	ldr	r3, [pc, #16]	@ (20001f48 <runtime_init_usb_power_down+0x14>)
20001f36:	6cdb      	ldr	r3, [r3, #76]	@ 0x4c
20001f38:	2b00      	cmp	r3, #0
20001f3a:	d103      	bne.n	20001f44 <runtime_init_usb_power_down+0x10>
20001f3c:	4b03      	ldr	r3, [pc, #12]	@ (20001f4c <runtime_init_usb_power_down+0x18>)
20001f3e:	2280      	movs	r2, #128	@ 0x80
20001f40:	02d2      	lsls	r2, r2, #11
20001f42:	601a      	str	r2, [r3, #0]
20001f44:	4770      	bx	lr
20001f46:	46c0      	nop			@ (mov r8, r8)
20001f48:	50110000 	.word	0x50110000
20001f4c:	5011204c 	.word	0x5011204c

20001f50 <runtime_init_post_clock_resets>:
20001f50:	4b04      	ldr	r3, [pc, #16]	@ (20001f64 <runtime_init_post_clock_resets+0x14>)
20001f52:	4a05      	ldr	r2, [pc, #20]	@ (20001f68 <runtime_init_post_clock_resets+0x18>)
20001f54:	601a      	str	r2, [r3, #0]
20001f56:	4b05      	ldr	r3, [pc, #20]	@ (20001f6c <runtime_init_post_clock_resets+0x1c>)
20001f58:	681b      	ldr	r3, [r3, #0]
20001f5a:	43db      	mvns	r3, r3
20001f5c:	01db      	lsls	r3, r3, #7
20001f5e:	d1fa      	bne.n	20001f56 <runtime_init_post_clock_resets+0x6>
20001f60:	4770      	bx	lr
20001f62:	46c0      	nop			@ (mov r8, r8)
20001f64:	4000f000 	.word	0x4000f000
20001f68:	01ffffff 	.word	0x01ffffff
20001f6c:	4000c008 	.word	0x4000c008

20001f70 <runtime_init_rp2040_gpio_ie_disable>:
20001f70:	4b03      	ldr	r3, [pc, #12]	@ (20001f80 <runtime_init_rp2040_gpio_ie_disable+0x10>)
20001f72:	2240      	movs	r2, #64	@ 0x40
20001f74:	679a      	str	r2, [r3, #120]	@ 0x78
20001f76:	675a      	str	r2, [r3, #116]	@ 0x74
20001f78:	671a      	str	r2, [r3, #112]	@ 0x70
20001f7a:	66da      	str	r2, [r3, #108]	@ 0x6c
20001f7c:	4770      	bx	lr
20001f7e:	46c0      	nop			@ (mov r8, r8)
20001f80:	4001f000 	.word	0x4001f000

20001f84 <runtime_init_spin_locks_reset>:
20001f84:	b510      	push	{r4, lr}
20001f86:	f7fe fec1 	bl	20000d0c <spin_locks_reset>
20001f8a:	bd10      	pop	{r4, pc}

20001f8c <start_all_ticks>:
20001f8c:	b570      	push	{r4, r5, r6, lr}
20001f8e:	2004      	movs	r0, #4
20001f90:	f7ff fe46 	bl	20001c20 <clock_get_hz>
20001f94:	4906      	ldr	r1, [pc, #24]	@ (20001fb0 <start_all_ticks+0x24>)
20001f96:	f000 f8a3 	bl	200020e0 <__wrap___aeabi_uidiv>
20001f9a:	0005      	movs	r5, r0
20001f9c:	2400      	movs	r4, #0
20001f9e:	2c00      	cmp	r4, #0
20001fa0:	dd00      	ble.n	20001fa4 <start_all_ticks+0x18>
20001fa2:	bd70      	pop	{r4, r5, r6, pc}
20001fa4:	b2e0      	uxtb	r0, r4
20001fa6:	0029      	movs	r1, r5
20001fa8:	f7ff ff3c 	bl	20001e24 <tick_start>
20001fac:	3401      	adds	r4, #1
20001fae:	e7f6      	b.n	20001f9e <start_all_ticks+0x12>
20001fb0:	000f4240 	.word	0x000f4240

20001fb4 <runtime_init_clocks>:
20001fb4:	b530      	push	{r4, r5, lr}
20001fb6:	b083      	sub	sp, #12
20001fb8:	4b27      	ldr	r3, [pc, #156]	@ (20002058 <runtime_init_clocks+0xa4>)
20001fba:	2200      	movs	r2, #0
20001fbc:	679a      	str	r2, [r3, #120]	@ 0x78
20001fbe:	f7ff ff77 	bl	20001eb0 <xosc_init>
20001fc2:	4b26      	ldr	r3, [pc, #152]	@ (2000205c <runtime_init_clocks+0xa8>)
20001fc4:	2201      	movs	r2, #1
20001fc6:	601a      	str	r2, [r3, #0]
20001fc8:	4b23      	ldr	r3, [pc, #140]	@ (20002058 <runtime_init_clocks+0xa4>)
20001fca:	6c5b      	ldr	r3, [r3, #68]	@ 0x44
20001fcc:	2b01      	cmp	r3, #1
20001fce:	d1fb      	bne.n	20001fc8 <runtime_init_clocks+0x14>
20001fd0:	4b23      	ldr	r3, [pc, #140]	@ (20002060 <runtime_init_clocks+0xac>)
20001fd2:	2203      	movs	r2, #3
20001fd4:	601a      	str	r2, [r3, #0]
20001fd6:	4b20      	ldr	r3, [pc, #128]	@ (20002058 <runtime_init_clocks+0xa4>)
20001fd8:	6b9b      	ldr	r3, [r3, #56]	@ 0x38
20001fda:	2b01      	cmp	r3, #1
20001fdc:	d1fb      	bne.n	20001fd6 <runtime_init_clocks+0x22>
20001fde:	3301      	adds	r3, #1
20001fe0:	9300      	str	r3, [sp, #0]
20001fe2:	3304      	adds	r3, #4
20001fe4:	4a1f      	ldr	r2, [pc, #124]	@ (20002064 <runtime_init_clocks+0xb0>)
20001fe6:	2101      	movs	r1, #1
20001fe8:	481f      	ldr	r0, [pc, #124]	@ (20002068 <runtime_init_clocks+0xb4>)
20001fea:	f7ff fe1f 	bl	20001c2c <pll_init>
20001fee:	2305      	movs	r3, #5
20001ff0:	9300      	str	r3, [sp, #0]
20001ff2:	4a1e      	ldr	r2, [pc, #120]	@ (2000206c <runtime_init_clocks+0xb8>)
20001ff4:	2101      	movs	r1, #1
20001ff6:	481e      	ldr	r0, [pc, #120]	@ (20002070 <runtime_init_clocks+0xbc>)
20001ff8:	f7ff fe18 	bl	20001c2c <pll_init>
20001ffc:	4b1d      	ldr	r3, [pc, #116]	@ (20002074 <runtime_init_clocks+0xc0>)
20001ffe:	2200      	movs	r2, #0
20002000:	2102      	movs	r1, #2
20002002:	2004      	movs	r0, #4
20002004:	f7ff fe02 	bl	20001c0c <clock_configure_undivided>
20002008:	4d1b      	ldr	r5, [pc, #108]	@ (20002078 <runtime_init_clocks+0xc4>)
2000200a:	002b      	movs	r3, r5
2000200c:	2200      	movs	r2, #0
2000200e:	2101      	movs	r1, #1
20002010:	2005      	movs	r0, #5
20002012:	f7ff fdfb 	bl	20001c0c <clock_configure_undivided>
20002016:	4c19      	ldr	r4, [pc, #100]	@ (2000207c <runtime_init_clocks+0xc8>)
20002018:	0023      	movs	r3, r4
2000201a:	2200      	movs	r2, #0
2000201c:	2100      	movs	r1, #0
2000201e:	2007      	movs	r0, #7
20002020:	f7ff fdf4 	bl	20001c0c <clock_configure_undivided>
20002024:	0023      	movs	r3, r4
20002026:	2200      	movs	r2, #0
20002028:	2100      	movs	r1, #0
2000202a:	2008      	movs	r0, #8
2000202c:	f7ff fdee 	bl	20001c0c <clock_configure_undivided>
20002030:	2380      	movs	r3, #128	@ 0x80
20002032:	00db      	lsls	r3, r3, #3
20002034:	9300      	str	r3, [sp, #0]
20002036:	0023      	movs	r3, r4
20002038:	2200      	movs	r2, #0
2000203a:	2100      	movs	r1, #0
2000203c:	2009      	movs	r0, #9
2000203e:	f7ff fdd1 	bl	20001be4 <clock_configure_int_divider>
20002042:	002b      	movs	r3, r5
20002044:	2200      	movs	r2, #0
20002046:	2100      	movs	r1, #0
20002048:	2006      	movs	r0, #6
2000204a:	f7ff fddf 	bl	20001c0c <clock_configure_undivided>
2000204e:	f7ff ff9d 	bl	20001f8c <start_all_ticks>
20002052:	b003      	add	sp, #12
20002054:	bd30      	pop	{r4, r5, pc}
20002056:	46c0      	nop			@ (mov r8, r8)
20002058:	40008000 	.word	0x40008000
2000205c:	4000b03c 	.word	0x4000b03c
20002060:	4000b030 	.word	0x4000b030
20002064:	59682f00 	.word	0x59682f00
20002068:	40028000 	.word	0x40028000
2000206c:	47868c00 	.word	0x47868c00
20002070:	4002c000 	.word	0x4002c000
20002074:	00b71b00 	.word	0x00b71b00
20002078:	07735940 	.word	0x07735940
2000207c:	02dc6c00 	.word	0x02dc6c00

20002080 <__aeabi_bits_init>:
20002080:	4801      	ldr	r0, [pc, #4]	@ (20002088 <__aeabi_bits_init+0x8>)
20002082:	2104      	movs	r1, #4
20002084:	4b01      	ldr	r3, [pc, #4]	@ (2000208c <__aeabi_bits_init+0xc>)
20002086:	4718      	bx	r3
20002088:	20007ea0 	.word	0x20007ea0
2000208c:	20001e55 	.word	0x20001e55

20002090 <__wrap___aeabi_idiv>:
20002090:	4a12      	ldr	r2, [pc, #72]	@ (200020dc <divmod_s32s32_savestate+0x18>)
20002092:	6f93      	ldr	r3, [r2, #120]	@ 0x78
20002094:	089b      	lsrs	r3, r3, #2
20002096:	d215      	bcs.n	200020c4 <divmod_s32s32_savestate>

20002098 <divmod_s32s32_unsafe>:
20002098:	6690      	str	r0, [r2, #104]	@ 0x68
2000209a:	66d1      	str	r1, [r2, #108]	@ 0x6c
2000209c:	2900      	cmp	r1, #0
2000209e:	d005      	beq.n	200020ac <divmod_s32s32_unsafe+0x14>
200020a0:	e7ff      	b.n	200020a2 <divmod_s32s32_unsafe+0xa>
200020a2:	e7ff      	b.n	200020a4 <divmod_s32s32_unsafe+0xc>
200020a4:	e7ff      	b.n	200020a6 <divmod_s32s32_unsafe+0xe>
200020a6:	6f51      	ldr	r1, [r2, #116]	@ 0x74
200020a8:	6f10      	ldr	r0, [r2, #112]	@ 0x70
200020aa:	4770      	bx	lr
200020ac:	b504      	push	{r2, lr}
200020ae:	2180      	movs	r1, #128	@ 0x80
200020b0:	0609      	lsls	r1, r1, #24
200020b2:	17c2      	asrs	r2, r0, #31
200020b4:	4051      	eors	r1, r2
200020b6:	2800      	cmp	r0, #0
200020b8:	d000      	beq.n	200020bc <divmod_s32s32_unsafe+0x24>
200020ba:	43c8      	mvns	r0, r1
200020bc:	f004 ff9a 	bl	20006ff4 <__aeabi_idiv0>
200020c0:	2100      	movs	r1, #0
200020c2:	bd04      	pop	{r2, pc}

200020c4 <divmod_s32s32_savestate>:
200020c4:	b5f0      	push	{r4, r5, r6, r7, lr}
200020c6:	6e14      	ldr	r4, [r2, #96]	@ 0x60
200020c8:	6e55      	ldr	r5, [r2, #100]	@ 0x64
200020ca:	6f57      	ldr	r7, [r2, #116]	@ 0x74
200020cc:	6f16      	ldr	r6, [r2, #112]	@ 0x70
200020ce:	f7ff ffe3 	bl	20002098 <divmod_s32s32_unsafe>
200020d2:	6614      	str	r4, [r2, #96]	@ 0x60
200020d4:	6655      	str	r5, [r2, #100]	@ 0x64
200020d6:	6757      	str	r7, [r2, #116]	@ 0x74
200020d8:	6716      	str	r6, [r2, #112]	@ 0x70
200020da:	bdf0      	pop	{r4, r5, r6, r7, pc}
200020dc:	d0000000 	.word	0xd0000000

200020e0 <__wrap___aeabi_uidiv>:
200020e0:	4a11      	ldr	r2, [pc, #68]	@ (20002128 <divmod_u32u32_savestate+0x18>)
200020e2:	6f93      	ldr	r3, [r2, #120]	@ 0x78
200020e4:	089b      	lsrs	r3, r3, #2
200020e6:	d213      	bcs.n	20002110 <divmod_u32u32_savestate>

200020e8 <divmod_u32u32_unsafe>:
200020e8:	6610      	str	r0, [r2, #96]	@ 0x60
200020ea:	6651      	str	r1, [r2, #100]	@ 0x64
200020ec:	2900      	cmp	r1, #0
200020ee:	d005      	beq.n	200020fc <divmod_u32u32_unsafe+0x14>
200020f0:	e7ff      	b.n	200020f2 <divmod_u32u32_unsafe+0xa>
200020f2:	e7ff      	b.n	200020f4 <divmod_u32u32_unsafe+0xc>
200020f4:	e7ff      	b.n	200020f6 <divmod_u32u32_unsafe+0xe>
200020f6:	6f51      	ldr	r1, [r2, #116]	@ 0x74
200020f8:	6f10      	ldr	r0, [r2, #112]	@ 0x70
200020fa:	4770      	bx	lr
200020fc:	b504      	push	{r2, lr}
200020fe:	2800      	cmp	r0, #0
20002100:	d001      	beq.n	20002106 <divmod_u32u32_unsafe+0x1e>
20002102:	2000      	movs	r0, #0
20002104:	43c0      	mvns	r0, r0
20002106:	f004 ff75 	bl	20006ff4 <__aeabi_idiv0>
2000210a:	2100      	movs	r1, #0
2000210c:	bd04      	pop	{r2, pc}
2000210e:	46c0      	nop			@ (mov r8, r8)

20002110 <divmod_u32u32_savestate>:
20002110:	b5f0      	push	{r4, r5, r6, r7, lr}
20002112:	6e14      	ldr	r4, [r2, #96]	@ 0x60
20002114:	6e55      	ldr	r5, [r2, #100]	@ 0x64
20002116:	6f57      	ldr	r7, [r2, #116]	@ 0x74
20002118:	6f16      	ldr	r6, [r2, #112]	@ 0x70
2000211a:	f7ff ffe5 	bl	200020e8 <divmod_u32u32_unsafe>
2000211e:	6614      	str	r4, [r2, #96]	@ 0x60
20002120:	6655      	str	r5, [r2, #100]	@ 0x64
20002122:	6757      	str	r7, [r2, #116]	@ 0x74
20002124:	6716      	str	r6, [r2, #112]	@ 0x70
20002126:	bdf0      	pop	{r4, r5, r6, r7, pc}
20002128:	d0000000 	.word	0xd0000000

2000212c <__wrap___aeabi_ldivmod>:
2000212c:	4694      	mov	ip, r2
2000212e:	4a4a      	ldr	r2, [pc, #296]	@ (20002258 <udiv0+0x1a>)
20002130:	6f92      	ldr	r2, [r2, #120]	@ 0x78
20002132:	0892      	lsrs	r2, r2, #2
20002134:	4662      	mov	r2, ip
20002136:	d201      	bcs.n	2000213c <divmod_s64s64_savestate>
20002138:	e028      	b.n	2000218c <divmod_s64s64_unsafe>
2000213a:	46c0      	nop			@ (mov r8, r8)

2000213c <divmod_s64s64_savestate>:
2000213c:	b5f0      	push	{r4, r5, r6, r7, lr}
2000213e:	4e46      	ldr	r6, [pc, #280]	@ (20002258 <udiv0+0x1a>)
20002140:	6e34      	ldr	r4, [r6, #96]	@ 0x60
20002142:	6e75      	ldr	r5, [r6, #100]	@ 0x64
20002144:	6f77      	ldr	r7, [r6, #116]	@ 0x74
20002146:	6f36      	ldr	r6, [r6, #112]	@ 0x70
20002148:	f000 f820 	bl	2000218c <divmod_s64s64_unsafe>
2000214c:	4694      	mov	ip, r2
2000214e:	4a42      	ldr	r2, [pc, #264]	@ (20002258 <udiv0+0x1a>)
20002150:	6614      	str	r4, [r2, #96]	@ 0x60
20002152:	6655      	str	r5, [r2, #100]	@ 0x64
20002154:	6757      	str	r7, [r2, #116]	@ 0x74
20002156:	6716      	str	r6, [r2, #112]	@ 0x70
20002158:	4662      	mov	r2, ip
2000215a:	bdf0      	pop	{r4, r5, r6, r7, pc}

2000215c <__wrap___aeabi_uldivmod>:
2000215c:	4694      	mov	ip, r2
2000215e:	4a3e      	ldr	r2, [pc, #248]	@ (20002258 <udiv0+0x1a>)
20002160:	6f92      	ldr	r2, [r2, #120]	@ 0x78
20002162:	0892      	lsrs	r2, r2, #2
20002164:	4662      	mov	r2, ip
20002166:	d201      	bcs.n	2000216c <divmod_u64u64_savestate>
20002168:	e054      	b.n	20002214 <divmod_u64u64_unsafe>
2000216a:	46c0      	nop			@ (mov r8, r8)

2000216c <divmod_u64u64_savestate>:
2000216c:	b5f0      	push	{r4, r5, r6, r7, lr}
2000216e:	4e3a      	ldr	r6, [pc, #232]	@ (20002258 <udiv0+0x1a>)
20002170:	6e34      	ldr	r4, [r6, #96]	@ 0x60
20002172:	6e75      	ldr	r5, [r6, #100]	@ 0x64
20002174:	6f77      	ldr	r7, [r6, #116]	@ 0x74
20002176:	6f36      	ldr	r6, [r6, #112]	@ 0x70
20002178:	f000 f84c 	bl	20002214 <divmod_u64u64_unsafe>
2000217c:	4694      	mov	ip, r2
2000217e:	4a36      	ldr	r2, [pc, #216]	@ (20002258 <udiv0+0x1a>)
20002180:	6614      	str	r4, [r2, #96]	@ 0x60
20002182:	6655      	str	r5, [r2, #100]	@ 0x64
20002184:	6757      	str	r7, [r2, #116]	@ 0x74
20002186:	6716      	str	r6, [r2, #112]	@ 0x70
20002188:	4662      	mov	r2, ip
2000218a:	bdf0      	pop	{r4, r5, r6, r7, pc}

2000218c <divmod_s64s64_unsafe>:
2000218c:	2b00      	cmp	r3, #0
2000218e:	db24      	blt.n	200021da <l42_1+0x26>
20002190:	d011      	beq.n	200021b6 <l42_1+0x2>
20002192:	2900      	cmp	r1, #0
20002194:	da3e      	bge.n	20002214 <divmod_u64u64_unsafe>
20002196:	b500      	push	{lr}
20002198:	43c9      	mvns	r1, r1
2000219a:	4240      	negs	r0, r0
2000219c:	d100      	bne.n	200021a0 <l40_1>
2000219e:	3101      	adds	r1, #1

200021a0 <l40_1>:
200021a0:	f000 f838 	bl	20002214 <divmod_u64u64_unsafe>
200021a4:	43c9      	mvns	r1, r1
200021a6:	4240      	negs	r0, r0
200021a8:	d100      	bne.n	200021ac <l41_1>
200021aa:	3101      	adds	r1, #1

200021ac <l41_1>:
200021ac:	43db      	mvns	r3, r3
200021ae:	4252      	negs	r2, r2
200021b0:	d100      	bne.n	200021b4 <l42_1>
200021b2:	3301      	adds	r3, #1

200021b4 <l42_1>:
200021b4:	bd00      	pop	{pc}
200021b6:	2a00      	cmp	r2, #0
200021b8:	d1eb      	bne.n	20002192 <divmod_s64s64_unsafe+0x6>
200021ba:	2800      	cmp	r0, #0
200021bc:	d101      	bne.n	200021c2 <l42_1+0xe>
200021be:	2900      	cmp	r1, #0
200021c0:	d005      	beq.n	200021ce <l42_1+0x1a>
200021c2:	2000      	movs	r0, #0
200021c4:	0fc9      	lsrs	r1, r1, #31
200021c6:	07c9      	lsls	r1, r1, #31
200021c8:	d101      	bne.n	200021ce <l42_1+0x1a>
200021ca:	43c0      	mvns	r0, r0
200021cc:	0841      	lsrs	r1, r0, #1
200021ce:	b500      	push	{lr}
200021d0:	f004 ff10 	bl	20006ff4 <__aeabi_idiv0>
200021d4:	2200      	movs	r2, #0
200021d6:	2300      	movs	r3, #0
200021d8:	bd00      	pop	{pc}
200021da:	b500      	push	{lr}
200021dc:	2900      	cmp	r1, #0
200021de:	db0a      	blt.n	200021f6 <l44_1+0x2>
200021e0:	43db      	mvns	r3, r3
200021e2:	4252      	negs	r2, r2
200021e4:	d100      	bne.n	200021e8 <l43_1>
200021e6:	3301      	adds	r3, #1

200021e8 <l43_1>:
200021e8:	f000 f814 	bl	20002214 <divmod_u64u64_unsafe>
200021ec:	43c9      	mvns	r1, r1
200021ee:	4240      	negs	r0, r0
200021f0:	d100      	bne.n	200021f4 <l44_1>
200021f2:	3101      	adds	r1, #1

200021f4 <l44_1>:
200021f4:	bd00      	pop	{pc}
200021f6:	43c9      	mvns	r1, r1
200021f8:	4240      	negs	r0, r0
200021fa:	d100      	bne.n	200021fe <l45_1>
200021fc:	3101      	adds	r1, #1

200021fe <l45_1>:
200021fe:	43db      	mvns	r3, r3
20002200:	4252      	negs	r2, r2
20002202:	d100      	bne.n	20002206 <l46_1>
20002204:	3301      	adds	r3, #1

20002206 <l46_1>:
20002206:	f000 f805 	bl	20002214 <divmod_u64u64_unsafe>
2000220a:	43db      	mvns	r3, r3
2000220c:	4252      	negs	r2, r2
2000220e:	d100      	bne.n	20002212 <l47_1>
20002210:	3301      	adds	r3, #1

20002212 <l47_1>:
20002212:	bd00      	pop	{pc}

20002214 <divmod_u64u64_unsafe>:
20002214:	2900      	cmp	r1, #0
20002216:	d123      	bne.n	20002260 <y64>
20002218:	2b00      	cmp	r3, #0
2000221a:	d118      	bne.n	2000224e <udiv0+0x10>
2000221c:	2a00      	cmp	r2, #0
2000221e:	d00c      	beq.n	2000223a <divmod_u64u64_unsafe+0x26>
20002220:	46bc      	mov	ip, r7
20002222:	4f0d      	ldr	r7, [pc, #52]	@ (20002258 <udiv0+0x1a>)
20002224:	6638      	str	r0, [r7, #96]	@ 0x60
20002226:	667a      	str	r2, [r7, #100]	@ 0x64
20002228:	2100      	movs	r1, #0
2000222a:	2300      	movs	r3, #0
2000222c:	e7ff      	b.n	2000222e <divmod_u64u64_unsafe+0x1a>
2000222e:	e7ff      	b.n	20002230 <divmod_u64u64_unsafe+0x1c>
20002230:	e7ff      	b.n	20002232 <divmod_u64u64_unsafe+0x1e>
20002232:	6f7a      	ldr	r2, [r7, #116]	@ 0x74
20002234:	6f38      	ldr	r0, [r7, #112]	@ 0x70
20002236:	4667      	mov	r7, ip
20002238:	4770      	bx	lr
2000223a:	2800      	cmp	r0, #0
2000223c:	d001      	beq.n	20002242 <udiv0+0x4>

2000223e <udiv0>:
2000223e:	4807      	ldr	r0, [pc, #28]	@ (2000225c <udiv0+0x1e>)
20002240:	0001      	movs	r1, r0
20002242:	b500      	push	{lr}
20002244:	f004 fed6 	bl	20006ff4 <__aeabi_idiv0>
20002248:	2200      	movs	r2, #0
2000224a:	2300      	movs	r3, #0
2000224c:	bd00      	pop	{pc}
2000224e:	0002      	movs	r2, r0
20002250:	000b      	movs	r3, r1
20002252:	2000      	movs	r0, #0
20002254:	2100      	movs	r1, #0
20002256:	4770      	bx	lr
20002258:	d0000000 	.word	0xd0000000
2000225c:	ffffffff 	.word	0xffffffff

20002260 <y64>:
20002260:	2b00      	cmp	r3, #0
20002262:	d000      	beq.n	20002266 <y64+0x6>
20002264:	e0bf      	b.n	200023e6 <y64_x48>
20002266:	0c13      	lsrs	r3, r2, #16
20002268:	d128      	bne.n	200022bc <y64_x32>
2000226a:	2a00      	cmp	r2, #0
2000226c:	d0e7      	beq.n	2000223e <udiv0>
2000226e:	b480      	push	{r7}
20002270:	4f11      	ldr	r7, [pc, #68]	@ (200022b8 <y64+0x58>)
20002272:	6639      	str	r1, [r7, #96]	@ 0x60
20002274:	667a      	str	r2, [r7, #100]	@ 0x64
20002276:	e7ff      	b.n	20002278 <y64+0x18>
20002278:	e7ff      	b.n	2000227a <y64+0x1a>
2000227a:	b430      	push	{r4, r5}
2000227c:	0c04      	lsrs	r4, r0, #16
2000227e:	6f7b      	ldr	r3, [r7, #116]	@ 0x74
20002280:	6f39      	ldr	r1, [r7, #112]	@ 0x70
20002282:	041b      	lsls	r3, r3, #16
20002284:	4323      	orrs	r3, r4
20002286:	663b      	str	r3, [r7, #96]	@ 0x60
20002288:	667a      	str	r2, [r7, #100]	@ 0x64
2000228a:	e7ff      	b.n	2000228c <y64+0x2c>
2000228c:	e7ff      	b.n	2000228e <y64+0x2e>
2000228e:	e7ff      	b.n	20002290 <y64+0x30>
20002290:	46c0      	nop			@ (mov r8, r8)
20002292:	b284      	uxth	r4, r0
20002294:	6f7b      	ldr	r3, [r7, #116]	@ 0x74
20002296:	6f3d      	ldr	r5, [r7, #112]	@ 0x70
20002298:	041b      	lsls	r3, r3, #16
2000229a:	4323      	orrs	r3, r4
2000229c:	663b      	str	r3, [r7, #96]	@ 0x60
2000229e:	667a      	str	r2, [r7, #100]	@ 0x64
200022a0:	e7ff      	b.n	200022a2 <y64+0x42>
200022a2:	e7ff      	b.n	200022a4 <y64+0x44>
200022a4:	46c0      	nop			@ (mov r8, r8)
200022a6:	2300      	movs	r3, #0
200022a8:	042c      	lsls	r4, r5, #16
200022aa:	0c2d      	lsrs	r5, r5, #16
200022ac:	6f7a      	ldr	r2, [r7, #116]	@ 0x74
200022ae:	6f38      	ldr	r0, [r7, #112]	@ 0x70
200022b0:	1900      	adds	r0, r0, r4
200022b2:	4169      	adcs	r1, r5
200022b4:	bcb0      	pop	{r4, r5, r7}
200022b6:	4770      	bx	lr
200022b8:	d0000000 	.word	0xd0000000

200022bc <y64_x32>:
200022bc:	b5f0      	push	{r4, r5, r6, r7, lr}
200022be:	4694      	mov	ip, r2
200022c0:	2500      	movs	r5, #0
200022c2:	0e14      	lsrs	r4, r2, #24
200022c4:	d101      	bne.n	200022ca <y64_x32+0xe>
200022c6:	0212      	lsls	r2, r2, #8
200022c8:	3508      	adds	r5, #8
200022ca:	0f14      	lsrs	r4, r2, #28
200022cc:	d101      	bne.n	200022d2 <y64_x32+0x16>
200022ce:	0112      	lsls	r2, r2, #4
200022d0:	3504      	adds	r5, #4
200022d2:	0f94      	lsrs	r4, r2, #30
200022d4:	d101      	bne.n	200022da <y64_x32+0x1e>
200022d6:	0092      	lsls	r2, r2, #2
200022d8:	3502      	adds	r5, #2
200022da:	0fd4      	lsrs	r4, r2, #31
200022dc:	d101      	bne.n	200022e2 <y64_x32+0x26>
200022de:	0052      	lsls	r2, r2, #1
200022e0:	3501      	adds	r5, #1
200022e2:	0bd4      	lsrs	r4, r2, #15
200022e4:	3401      	adds	r4, #1
200022e6:	4f25      	ldr	r7, [pc, #148]	@ (2000237c <y64_x32+0xc0>)
200022e8:	667c      	str	r4, [r7, #100]	@ 0x64
200022ea:	4c25      	ldr	r4, [pc, #148]	@ (20002380 <y64_x32+0xc4>)
200022ec:	663c      	str	r4, [r7, #96]	@ 0x60
200022ee:	0c0e      	lsrs	r6, r1, #16
200022f0:	b293      	uxth	r3, r2
200022f2:	e7ff      	b.n	200022f4 <y64_x32+0x38>
200022f4:	e7ff      	b.n	200022f6 <y64_x32+0x3a>
200022f6:	e7ff      	b.n	200022f8 <y64_x32+0x3c>
200022f8:	6f3c      	ldr	r4, [r7, #112]	@ 0x70
200022fa:	4366      	muls	r6, r4
200022fc:	0c36      	lsrs	r6, r6, #16
200022fe:	0377      	lsls	r7, r6, #13
20002300:	46be      	mov	lr, r7
20002302:	4373      	muls	r3, r6
20002304:	0bdf      	lsrs	r7, r3, #15
20002306:	045b      	lsls	r3, r3, #17
20002308:	1ac0      	subs	r0, r0, r3
2000230a:	41b9      	sbcs	r1, r7
2000230c:	0c13      	lsrs	r3, r2, #16
2000230e:	4373      	muls	r3, r6
20002310:	18db      	adds	r3, r3, r3
20002312:	1ac9      	subs	r1, r1, r3
20002314:	08ce      	lsrs	r6, r1, #3
20002316:	4366      	muls	r6, r4
20002318:	0c36      	lsrs	r6, r6, #16
2000231a:	44b6      	add	lr, r6
2000231c:	b293      	uxth	r3, r2
2000231e:	4373      	muls	r3, r6
20002320:	0f1f      	lsrs	r7, r3, #28
20002322:	011b      	lsls	r3, r3, #4
20002324:	1ac0      	subs	r0, r0, r3
20002326:	41b9      	sbcs	r1, r7
20002328:	0c13      	lsrs	r3, r2, #16
2000232a:	4373      	muls	r3, r6
2000232c:	0b1f      	lsrs	r7, r3, #12
2000232e:	051b      	lsls	r3, r3, #20
20002330:	1ac0      	subs	r0, r0, r3
20002332:	41b9      	sbcs	r1, r7
20002334:	0d86      	lsrs	r6, r0, #22
20002336:	028f      	lsls	r7, r1, #10
20002338:	433e      	orrs	r6, r7
2000233a:	4366      	muls	r6, r4
2000233c:	0c36      	lsrs	r6, r6, #16
2000233e:	2d09      	cmp	r5, #9
20002340:	db24      	blt.n	2000238c <last0>
20002342:	0a52      	lsrs	r2, r2, #9
20002344:	4372      	muls	r2, r6
20002346:	1a80      	subs	r0, r0, r2
20002348:	0377      	lsls	r7, r6, #13
2000234a:	0a46      	lsrs	r6, r0, #9
2000234c:	4366      	muls	r6, r4
2000234e:	0c36      	lsrs	r6, r6, #16
20002350:	2316      	movs	r3, #22
20002352:	1b5b      	subs	r3, r3, r5
20002354:	40de      	lsrs	r6, r3
20002356:	40df      	lsrs	r7, r3
20002358:	19bf      	adds	r7, r7, r6
2000235a:	4664      	mov	r4, ip
2000235c:	4366      	muls	r6, r4
2000235e:	1b82      	subs	r2, r0, r6
20002360:	4670      	mov	r0, lr
20002362:	3504      	adds	r5, #4
20002364:	3306      	adds	r3, #6
20002366:	0001      	movs	r1, r0
20002368:	40d9      	lsrs	r1, r3
2000236a:	40a8      	lsls	r0, r5
2000236c:	19c0      	adds	r0, r0, r7
2000236e:	d300      	bcc.n	20002372 <y64_x32+0xb6>
20002370:	3101      	adds	r1, #1
20002372:	42a2      	cmp	r2, r4
20002374:	d206      	bcs.n	20002384 <y64_x32+0xc8>
20002376:	2300      	movs	r3, #0
20002378:	bdf0      	pop	{r4, r5, r6, r7, pc}
2000237a:	0000      	.short	0x0000
2000237c:	d0000000 	.word	0xd0000000
20002380:	ffffffff 	.word	0xffffffff
20002384:	1b12      	subs	r2, r2, r4
20002386:	3001      	adds	r0, #1
20002388:	d3f3      	bcc.n	20002372 <y64_x32+0xb6>
2000238a:	e7f1      	b.n	20002370 <y64_x32+0xb4>

2000238c <last0>:
2000238c:	2709      	movs	r7, #9
2000238e:	1b7f      	subs	r7, r7, r5
20002390:	40fe      	lsrs	r6, r7
20002392:	4664      	mov	r4, ip
20002394:	b2a2      	uxth	r2, r4
20002396:	4372      	muls	r2, r6
20002398:	1a80      	subs	r0, r0, r2
2000239a:	d200      	bcs.n	2000239e <last0+0x12>
2000239c:	3901      	subs	r1, #1
2000239e:	0c22      	lsrs	r2, r4, #16
200023a0:	4372      	muls	r2, r6
200023a2:	0c13      	lsrs	r3, r2, #16
200023a4:	0412      	lsls	r2, r2, #16
200023a6:	1a82      	subs	r2, r0, r2
200023a8:	4199      	sbcs	r1, r3
200023aa:	000b      	movs	r3, r1
200023ac:	4670      	mov	r0, lr
200023ae:	3504      	adds	r5, #4
200023b0:	3713      	adds	r7, #19
200023b2:	0001      	movs	r1, r0
200023b4:	40f9      	lsrs	r1, r7
200023b6:	40a8      	lsls	r0, r5
200023b8:	1980      	adds	r0, r0, r6
200023ba:	d300      	bcc.n	200023be <last0+0x32>
200023bc:	3101      	adds	r1, #1
200023be:	2b00      	cmp	r3, #0
200023c0:	d102      	bne.n	200023c8 <last0+0x3c>
200023c2:	42a2      	cmp	r2, r4
200023c4:	d20a      	bcs.n	200023dc <last0+0x50>
200023c6:	bdf0      	pop	{r4, r5, r6, r7, pc}
200023c8:	3001      	adds	r0, #1
200023ca:	d300      	bcc.n	200023ce <last0+0x42>
200023cc:	3101      	adds	r1, #1
200023ce:	1b12      	subs	r2, r2, r4
200023d0:	d2fa      	bcs.n	200023c8 <last0+0x3c>
200023d2:	3b01      	subs	r3, #1
200023d4:	d1f8      	bne.n	200023c8 <last0+0x3c>
200023d6:	42a2      	cmp	r2, r4
200023d8:	d200      	bcs.n	200023dc <last0+0x50>
200023da:	bdf0      	pop	{r4, r5, r6, r7, pc}
200023dc:	3001      	adds	r0, #1
200023de:	d300      	bcc.n	200023e2 <last0+0x56>
200023e0:	3101      	adds	r1, #1
200023e2:	1b12      	subs	r2, r2, r4
200023e4:	e7f7      	b.n	200023d6 <last0+0x4a>

200023e6 <y64_x48>:
200023e6:	b5f0      	push	{r4, r5, r6, r7, lr}
200023e8:	0c1c      	lsrs	r4, r3, #16
200023ea:	d000      	beq.n	200023ee <y64_x48+0x8>
200023ec:	e080      	b.n	200024f0 <y64_x64>
200023ee:	b40c      	push	{r2, r3}
200023f0:	2500      	movs	r5, #0
200023f2:	0a1c      	lsrs	r4, r3, #8
200023f4:	d104      	bne.n	20002400 <y64_x48+0x1a>
200023f6:	021b      	lsls	r3, r3, #8
200023f8:	0e16      	lsrs	r6, r2, #24
200023fa:	4333      	orrs	r3, r6
200023fc:	0212      	lsls	r2, r2, #8
200023fe:	3508      	adds	r5, #8
20002400:	0b1c      	lsrs	r4, r3, #12
20002402:	d104      	bne.n	2000240e <y64_x48+0x28>
20002404:	011b      	lsls	r3, r3, #4
20002406:	0f16      	lsrs	r6, r2, #28
20002408:	4333      	orrs	r3, r6
2000240a:	0112      	lsls	r2, r2, #4
2000240c:	3504      	adds	r5, #4
2000240e:	0b9c      	lsrs	r4, r3, #14
20002410:	d104      	bne.n	2000241c <y64_x48+0x36>
20002412:	009b      	lsls	r3, r3, #2
20002414:	0f96      	lsrs	r6, r2, #30
20002416:	4333      	orrs	r3, r6
20002418:	0092      	lsls	r2, r2, #2
2000241a:	3502      	adds	r5, #2
2000241c:	0bdc      	lsrs	r4, r3, #15
2000241e:	d102      	bne.n	20002426 <y64_x48+0x40>
20002420:	1892      	adds	r2, r2, r2
20002422:	415b      	adcs	r3, r3
20002424:	3501      	adds	r5, #1
20002426:	001c      	movs	r4, r3
20002428:	1897      	adds	r7, r2, r2
2000242a:	4164      	adcs	r4, r4
2000242c:	3401      	adds	r4, #1
2000242e:	4f46      	ldr	r7, [pc, #280]	@ (20002548 <y64_x64+0x58>)
20002430:	667c      	str	r4, [r7, #100]	@ 0x64
20002432:	4c46      	ldr	r4, [pc, #280]	@ (2000254c <y64_x64+0x5c>)
20002434:	663c      	str	r4, [r7, #96]	@ 0x60
20002436:	0c0e      	lsrs	r6, r1, #16
20002438:	e7ff      	b.n	2000243a <y64_x48+0x54>
2000243a:	e7ff      	b.n	2000243c <y64_x48+0x56>
2000243c:	e7ff      	b.n	2000243e <y64_x48+0x58>
2000243e:	46c0      	nop			@ (mov r8, r8)
20002440:	6f3c      	ldr	r4, [r7, #112]	@ 0x70
20002442:	4366      	muls	r6, r4
20002444:	0c36      	lsrs	r6, r6, #16
20002446:	0377      	lsls	r7, r6, #13
20002448:	46be      	mov	lr, r7
2000244a:	b297      	uxth	r7, r2
2000244c:	4377      	muls	r7, r6
2000244e:	1bc0      	subs	r0, r0, r7
20002450:	d200      	bcs.n	20002454 <y64_x48+0x6e>
20002452:	3901      	subs	r1, #1
20002454:	1bc0      	subs	r0, r0, r7
20002456:	d200      	bcs.n	2000245a <y64_x48+0x74>
20002458:	3901      	subs	r1, #1
2000245a:	b29f      	uxth	r7, r3
2000245c:	4377      	muls	r7, r6
2000245e:	1bc9      	subs	r1, r1, r7
20002460:	1bc9      	subs	r1, r1, r7
20002462:	0c17      	lsrs	r7, r2, #16
20002464:	4377      	muls	r7, r6
20002466:	047e      	lsls	r6, r7, #17
20002468:	0bff      	lsrs	r7, r7, #15
2000246a:	1b80      	subs	r0, r0, r6
2000246c:	41b9      	sbcs	r1, r7
2000246e:	08ce      	lsrs	r6, r1, #3
20002470:	4366      	muls	r6, r4
20002472:	0c36      	lsrs	r6, r6, #16
20002474:	2d0c      	cmp	r5, #12
20002476:	db33      	blt.n	200024e0 <last1>
20002478:	44b6      	add	lr, r6
2000247a:	0b12      	lsrs	r2, r2, #12
2000247c:	051f      	lsls	r7, r3, #20
2000247e:	433a      	orrs	r2, r7
20002480:	0b1b      	lsrs	r3, r3, #12
20002482:	b297      	uxth	r7, r2
20002484:	4377      	muls	r7, r6
20002486:	1bc0      	subs	r0, r0, r7
20002488:	d200      	bcs.n	2000248c <y64_x48+0xa6>
2000248a:	3901      	subs	r1, #1
2000248c:	b29f      	uxth	r7, r3
2000248e:	4377      	muls	r7, r6
20002490:	1bc9      	subs	r1, r1, r7
20002492:	0c17      	lsrs	r7, r2, #16
20002494:	4377      	muls	r7, r6
20002496:	043e      	lsls	r6, r7, #16
20002498:	0c3f      	lsrs	r7, r7, #16
2000249a:	1b80      	subs	r0, r0, r6
2000249c:	41b9      	sbcs	r1, r7
2000249e:	0d86      	lsrs	r6, r0, #22
200024a0:	028f      	lsls	r7, r1, #10
200024a2:	433e      	orrs	r6, r7
200024a4:	4366      	muls	r6, r4
200024a6:	2729      	movs	r7, #41	@ 0x29
200024a8:	1b7f      	subs	r7, r7, r5
200024aa:	40fe      	lsrs	r6, r7
200024ac:	3d0c      	subs	r5, #12
200024ae:	4677      	mov	r7, lr
200024b0:	40af      	lsls	r7, r5
200024b2:	19bf      	adds	r7, r7, r6
200024b4:	bc30      	pop	{r4, r5}
200024b6:	b2a2      	uxth	r2, r4
200024b8:	b2ab      	uxth	r3, r5
200024ba:	4372      	muls	r2, r6
200024bc:	4373      	muls	r3, r6
200024be:	1a80      	subs	r0, r0, r2
200024c0:	4199      	sbcs	r1, r3
200024c2:	0c22      	lsrs	r2, r4, #16
200024c4:	4372      	muls	r2, r6
200024c6:	0c13      	lsrs	r3, r2, #16
200024c8:	0412      	lsls	r2, r2, #16
200024ca:	1a80      	subs	r0, r0, r2
200024cc:	4199      	sbcs	r1, r3
200024ce:	0002      	movs	r2, r0
200024d0:	000b      	movs	r3, r1
200024d2:	3701      	adds	r7, #1
200024d4:	1b00      	subs	r0, r0, r4
200024d6:	41a9      	sbcs	r1, r5
200024d8:	d2f9      	bcs.n	200024ce <y64_x48+0xe8>
200024da:	1e78      	subs	r0, r7, #1
200024dc:	2100      	movs	r1, #0
200024de:	bdf0      	pop	{r4, r5, r6, r7, pc}

200024e0 <last1>:
200024e0:	270c      	movs	r7, #12
200024e2:	1b7f      	subs	r7, r7, r5
200024e4:	40fe      	lsrs	r6, r7
200024e6:	4677      	mov	r7, lr
200024e8:	0b7f      	lsrs	r7, r7, #13
200024ea:	40af      	lsls	r7, r5
200024ec:	19ff      	adds	r7, r7, r7
200024ee:	e7e0      	b.n	200024b2 <y64_x48+0xcc>

200024f0 <y64_x64>:
200024f0:	2400      	movs	r4, #0
200024f2:	1c5d      	adds	r5, r3, #1
200024f4:	d007      	beq.n	20002506 <y64_x64+0x16>
200024f6:	4f14      	ldr	r7, [pc, #80]	@ (20002548 <y64_x64+0x58>)
200024f8:	667d      	str	r5, [r7, #100]	@ 0x64
200024fa:	6639      	str	r1, [r7, #96]	@ 0x60
200024fc:	e7ff      	b.n	200024fe <y64_x64+0xe>
200024fe:	e7ff      	b.n	20002500 <y64_x64+0x10>
20002500:	e7ff      	b.n	20002502 <y64_x64+0x12>
20002502:	e7ff      	b.n	20002504 <y64_x64+0x14>
20002504:	6f3c      	ldr	r4, [r7, #112]	@ 0x70
20002506:	b295      	uxth	r5, r2
20002508:	b29e      	uxth	r6, r3
2000250a:	4365      	muls	r5, r4
2000250c:	4366      	muls	r6, r4
2000250e:	1b40      	subs	r0, r0, r5
20002510:	41b1      	sbcs	r1, r6
20002512:	0c15      	lsrs	r5, r2, #16
20002514:	0c1e      	lsrs	r6, r3, #16
20002516:	4365      	muls	r5, r4
20002518:	4366      	muls	r6, r4
2000251a:	0436      	lsls	r6, r6, #16
2000251c:	0c2f      	lsrs	r7, r5, #16
2000251e:	433e      	orrs	r6, r7
20002520:	042d      	lsls	r5, r5, #16
20002522:	1b40      	subs	r0, r0, r5
20002524:	41b1      	sbcs	r1, r6
20002526:	4299      	cmp	r1, r3
20002528:	d204      	bcs.n	20002534 <y64_x64+0x44>
2000252a:	0002      	movs	r2, r0
2000252c:	000b      	movs	r3, r1
2000252e:	0020      	movs	r0, r4
20002530:	2100      	movs	r1, #0
20002532:	bdf0      	pop	{r4, r5, r6, r7, pc}
20002534:	d101      	bne.n	2000253a <y64_x64+0x4a>
20002536:	4290      	cmp	r0, r2
20002538:	d3f7      	bcc.n	2000252a <y64_x64+0x3a>
2000253a:	1a80      	subs	r0, r0, r2
2000253c:	4199      	sbcs	r1, r3
2000253e:	3401      	adds	r4, #1
20002540:	4299      	cmp	r1, r3
20002542:	d3f2      	bcc.n	2000252a <y64_x64+0x3a>
20002544:	e7f6      	b.n	20002534 <y64_x64+0x44>
20002546:	0000      	.short	0x0000
20002548:	d0000000 	.word	0xd0000000
2000254c:	ffffffff 	.word	0xffffffff

20002550 <__wrap___aeabi_drsub>:
20002550:	4048      	eors	r0, r1
20002552:	4041      	eors	r1, r0
20002554:	4048      	eors	r0, r1

20002556 <__wrap___aeabi_dsub>:
20002556:	b418      	push	{r3, r4}
20002558:	4b1b      	ldr	r3, [pc, #108]	@ (200025c8 <__wrap___aeabi_dmul+0x12>)
2000255a:	685b      	ldr	r3, [r3, #4]
2000255c:	46fc      	mov	ip, pc
2000255e:	9301      	str	r3, [sp, #4]
20002560:	bd08      	pop	{r3, pc}
20002562:	df04      	.short	0xdf04
20002564:	2000282b 	.word	0x2000282b

20002568 <__wrap___aeabi_dadd>:
20002568:	b418      	push	{r3, r4}
2000256a:	4b17      	ldr	r3, [pc, #92]	@ (200025c8 <__wrap___aeabi_dmul+0x12>)
2000256c:	681b      	ldr	r3, [r3, #0]
2000256e:	46fc      	mov	ip, pc
20002570:	9301      	str	r3, [sp, #4]
20002572:	bd08      	pop	{r3, pc}
20002574:	2835df00 	.word	0x2835df00
20002578:	2000      	.short	0x2000

2000257a <__wrap___aeabi_ddiv>:
2000257a:	4694      	mov	ip, r2
2000257c:	4a13      	ldr	r2, [pc, #76]	@ (200025cc <__wrap___aeabi_dmul+0x16>)
2000257e:	6f92      	ldr	r2, [r2, #120]	@ 0x78
20002580:	0892      	lsrs	r2, r2, #2
20002582:	d209      	bcs.n	20002598 <ddiv_save_state>
20002584:	4662      	mov	r2, ip

20002586 <ddiv_shim_call>:
20002586:	b418      	push	{r3, r4}
20002588:	4b0f      	ldr	r3, [pc, #60]	@ (200025c8 <__wrap___aeabi_dmul+0x12>)
2000258a:	68db      	ldr	r3, [r3, #12]
2000258c:	46fc      	mov	ip, pc
2000258e:	9301      	str	r3, [sp, #4]
20002590:	bd08      	pop	{r3, pc}
20002592:	df0c      	.short	0xdf0c
20002594:	20002aed 	.word	0x20002aed

20002598 <ddiv_save_state>:
20002598:	4a0c      	ldr	r2, [pc, #48]	@ (200025cc <__wrap___aeabi_dmul+0x16>)
2000259a:	b5f0      	push	{r4, r5, r6, r7, lr}
2000259c:	6e14      	ldr	r4, [r2, #96]	@ 0x60
2000259e:	6e55      	ldr	r5, [r2, #100]	@ 0x64
200025a0:	6f57      	ldr	r7, [r2, #116]	@ 0x74
200025a2:	6f16      	ldr	r6, [r2, #112]	@ 0x70
200025a4:	4662      	mov	r2, ip
200025a6:	f7ff ffee 	bl	20002586 <ddiv_shim_call>
200025aa:	4a08      	ldr	r2, [pc, #32]	@ (200025cc <__wrap___aeabi_dmul+0x16>)
200025ac:	6614      	str	r4, [r2, #96]	@ 0x60
200025ae:	6655      	str	r5, [r2, #100]	@ 0x64
200025b0:	6757      	str	r7, [r2, #116]	@ 0x74
200025b2:	6716      	str	r6, [r2, #112]	@ 0x70
200025b4:	bdf0      	pop	{r4, r5, r6, r7, pc}

200025b6 <__wrap___aeabi_dmul>:
200025b6:	b418      	push	{r3, r4}
200025b8:	4b03      	ldr	r3, [pc, #12]	@ (200025c8 <__wrap___aeabi_dmul+0x12>)
200025ba:	689b      	ldr	r3, [r3, #8]
200025bc:	46fc      	mov	ip, pc
200025be:	9301      	str	r3, [sp, #4]
200025c0:	bd08      	pop	{r3, pc}
200025c2:	df08      	.short	0xdf08
200025c4:	20002991 	.word	0x20002991
200025c8:	20008af4 	.word	0x20008af4
200025cc:	d0000000 	.word	0xd0000000

200025d0 <__wrap___aeabi_cdrcmple>:
200025d0:	b5ff      	push	{r0, r1, r2, r3, r4, r5, r6, r7, lr}
200025d2:	4050      	eors	r0, r2
200025d4:	4042      	eors	r2, r0
200025d6:	4050      	eors	r0, r2
200025d8:	4059      	eors	r1, r3
200025da:	404b      	eors	r3, r1
200025dc:	4059      	eors	r1, r3
200025de:	e000      	b.n	200025e2 <__aeabi_dfcmple_guts>

200025e0 <__wrap___aeabi_cdcmpeq>:
200025e0:	b5ff      	push	{r0, r1, r2, r3, r4, r5, r6, r7, lr}

200025e2 <__aeabi_dfcmple_guts>:
200025e2:	4f15      	ldr	r7, [pc, #84]	@ (20002638 <__aeabi_dfcmple_guts+0x56>)
200025e4:	004c      	lsls	r4, r1, #1
200025e6:	0d64      	lsrs	r4, r4, #21
200025e8:	d003      	beq.n	200025f2 <__aeabi_dfcmple_guts+0x10>
200025ea:	42bc      	cmp	r4, r7
200025ec:	d104      	bne.n	200025f8 <__aeabi_dfcmple_guts+0x16>
200025ee:	030c      	lsls	r4, r1, #12
200025f0:	d814      	bhi.n	2000261c <__aeabi_dfcmple_guts+0x3a>
200025f2:	2000      	movs	r0, #0
200025f4:	0d09      	lsrs	r1, r1, #20
200025f6:	0509      	lsls	r1, r1, #20
200025f8:	005c      	lsls	r4, r3, #1
200025fa:	0d64      	lsrs	r4, r4, #21
200025fc:	d003      	beq.n	20002606 <__aeabi_dfcmple_guts+0x24>
200025fe:	42bc      	cmp	r4, r7
20002600:	d104      	bne.n	2000260c <__aeabi_dfcmple_guts+0x2a>
20002602:	031c      	lsls	r4, r3, #12
20002604:	d80a      	bhi.n	2000261c <__aeabi_dfcmple_guts+0x3a>
20002606:	2200      	movs	r2, #0
20002608:	0d1b      	lsrs	r3, r3, #20
2000260a:	051b      	lsls	r3, r3, #20
2000260c:	2601      	movs	r6, #1
2000260e:	404b      	eors	r3, r1
20002610:	d409      	bmi.n	20002626 <__aeabi_dfcmple_guts+0x44>
20002612:	404b      	eors	r3, r1
20002614:	d503      	bpl.n	2000261e <__aeabi_dfcmple_guts+0x3c>
20002616:	428b      	cmp	r3, r1
20002618:	d100      	bne.n	2000261c <__aeabi_dfcmple_guts+0x3a>
2000261a:	4282      	cmp	r2, r0
2000261c:	bdff      	pop	{r0, r1, r2, r3, r4, r5, r6, r7, pc}
2000261e:	4299      	cmp	r1, r3
20002620:	d1fc      	bne.n	2000261c <__aeabi_dfcmple_guts+0x3a>
20002622:	4290      	cmp	r0, r2
20002624:	bdff      	pop	{r0, r1, r2, r3, r4, r5, r6, r7, pc}
20002626:	430b      	orrs	r3, r1
20002628:	18db      	adds	r3, r3, r3
2000262a:	4303      	orrs	r3, r0
2000262c:	4313      	orrs	r3, r2
2000262e:	d0f5      	beq.n	2000261c <__aeabi_dfcmple_guts+0x3a>
20002630:	43c9      	mvns	r1, r1
20002632:	1849      	adds	r1, r1, r1
20002634:	bdff      	pop	{r0, r1, r2, r3, r4, r5, r6, r7, pc}
20002636:	0000      	.short	0x0000
20002638:	000007ff 	.word	0x000007ff

2000263c <__wrap___aeabi_dcmplt>:
2000263c:	b500      	push	{lr}
2000263e:	f7ff ffcf 	bl	200025e0 <__wrap___aeabi_cdcmpeq>
20002642:	4180      	sbcs	r0, r0
20002644:	bd00      	pop	{pc}
20002646:	46c0      	nop			@ (mov r8, r8)

20002648 <__wrap___aeabi_dcmple>:
20002648:	b500      	push	{lr}
2000264a:	f7ff ffc9 	bl	200025e0 <__wrap___aeabi_cdcmpeq>
2000264e:	d901      	bls.n	20002654 <__wrap___aeabi_dcmple+0xc>
20002650:	2000      	movs	r0, #0
20002652:	bd00      	pop	{pc}
20002654:	2001      	movs	r0, #1
20002656:	bd00      	pop	{pc}

20002658 <__wrap___aeabi_dcmpge>:
20002658:	b500      	push	{lr}
2000265a:	f7ff ffb9 	bl	200025d0 <__wrap___aeabi_cdrcmple>
2000265e:	d901      	bls.n	20002664 <__wrap___aeabi_dcmpge+0xc>
20002660:	2000      	movs	r0, #0
20002662:	bd00      	pop	{pc}
20002664:	2001      	movs	r0, #1
20002666:	bd00      	pop	{pc}

20002668 <__wrap___aeabi_dcmpgt>:
20002668:	b500      	push	{lr}
2000266a:	f7ff ffb1 	bl	200025d0 <__wrap___aeabi_cdrcmple>
2000266e:	4180      	sbcs	r0, r0
20002670:	bd00      	pop	{pc}

20002672 <__wrap___aeabi_dcmpun>:
20002672:	2001      	movs	r0, #1
20002674:	0540      	lsls	r0, r0, #21
20002676:	004a      	lsls	r2, r1, #1
20002678:	1812      	adds	r2, r2, r0
2000267a:	d804      	bhi.n	20002686 <__wrap___aeabi_dcmpun+0x14>
2000267c:	005a      	lsls	r2, r3, #1
2000267e:	1812      	adds	r2, r2, r0
20002680:	d801      	bhi.n	20002686 <__wrap___aeabi_dcmpun+0x14>
20002682:	2000      	movs	r0, #0
20002684:	4770      	bx	lr
20002686:	2001      	movs	r0, #1
20002688:	4770      	bx	lr
	...

2000268c <__wrap___aeabi_ui2d>:
2000268c:	2100      	movs	r1, #0
2000268e:	2800      	cmp	r0, #0
20002690:	d105      	bne.n	2000269e <__wrap___aeabi_i2d+0xa>
20002692:	4770      	bx	lr

20002694 <__wrap___aeabi_i2d>:
20002694:	17c1      	asrs	r1, r0, #31
20002696:	4048      	eors	r0, r1
20002698:	1a40      	subs	r0, r0, r1
2000269a:	d0fa      	beq.n	20002692 <__wrap___aeabi_ui2d+0x6>
2000269c:	07c9      	lsls	r1, r1, #31
2000269e:	b513      	push	{r0, r1, r4, lr}
200026a0:	4b06      	ldr	r3, [pc, #24]	@ (200026bc <__wrap___aeabi_i2d+0x28>)
200026a2:	681b      	ldr	r3, [r3, #0]
200026a4:	4798      	blx	r3
200026a6:	bc0c      	pop	{r2, r3}
200026a8:	1c44      	adds	r4, r0, #1
200026aa:	40a2      	lsls	r2, r4
200026ac:	0510      	lsls	r0, r2, #20
200026ae:	0b12      	lsrs	r2, r2, #12
200026b0:	4903      	ldr	r1, [pc, #12]	@ (200026c0 <__wrap___aeabi_i2d+0x2c>)
200026b2:	1b09      	subs	r1, r1, r4
200026b4:	0509      	lsls	r1, r1, #20
200026b6:	4319      	orrs	r1, r3
200026b8:	4311      	orrs	r1, r2
200026ba:	bd10      	pop	{r4, pc}
200026bc:	20008bf4 	.word	0x20008bf4
200026c0:	0000041f 	.word	0x0000041f

200026c4 <__wrap___aeabi_d2iz>:
200026c4:	b510      	push	{r4, lr}
200026c6:	004c      	lsls	r4, r1, #1
200026c8:	0d62      	lsrs	r2, r4, #21
200026ca:	2380      	movs	r3, #128	@ 0x80
200026cc:	18d2      	adds	r2, r2, r3
200026ce:	00db      	lsls	r3, r3, #3
200026d0:	1ad2      	subs	r2, r2, r3
200026d2:	055b      	lsls	r3, r3, #21
200026d4:	2a7e      	cmp	r2, #126	@ 0x7e
200026d6:	dd10      	ble.n	200026fa <__wrap___aeabi_d2iz+0x36>
200026d8:	3a9e      	subs	r2, #158	@ 0x9e
200026da:	da13      	bge.n	20002704 <__wrap___aeabi_d2iz+0x40>
200026dc:	17cc      	asrs	r4, r1, #31
200026de:	0309      	lsls	r1, r1, #12
200026e0:	0849      	lsrs	r1, r1, #1
200026e2:	4319      	orrs	r1, r3
200026e4:	4252      	negs	r2, r2
200026e6:	40d1      	lsrs	r1, r2
200026e8:	0064      	lsls	r4, r4, #1
200026ea:	3401      	adds	r4, #1
200026ec:	3215      	adds	r2, #21
200026ee:	2a20      	cmp	r2, #32
200026f0:	da05      	bge.n	200026fe <__wrap___aeabi_d2iz+0x3a>
200026f2:	40d0      	lsrs	r0, r2
200026f4:	4308      	orrs	r0, r1
200026f6:	4360      	muls	r0, r4
200026f8:	bd10      	pop	{r4, pc}
200026fa:	2000      	movs	r0, #0
200026fc:	bd10      	pop	{r4, pc}
200026fe:	4608      	mov	r0, r1
20002700:	4360      	muls	r0, r4
20002702:	bd10      	pop	{r4, pc}
20002704:	0fc8      	lsrs	r0, r1, #31
20002706:	18c0      	adds	r0, r0, r3
20002708:	3801      	subs	r0, #1
2000270a:	bd10      	pop	{r4, pc}

2000270c <__wrap___aeabi_d2uiz>:
2000270c:	b418      	push	{r3, r4}
2000270e:	4b04      	ldr	r3, [pc, #16]	@ (20002720 <__wrap___aeabi_d2uiz+0x14>)
20002710:	6a5b      	ldr	r3, [r3, #36]	@ 0x24
20002712:	46fc      	mov	ip, pc
20002714:	9301      	str	r3, [sp, #4]
20002716:	bd08      	pop	{r3, pc}
20002718:	2c9ddf24 	.word	0x2c9ddf24
2000271c:	00002000 	.word	0x00002000
20002720:	20008af4 	.word	0x20008af4

20002724 <__aeabi_double_init>:
20002724:	b570      	push	{r4, r5, r6, lr}
20002726:	2313      	movs	r3, #19
20002728:	781c      	ldrb	r4, [r3, #0]
2000272a:	2c01      	cmp	r4, #1
2000272c:	d012      	beq.n	20002754 <__aeabi_double_init+0x30>
2000272e:	2c01      	cmp	r4, #1
20002730:	dc12      	bgt.n	20002758 <__aeabi_double_init+0x34>
20002732:	4b21      	ldr	r3, [pc, #132]	@ (200027b8 <__aeabi_double_init+0x94>)
20002734:	4a21      	ldr	r2, [pc, #132]	@ (200027bc <__aeabi_double_init+0x98>)
20002736:	6493      	str	r3, [r2, #72]	@ 0x48
20002738:	4821      	ldr	r0, [pc, #132]	@ (200027c0 <__aeabi_double_init+0x9c>)
2000273a:	f7ff fb7b 	bl	20001e34 <rom_func_lookup>
2000273e:	4b21      	ldr	r3, [pc, #132]	@ (200027c4 <__aeabi_double_init+0xa0>)
20002740:	6018      	str	r0, [r3, #0]
20002742:	bd70      	pop	{r4, r5, r6, pc}
20002744:	491c      	ldr	r1, [pc, #112]	@ (200027b8 <__aeabi_double_init+0x94>)
20002746:	4a1d      	ldr	r2, [pc, #116]	@ (200027bc <__aeabi_double_init+0x98>)
20002748:	0098      	lsls	r0, r3, #2
2000274a:	5081      	str	r1, [r0, r2]
2000274c:	3301      	adds	r3, #1
2000274e:	2b1f      	cmp	r3, #31
20002750:	d9f8      	bls.n	20002744 <__aeabi_double_init+0x20>
20002752:	e7ec      	b.n	2000272e <__aeabi_double_init+0xa>
20002754:	2300      	movs	r3, #0
20002756:	e7fa      	b.n	2000274e <__aeabi_double_init+0x2a>
20002758:	481b      	ldr	r0, [pc, #108]	@ (200027c8 <__aeabi_double_init+0xa4>)
2000275a:	f7ff fb73 	bl	20001e44 <rom_data_lookup>
2000275e:	0005      	movs	r5, r0
20002760:	481a      	ldr	r0, [pc, #104]	@ (200027cc <__aeabi_double_init+0xa8>)
20002762:	f7ff fb6f 	bl	20001e44 <rom_data_lookup>
20002766:	3802      	subs	r0, #2
20002768:	7803      	ldrb	r3, [r0, #0]
2000276a:	009b      	lsls	r3, r3, #2
2000276c:	2b7f      	cmp	r3, #127	@ 0x7f
2000276e:	dd09      	ble.n	20002784 <__aeabi_double_init+0x60>
20002770:	4812      	ldr	r0, [pc, #72]	@ (200027bc <__aeabi_double_init+0x98>)
20002772:	2280      	movs	r2, #128	@ 0x80
20002774:	0029      	movs	r1, r5
20002776:	f000 fbaf 	bl	20002ed8 <__wrap___aeabi_memcpy>
2000277a:	2c02      	cmp	r4, #2
2000277c:	d008      	beq.n	20002790 <__aeabi_double_init+0x6c>
2000277e:	2c02      	cmp	r4, #2
20002780:	dcda      	bgt.n	20002738 <__aeabi_double_init+0x14>
20002782:	e7d6      	b.n	20002732 <__aeabi_double_init+0xe>
20002784:	4b12      	ldr	r3, [pc, #72]	@ (200027d0 <__aeabi_double_init+0xac>)
20002786:	4a13      	ldr	r2, [pc, #76]	@ (200027d4 <__aeabi_double_init+0xb0>)
20002788:	4813      	ldr	r0, [pc, #76]	@ (200027d8 <__aeabi_double_init+0xb4>)
2000278a:	2133      	movs	r1, #51	@ 0x33
2000278c:	f001 fca4 	bl	200040d8 <__assert_func>
20002790:	4b12      	ldr	r3, [pc, #72]	@ (200027dc <__aeabi_double_init+0xb8>)
20002792:	881a      	ldrh	r2, [r3, #0]
20002794:	23b5      	movs	r3, #181	@ 0xb5
20002796:	021b      	lsls	r3, r3, #8
20002798:	429a      	cmp	r2, r3
2000279a:	d109      	bne.n	200027b0 <__aeabi_double_init+0x8c>
2000279c:	4b10      	ldr	r3, [pc, #64]	@ (200027e0 <__aeabi_double_init+0xbc>)
2000279e:	881a      	ldrh	r2, [r3, #0]
200027a0:	4b10      	ldr	r3, [pc, #64]	@ (200027e4 <__aeabi_double_init+0xc0>)
200027a2:	429a      	cmp	r2, r3
200027a4:	d104      	bne.n	200027b0 <__aeabi_double_init+0x8c>
200027a6:	4b10      	ldr	r3, [pc, #64]	@ (200027e8 <__aeabi_double_init+0xc4>)
200027a8:	881a      	ldrh	r2, [r3, #0]
200027aa:	4b10      	ldr	r3, [pc, #64]	@ (200027ec <__aeabi_double_init+0xc8>)
200027ac:	429a      	cmp	r2, r3
200027ae:	d0e6      	beq.n	2000277e <__aeabi_double_init+0x5a>
200027b0:	2000      	movs	r0, #0
200027b2:	f7fe fa1b 	bl	20000bec <panic>
200027b6:	46c0      	nop			@ (mov r8, r8)
200027b8:	200027f1 	.word	0x200027f1
200027bc:	20008af4 	.word	0x20008af4
200027c0:	0000334c 	.word	0x0000334c
200027c4:	20008bf4 	.word	0x20008bf4
200027c8:	00004453 	.word	0x00004453
200027cc:	00004653 	.word	0x00004653
200027d0:	20007600 	.word	0x20007600
200027d4:	20007b30 	.word	0x20007b30
200027d8:	20007644 	.word	0x20007644
200027dc:	00003854 	.word	0x00003854
200027e0:	000038d8 	.word	0x000038d8
200027e4:	00004649 	.word	0x00004649
200027e8:	0000389c 	.word	0x0000389c
200027ec:	00004659 	.word	0x00004659

200027f0 <double_table_shim_on_use_helper>:
200027f0:	b507      	push	{r0, r1, r2, lr}
200027f2:	4660      	mov	r0, ip
200027f4:	2800      	cmp	r0, #0
200027f6:	d100      	bne.n	200027fa <double_table_shim_on_use_helper+0xa>
200027f8:	be00      	bkpt	0x0000
200027fa:	8801      	ldrh	r1, [r0, #0]
200027fc:	0a0a      	lsrs	r2, r1, #8
200027fe:	3002      	adds	r0, #2
20002800:	2adf      	cmp	r2, #223	@ 0xdf
20002802:	d1fa      	bne.n	200027fa <double_table_shim_on_use_helper+0xa>
20002804:	b2c9      	uxtb	r1, r1
20002806:	0882      	lsrs	r2, r0, #2
20002808:	d304      	bcc.n	20002814 <double_table_shim_on_use_helper+0x24>
2000280a:	8802      	ldrh	r2, [r0, #0]
2000280c:	8840      	ldrh	r0, [r0, #2]
2000280e:	0400      	lsls	r0, r0, #16
20002810:	4310      	orrs	r0, r2
20002812:	e000      	b.n	20002816 <double_table_shim_on_use_helper+0x26>
20002814:	6800      	ldr	r0, [r0, #0]
20002816:	4a02      	ldr	r2, [pc, #8]	@ (20002820 <double_table_shim_on_use_helper+0x30>)
20002818:	5050      	str	r0, [r2, r1]
2000281a:	9003      	str	r0, [sp, #12]
2000281c:	bd07      	pop	{r0, r1, r2, pc}
2000281e:	0000      	.short	0x0000
20002820:	20008af4 	.word	0x20008af4

20002824 <drsub_shim>:
20002824:	b40f      	push	{r0, r1, r2, r3}
20002826:	bc03      	pop	{r0, r1}
20002828:	bc0c      	pop	{r2, r3}

2000282a <dsub_shim>:
2000282a:	b5f0      	push	{r4, r5, r6, r7, lr}
2000282c:	2401      	movs	r4, #1
2000282e:	07e4      	lsls	r4, r4, #31
20002830:	4063      	eors	r3, r4
20002832:	e000      	b.n	20002836 <da_entry>

20002834 <dadd_shim>:
20002834:	b5f0      	push	{r4, r5, r6, r7, lr}

20002836 <da_entry>:
20002836:	0d0c      	lsrs	r4, r1, #20
20002838:	0fcf      	lsrs	r7, r1, #31
2000283a:	1e66      	subs	r6, r4, #1
2000283c:	0536      	lsls	r6, r6, #20
2000283e:	1b89      	subs	r1, r1, r6
20002840:	0564      	lsls	r4, r4, #21
20002842:	d303      	bcc.n	2000284c <l8_1>
20002844:	43c9      	mvns	r1, r1
20002846:	4240      	negs	r0, r0
20002848:	d300      	bcc.n	2000284c <l8_1>
2000284a:	3101      	adds	r1, #1

2000284c <l8_1>:
2000284c:	0d64      	lsrs	r4, r4, #21
2000284e:	d003      	beq.n	20002858 <l8_2>
20002850:	1c66      	adds	r6, r4, #1
20002852:	0af6      	lsrs	r6, r6, #11
20002854:	d007      	beq.n	20002866 <l8_3>
20002856:	1be4      	subs	r4, r4, r7

20002858 <l8_2>:
20002858:	2000      	movs	r0, #0
2000285a:	007f      	lsls	r7, r7, #1
2000285c:	1c79      	adds	r1, r7, #1
2000285e:	0789      	lsls	r1, r1, #30
20002860:	1289      	asrs	r1, r1, #10
20002862:	3c80      	subs	r4, #128	@ 0x80
20002864:	0324      	lsls	r4, r4, #12

20002866 <l8_3>:
20002866:	0d1d      	lsrs	r5, r3, #20
20002868:	0fdf      	lsrs	r7, r3, #31
2000286a:	1e6e      	subs	r6, r5, #1
2000286c:	0536      	lsls	r6, r6, #20
2000286e:	1b9b      	subs	r3, r3, r6
20002870:	056d      	lsls	r5, r5, #21
20002872:	d303      	bcc.n	2000287c <l9_1>
20002874:	43db      	mvns	r3, r3
20002876:	4252      	negs	r2, r2
20002878:	d300      	bcc.n	2000287c <l9_1>
2000287a:	3301      	adds	r3, #1

2000287c <l9_1>:
2000287c:	0d6d      	lsrs	r5, r5, #21
2000287e:	d003      	beq.n	20002888 <l9_2>
20002880:	1c6e      	adds	r6, r5, #1
20002882:	0af6      	lsrs	r6, r6, #11
20002884:	d007      	beq.n	20002896 <l9_3>
20002886:	1bed      	subs	r5, r5, r7

20002888 <l9_2>:
20002888:	2200      	movs	r2, #0
2000288a:	007f      	lsls	r7, r7, #1
2000288c:	1c7b      	adds	r3, r7, #1
2000288e:	079b      	lsls	r3, r3, #30
20002890:	129b      	asrs	r3, r3, #10
20002892:	3d80      	subs	r5, #128	@ 0x80
20002894:	032d      	lsls	r5, r5, #12

20002896 <l9_3>:
20002896:	1b2f      	subs	r7, r5, r4
20002898:	1b66      	subs	r6, r4, r5
2000289a:	d458      	bmi.n	2000294e <da_ygtx>
2000289c:	46a4      	mov	ip, r4
2000289e:	2e20      	cmp	r6, #32
200028a0:	da46      	bge.n	20002930 <da_xrgty>
200028a2:	3720      	adds	r7, #32
200028a4:	0014      	movs	r4, r2
200028a6:	40bc      	lsls	r4, r7

200028a8 <da_xgty0>:
200028a8:	001d      	movs	r5, r3
200028aa:	40bd      	lsls	r5, r7
200028ac:	40f2      	lsrs	r2, r6
200028ae:	4133      	asrs	r3, r6
200028b0:	432a      	orrs	r2, r5

200028b2 <da_add>:
200028b2:	1880      	adds	r0, r0, r2
200028b4:	4159      	adcs	r1, r3

200028b6 <da_pack>:
200028b6:	0fcb      	lsrs	r3, r1, #31
200028b8:	d005      	beq.n	200028c6 <da_pack+0x10>
200028ba:	43c9      	mvns	r1, r1
200028bc:	43c0      	mvns	r0, r0
200028be:	2200      	movs	r2, #0
200028c0:	4264      	negs	r4, r4
200028c2:	4150      	adcs	r0, r2
200028c4:	4151      	adcs	r1, r2
200028c6:	4662      	mov	r2, ip
200028c8:	0d4d      	lsrs	r5, r1, #21
200028ca:	d128      	bne.n	2000291e <da_0>
200028cc:	0d0d      	lsrs	r5, r1, #20
200028ce:	d107      	bne.n	200028e0 <da_1>
200028d0:	2800      	cmp	r0, #0
200028d2:	d01f      	beq.n	20002914 <da_5>

200028d4 <da_2>:
200028d4:	1924      	adds	r4, r4, r4
200028d6:	4140      	adcs	r0, r0
200028d8:	4149      	adcs	r1, r1
200028da:	3a01      	subs	r2, #1
200028dc:	0d0d      	lsrs	r5, r1, #20
200028de:	d0f9      	beq.n	200028d4 <da_2>

200028e0 <da_1>:
200028e0:	0064      	lsls	r4, r4, #1
200028e2:	d306      	bcc.n	200028f2 <da_3>

200028e4 <da_4>:
200028e4:	3001      	adds	r0, #1
200028e6:	d300      	bcc.n	200028ea <da_4+0x6>
200028e8:	3101      	adds	r1, #1
200028ea:	2c00      	cmp	r4, #0
200028ec:	d101      	bne.n	200028f2 <da_3>
200028ee:	0840      	lsrs	r0, r0, #1
200028f0:	0040      	lsls	r0, r0, #1

200028f2 <da_3>:
200028f2:	3a01      	subs	r2, #1
200028f4:	d40b      	bmi.n	2000290e <da_6>
200028f6:	1c94      	adds	r4, r2, #2
200028f8:	0ae4      	lsrs	r4, r4, #11
200028fa:	d104      	bne.n	20002906 <da_7>
200028fc:	0512      	lsls	r2, r2, #20
200028fe:	4411      	add	r1, r2
20002900:	07db      	lsls	r3, r3, #31
20002902:	4419      	add	r1, r3
20002904:	bdf0      	pop	{r4, r5, r6, r7, pc}

20002906 <da_7>:
20002906:	07d9      	lsls	r1, r3, #31
20002908:	4b20      	ldr	r3, [pc, #128]	@ (2000298c <da_xmgty+0x4>)
2000290a:	4319      	orrs	r1, r3
2000290c:	e000      	b.n	20002910 <da_6+0x2>

2000290e <da_6>:
2000290e:	07d9      	lsls	r1, r3, #31
20002910:	2000      	movs	r0, #0
20002912:	bdf0      	pop	{r4, r5, r6, r7, pc}

20002914 <da_5>:
20002914:	2900      	cmp	r1, #0
20002916:	d1dd      	bne.n	200028d4 <da_2>
20002918:	2c00      	cmp	r4, #0
2000291a:	d1db      	bne.n	200028d4 <da_2>
2000291c:	bdf0      	pop	{r4, r5, r6, r7, pc}

2000291e <da_0>:
2000291e:	3201      	adds	r2, #1
20002920:	07c6      	lsls	r6, r0, #31
20002922:	0840      	lsrs	r0, r0, #1
20002924:	07cd      	lsls	r5, r1, #31
20002926:	4328      	orrs	r0, r5
20002928:	0849      	lsrs	r1, r1, #1
2000292a:	2e00      	cmp	r6, #0
2000292c:	d0e1      	beq.n	200028f2 <da_3>
2000292e:	e7d9      	b.n	200028e4 <da_4>

20002930 <da_xrgty>:
20002930:	2e3c      	cmp	r6, #60	@ 0x3c
20002932:	da29      	bge.n	20002988 <da_xmgty>
20002934:	3e20      	subs	r6, #32
20002936:	3740      	adds	r7, #64	@ 0x40
20002938:	0014      	movs	r4, r2
2000293a:	40bc      	lsls	r4, r7
2000293c:	d000      	beq.n	20002940 <da_xrgty+0x10>
2000293e:	2401      	movs	r4, #1
20002940:	40f2      	lsrs	r2, r6
20002942:	4314      	orrs	r4, r2
20002944:	001a      	movs	r2, r3
20002946:	40bb      	lsls	r3, r7
20002948:	431c      	orrs	r4, r3
2000294a:	17d3      	asrs	r3, r2, #31
2000294c:	e7ac      	b.n	200028a8 <da_xgty0>

2000294e <da_ygtx>:
2000294e:	46ac      	mov	ip, r5
20002950:	2f20      	cmp	r7, #32
20002952:	da08      	bge.n	20002966 <da_yrgtx>
20002954:	3620      	adds	r6, #32
20002956:	0004      	movs	r4, r0
20002958:	40b4      	lsls	r4, r6

2000295a <da_ygtx0>:
2000295a:	000d      	movs	r5, r1
2000295c:	40b5      	lsls	r5, r6
2000295e:	40f8      	lsrs	r0, r7
20002960:	4139      	asrs	r1, r7
20002962:	4328      	orrs	r0, r5
20002964:	e7a5      	b.n	200028b2 <da_add>

20002966 <da_yrgtx>:
20002966:	2f3c      	cmp	r7, #60	@ 0x3c
20002968:	da0c      	bge.n	20002984 <da_ymgtx>
2000296a:	3f20      	subs	r7, #32
2000296c:	3640      	adds	r6, #64	@ 0x40
2000296e:	0004      	movs	r4, r0
20002970:	40b4      	lsls	r4, r6
20002972:	d000      	beq.n	20002976 <da_yrgtx+0x10>
20002974:	2401      	movs	r4, #1
20002976:	40f8      	lsrs	r0, r7
20002978:	4304      	orrs	r4, r0
2000297a:	0008      	movs	r0, r1
2000297c:	40b1      	lsls	r1, r6
2000297e:	430c      	orrs	r4, r1
20002980:	17c1      	asrs	r1, r0, #31
20002982:	e7ea      	b.n	2000295a <da_ygtx0>

20002984 <da_ymgtx>:
20002984:	0010      	movs	r0, r2
20002986:	0019      	movs	r1, r3

20002988 <da_xmgty>:
20002988:	2400      	movs	r4, #0
2000298a:	e794      	b.n	200028b6 <da_pack>
2000298c:	7ff00000 	.word	0x7ff00000

20002990 <dmul_shim>:
20002990:	b5f0      	push	{r4, r5, r6, r7, lr}
20002992:	0d0c      	lsrs	r4, r1, #20
20002994:	1e66      	subs	r6, r4, #1
20002996:	0536      	lsls	r6, r6, #20
20002998:	1b89      	subs	r1, r1, r6
2000299a:	0ae6      	lsrs	r6, r4, #11
2000299c:	0564      	lsls	r4, r4, #21
2000299e:	0d64      	lsrs	r4, r4, #21
200029a0:	d002      	beq.n	200029a8 <l12_1>
200029a2:	1c65      	adds	r5, r4, #1
200029a4:	0aed      	lsrs	r5, r5, #11
200029a6:	d004      	beq.n	200029b2 <l12_2>

200029a8 <l12_1>:
200029a8:	2000      	movs	r0, #0
200029aa:	2101      	movs	r1, #1
200029ac:	0509      	lsls	r1, r1, #20
200029ae:	3c80      	subs	r4, #128	@ 0x80
200029b0:	0324      	lsls	r4, r4, #12

200029b2 <l12_2>:
200029b2:	46a4      	mov	ip, r4
200029b4:	0d1c      	lsrs	r4, r3, #20
200029b6:	1e67      	subs	r7, r4, #1
200029b8:	053f      	lsls	r7, r7, #20
200029ba:	1bdb      	subs	r3, r3, r7
200029bc:	0ae7      	lsrs	r7, r4, #11
200029be:	0564      	lsls	r4, r4, #21
200029c0:	0d64      	lsrs	r4, r4, #21
200029c2:	d002      	beq.n	200029ca <l13_1>
200029c4:	1c65      	adds	r5, r4, #1
200029c6:	0aed      	lsrs	r5, r5, #11
200029c8:	d004      	beq.n	200029d4 <l13_2>

200029ca <l13_1>:
200029ca:	2200      	movs	r2, #0
200029cc:	2301      	movs	r3, #1
200029ce:	051b      	lsls	r3, r3, #20
200029d0:	3c80      	subs	r4, #128	@ 0x80
200029d2:	0324      	lsls	r4, r4, #12

200029d4 <l13_2>:
200029d4:	4077      	eors	r7, r6
200029d6:	4464      	add	r4, ip
200029d8:	b497      	push	{r0, r1, r2, r4, r7}
200029da:	b284      	uxth	r4, r0
200029dc:	b296      	uxth	r6, r2
200029de:	4374      	muls	r4, r6
200029e0:	0c07      	lsrs	r7, r0, #16
200029e2:	437e      	muls	r6, r7
200029e4:	0c15      	lsrs	r5, r2, #16
200029e6:	436f      	muls	r7, r5
200029e8:	b280      	uxth	r0, r0
200029ea:	4368      	muls	r0, r5
200029ec:	1836      	adds	r6, r6, r0
200029ee:	d302      	bcc.n	200029f6 <l14_1>
200029f0:	2001      	movs	r0, #1
200029f2:	0400      	lsls	r0, r0, #16
200029f4:	183f      	adds	r7, r7, r0

200029f6 <l14_1>:
200029f6:	0430      	lsls	r0, r6, #16
200029f8:	0c35      	lsrs	r5, r6, #16
200029fa:	1900      	adds	r0, r0, r4
200029fc:	417d      	adcs	r5, r7
200029fe:	4684      	mov	ip, r0
20002a00:	b288      	uxth	r0, r1
20002a02:	b29a      	uxth	r2, r3
20002a04:	4350      	muls	r0, r2
20002a06:	0c0c      	lsrs	r4, r1, #16
20002a08:	4362      	muls	r2, r4
20002a0a:	0c1f      	lsrs	r7, r3, #16
20002a0c:	437c      	muls	r4, r7
20002a0e:	b28e      	uxth	r6, r1
20002a10:	437e      	muls	r6, r7
20002a12:	1992      	adds	r2, r2, r6
20002a14:	d302      	bcc.n	20002a1c <l15_1>
20002a16:	2601      	movs	r6, #1
20002a18:	0436      	lsls	r6, r6, #16
20002a1a:	19a4      	adds	r4, r4, r6

20002a1c <l15_1>:
20002a1c:	0416      	lsls	r6, r2, #16
20002a1e:	0c17      	lsrs	r7, r2, #16
20002a20:	1836      	adds	r6, r6, r0
20002a22:	4167      	adcs	r7, r4
20002a24:	bc01      	pop	{r0}
20002a26:	b281      	uxth	r1, r0
20002a28:	b29a      	uxth	r2, r3
20002a2a:	4351      	muls	r1, r2
20002a2c:	0c04      	lsrs	r4, r0, #16
20002a2e:	4362      	muls	r2, r4
20002a30:	0c1b      	lsrs	r3, r3, #16
20002a32:	435c      	muls	r4, r3
20002a34:	b280      	uxth	r0, r0
20002a36:	4358      	muls	r0, r3
20002a38:	1812      	adds	r2, r2, r0
20002a3a:	d302      	bcc.n	20002a42 <l16_1>
20002a3c:	2001      	movs	r0, #1
20002a3e:	0400      	lsls	r0, r0, #16
20002a40:	1824      	adds	r4, r4, r0

20002a42 <l16_1>:
20002a42:	0410      	lsls	r0, r2, #16
20002a44:	0c13      	lsrs	r3, r2, #16
20002a46:	1840      	adds	r0, r0, r1
20002a48:	4163      	adcs	r3, r4
20002a4a:	182d      	adds	r5, r5, r0
20002a4c:	415e      	adcs	r6, r3
20002a4e:	2000      	movs	r0, #0
20002a50:	4147      	adcs	r7, r0
20002a52:	bc06      	pop	{r1, r2}
20002a54:	b288      	uxth	r0, r1
20002a56:	b293      	uxth	r3, r2
20002a58:	4358      	muls	r0, r3
20002a5a:	0c0c      	lsrs	r4, r1, #16
20002a5c:	4363      	muls	r3, r4
20002a5e:	0c12      	lsrs	r2, r2, #16
20002a60:	4354      	muls	r4, r2
20002a62:	b289      	uxth	r1, r1
20002a64:	4351      	muls	r1, r2
20002a66:	185b      	adds	r3, r3, r1
20002a68:	d302      	bcc.n	20002a70 <l17_1>
20002a6a:	2101      	movs	r1, #1
20002a6c:	0409      	lsls	r1, r1, #16
20002a6e:	1864      	adds	r4, r4, r1

20002a70 <l17_1>:
20002a70:	0419      	lsls	r1, r3, #16
20002a72:	0c1a      	lsrs	r2, r3, #16
20002a74:	1809      	adds	r1, r1, r0
20002a76:	4162      	adcs	r2, r4
20002a78:	186d      	adds	r5, r5, r1
20002a7a:	4156      	adcs	r6, r2
20002a7c:	2000      	movs	r0, #0
20002a7e:	4147      	adcs	r7, r0
20002a80:	bc18      	pop	{r3, r4}
20002a82:	02f9      	lsls	r1, r7, #11
20002a84:	0d72      	lsrs	r2, r6, #21
20002a86:	4311      	orrs	r1, r2
20002a88:	02f0      	lsls	r0, r6, #11
20002a8a:	0d6a      	lsrs	r2, r5, #21
20002a8c:	4310      	orrs	r0, r2
20002a8e:	02ed      	lsls	r5, r5, #11
20002a90:	0d0a      	lsrs	r2, r1, #20
20002a92:	d103      	bne.n	20002a9c <l17_1+0x2c>
20002a94:	196d      	adds	r5, r5, r5
20002a96:	4140      	adcs	r0, r0
20002a98:	4149      	adcs	r1, r1
20002a9a:	3b01      	subs	r3, #1
20002a9c:	4e12      	ldr	r6, [pc, #72]	@ (20002ae8 <dm_1+0xa>)
20002a9e:	1b9b      	subs	r3, r3, r6
20002aa0:	0076      	lsls	r6, r6, #1
20002aa2:	42b3      	cmp	r3, r6
20002aa4:	d20e      	bcs.n	20002ac4 <dm_0>
20002aa6:	006d      	lsls	r5, r5, #1
20002aa8:	d307      	bcc.n	20002aba <l17_1+0x4a>
20002aaa:	3001      	adds	r0, #1
20002aac:	2600      	movs	r6, #0
20002aae:	4171      	adcs	r1, r6
20002ab0:	4666      	mov	r6, ip
20002ab2:	4335      	orrs	r5, r6
20002ab4:	d101      	bne.n	20002aba <l17_1+0x4a>
20002ab6:	0840      	lsrs	r0, r0, #1
20002ab8:	0040      	lsls	r0, r0, #1
20002aba:	051b      	lsls	r3, r3, #20
20002abc:	18c9      	adds	r1, r1, r3

20002abe <dm_2>:
20002abe:	07e4      	lsls	r4, r4, #31
20002ac0:	4421      	add	r1, r4
20002ac2:	bdf0      	pop	{r4, r5, r6, r7, pc}

20002ac4 <dm_0>:
20002ac4:	da0b      	bge.n	20002ade <dm_1>
20002ac6:	3301      	adds	r3, #1
20002ac8:	d106      	bne.n	20002ad8 <dm_0+0x14>
20002aca:	3001      	adds	r0, #1
20002acc:	d104      	bne.n	20002ad8 <dm_0+0x14>
20002ace:	3101      	adds	r1, #1
20002ad0:	0d4f      	lsrs	r7, r1, #21
20002ad2:	d001      	beq.n	20002ad8 <dm_0+0x14>
20002ad4:	0849      	lsrs	r1, r1, #1
20002ad6:	e7f2      	b.n	20002abe <dm_2>
20002ad8:	07e1      	lsls	r1, r4, #31
20002ada:	2000      	movs	r0, #0
20002adc:	bdf0      	pop	{r4, r5, r6, r7, pc}

20002ade <dm_1>:
20002ade:	3601      	adds	r6, #1
20002ae0:	0531      	lsls	r1, r6, #20
20002ae2:	2000      	movs	r0, #0
20002ae4:	e7eb      	b.n	20002abe <dm_2>
20002ae6:	0000      	.short	0x0000
20002ae8:	000003ff 	.word	0x000003ff

20002aec <ddiv_shim>:
20002aec:	b5f0      	push	{r4, r5, r6, r7, lr}

20002aee <ddiv0>:
20002aee:	0d1c      	lsrs	r4, r3, #20
20002af0:	1e67      	subs	r7, r4, #1
20002af2:	053f      	lsls	r7, r7, #20
20002af4:	1bdb      	subs	r3, r3, r7
20002af6:	0ae7      	lsrs	r7, r4, #11
20002af8:	0564      	lsls	r4, r4, #21
20002afa:	0d64      	lsrs	r4, r4, #21
20002afc:	d002      	beq.n	20002b04 <l20_1>
20002afe:	1c66      	adds	r6, r4, #1
20002b00:	0af6      	lsrs	r6, r6, #11
20002b02:	d004      	beq.n	20002b0e <l20_2>

20002b04 <l20_1>:
20002b04:	2200      	movs	r2, #0
20002b06:	2301      	movs	r3, #1
20002b08:	051b      	lsls	r3, r3, #20
20002b0a:	3c80      	subs	r4, #128	@ 0x80
20002b0c:	0324      	lsls	r4, r4, #12

20002b0e <l20_2>:
20002b0e:	25d0      	movs	r5, #208	@ 0xd0
20002b10:	062d      	lsls	r5, r5, #24
20002b12:	2600      	movs	r6, #0
20002b14:	43f6      	mvns	r6, r6
20002b16:	662e      	str	r6, [r5, #96]	@ 0x60
20002b18:	091e      	lsrs	r6, r3, #4
20002b1a:	666e      	str	r6, [r5, #100]	@ 0x64
20002b1c:	0fce      	lsrs	r6, r1, #31
20002b1e:	19f6      	adds	r6, r6, r7
20002b20:	46b4      	mov	ip, r6
20002b22:	0049      	lsls	r1, r1, #1
20002b24:	0d4f      	lsrs	r7, r1, #21
20002b26:	d002      	beq.n	20002b2e <l20_2+0x20>
20002b28:	1c7e      	adds	r6, r7, #1
20002b2a:	0af6      	lsrs	r6, r6, #11
20002b2c:	d003      	beq.n	20002b36 <l20_2+0x28>
20002b2e:	2000      	movs	r0, #0
20002b30:	2100      	movs	r1, #0
20002b32:	3f40      	subs	r7, #64	@ 0x40
20002b34:	033f      	lsls	r7, r7, #12
20002b36:	1b3e      	subs	r6, r7, r4
20002b38:	00b6      	lsls	r6, r6, #2
20002b3a:	44b4      	add	ip, r6
20002b3c:	3f01      	subs	r7, #1
20002b3e:	057f      	lsls	r7, r7, #21
20002b40:	1bc9      	subs	r1, r1, r7
20002b42:	0849      	lsrs	r1, r1, #1
20002b44:	6f2e      	ldr	r6, [r5, #112]	@ 0x70
20002b46:	3601      	adds	r6, #1
20002b48:	0876      	lsrs	r6, r6, #1
20002b4a:	029c      	lsls	r4, r3, #10
20002b4c:	0d95      	lsrs	r5, r2, #22
20002b4e:	4325      	orrs	r5, r4
20002b50:	4375      	muls	r5, r6
20002b52:	13ed      	asrs	r5, r5, #15
20002b54:	4375      	muls	r5, r6
20002b56:	13ad      	asrs	r5, r5, #14
20002b58:	3501      	adds	r5, #1
20002b5a:	106d      	asrs	r5, r5, #1
20002b5c:	03f6      	lsls	r6, r6, #15
20002b5e:	1b76      	subs	r6, r6, r5
20002b60:	b40c      	push	{r2, r3}
20002b62:	02cc      	lsls	r4, r1, #11
20002b64:	0d45      	lsrs	r5, r0, #21
20002b66:	432c      	orrs	r4, r5
20002b68:	b2a2      	uxth	r2, r4
20002b6a:	b2b3      	uxth	r3, r6
20002b6c:	435a      	muls	r2, r3
20002b6e:	0c27      	lsrs	r7, r4, #16
20002b70:	437b      	muls	r3, r7
20002b72:	0c35      	lsrs	r5, r6, #16
20002b74:	436f      	muls	r7, r5
20002b76:	b2a4      	uxth	r4, r4
20002b78:	436c      	muls	r4, r5
20002b7a:	191b      	adds	r3, r3, r4
20002b7c:	d302      	bcc.n	20002b84 <l21_1>
20002b7e:	2401      	movs	r4, #1
20002b80:	0424      	lsls	r4, r4, #16
20002b82:	193f      	adds	r7, r7, r4

20002b84 <l21_1>:
20002b84:	041c      	lsls	r4, r3, #16
20002b86:	0c1d      	lsrs	r5, r3, #16
20002b88:	18a4      	adds	r4, r4, r2
20002b8a:	417d      	adcs	r5, r7
20002b8c:	1924      	adds	r4, r4, r4
20002b8e:	416d      	adcs	r5, r5
20002b90:	9a00      	ldr	r2, [sp, #0]
20002b92:	b291      	uxth	r1, r2
20002b94:	b2ac      	uxth	r4, r5
20002b96:	4361      	muls	r1, r4
20002b98:	0c17      	lsrs	r7, r2, #16
20002b9a:	437c      	muls	r4, r7
20002b9c:	0c2b      	lsrs	r3, r5, #16
20002b9e:	435f      	muls	r7, r3
20002ba0:	b292      	uxth	r2, r2
20002ba2:	435a      	muls	r2, r3
20002ba4:	18a4      	adds	r4, r4, r2
20002ba6:	d302      	bcc.n	20002bae <l22_1>
20002ba8:	2201      	movs	r2, #1
20002baa:	0412      	lsls	r2, r2, #16
20002bac:	18bf      	adds	r7, r7, r2

20002bae <l22_1>:
20002bae:	0422      	lsls	r2, r4, #16
20002bb0:	0c23      	lsrs	r3, r4, #16
20002bb2:	1852      	adds	r2, r2, r1
20002bb4:	417b      	adcs	r3, r7
20002bb6:	9c01      	ldr	r4, [sp, #4]
20002bb8:	436c      	muls	r4, r5
20002bba:	191b      	adds	r3, r3, r4
20002bbc:	0e52      	lsrs	r2, r2, #25
20002bbe:	01d9      	lsls	r1, r3, #7
20002bc0:	430a      	orrs	r2, r1
20002bc2:	0144      	lsls	r4, r0, #5
20002bc4:	1aa0      	subs	r0, r4, r2
20002bc6:	b281      	uxth	r1, r0
20002bc8:	b2b2      	uxth	r2, r6
20002bca:	4351      	muls	r1, r2
20002bcc:	1403      	asrs	r3, r0, #16
20002bce:	435a      	muls	r2, r3
20002bd0:	0c36      	lsrs	r6, r6, #16
20002bd2:	4373      	muls	r3, r6
20002bd4:	b287      	uxth	r7, r0
20002bd6:	4377      	muls	r7, r6
20002bd8:	17d6      	asrs	r6, r2, #31
20002bda:	19d2      	adds	r2, r2, r7
20002bdc:	2700      	movs	r7, #0
20002bde:	417e      	adcs	r6, r7
20002be0:	0436      	lsls	r6, r6, #16
20002be2:	199b      	adds	r3, r3, r6
20002be4:	0417      	lsls	r7, r2, #16
20002be6:	0c16      	lsrs	r6, r2, #16
20002be8:	187f      	adds	r7, r7, r1
20002bea:	415e      	adcs	r6, r3
20002bec:	1673      	asrs	r3, r6, #25
20002bee:	18ed      	adds	r5, r5, r3
20002bf0:	01f3      	lsls	r3, r6, #7
20002bf2:	2600      	movs	r6, #0
20002bf4:	3380      	adds	r3, #128	@ 0x80
20002bf6:	4175      	adcs	r5, r6
20002bf8:	0fa9      	lsrs	r1, r5, #30
20002bfa:	d106      	bne.n	20002c0a <dd_0>
20002bfc:	0064      	lsls	r4, r4, #1
20002bfe:	0a69      	lsrs	r1, r5, #9
20002c00:	05e8      	lsls	r0, r5, #23
20002c02:	0a5b      	lsrs	r3, r3, #9
20002c04:	4318      	orrs	r0, r3
20002c06:	d209      	bcs.n	20002c1c <dd_1>
20002c08:	e02f      	b.n	20002c6a <dd_2>

20002c0a <dd_0>:
20002c0a:	2204      	movs	r2, #4
20002c0c:	4494      	add	ip, r2
20002c0e:	3380      	adds	r3, #128	@ 0x80
20002c10:	4175      	adcs	r5, r6
20002c12:	0aa9      	lsrs	r1, r5, #10
20002c14:	05a8      	lsls	r0, r5, #22
20002c16:	0a9b      	lsrs	r3, r3, #10
20002c18:	4318      	orrs	r0, r3
20002c1a:	d326      	bcc.n	20002c6a <dd_2>

20002c1c <dd_1>:
20002c1c:	4140      	adcs	r0, r0
20002c1e:	4149      	adcs	r1, r1
20002c20:	0424      	lsls	r4, r4, #16
20002c22:	9a00      	ldr	r2, [sp, #0]
20002c24:	9b01      	ldr	r3, [sp, #4]
20002c26:	000d      	movs	r5, r1
20002c28:	4355      	muls	r5, r2
20002c2a:	1b64      	subs	r4, r4, r5
20002c2c:	4343      	muls	r3, r0
20002c2e:	1ae4      	subs	r4, r4, r3
20002c30:	b295      	uxth	r5, r2
20002c32:	b286      	uxth	r6, r0
20002c34:	4375      	muls	r5, r6
20002c36:	0c17      	lsrs	r7, r2, #16
20002c38:	437e      	muls	r6, r7
20002c3a:	0c03      	lsrs	r3, r0, #16
20002c3c:	435f      	muls	r7, r3
20002c3e:	b292      	uxth	r2, r2
20002c40:	435a      	muls	r2, r3
20002c42:	18b6      	adds	r6, r6, r2
20002c44:	d302      	bcc.n	20002c4c <l24_1>
20002c46:	2201      	movs	r2, #1
20002c48:	0412      	lsls	r2, r2, #16
20002c4a:	18bf      	adds	r7, r7, r2

20002c4c <l24_1>:
20002c4c:	0432      	lsls	r2, r6, #16
20002c4e:	0c33      	lsrs	r3, r6, #16
20002c50:	1952      	adds	r2, r2, r5
20002c52:	417b      	adcs	r3, r7
20002c54:	4252      	negs	r2, r2
20002c56:	419c      	sbcs	r4, r3
20002c58:	2c00      	cmp	r4, #0
20002c5a:	d402      	bmi.n	20002c62 <l24_1+0x16>
20002c5c:	2200      	movs	r2, #0
20002c5e:	3001      	adds	r0, #1
20002c60:	4151      	adcs	r1, r2
20002c62:	0840      	lsrs	r0, r0, #1
20002c64:	07ca      	lsls	r2, r1, #31
20002c66:	4310      	orrs	r0, r2
20002c68:	0849      	lsrs	r1, r1, #1

20002c6a <dd_2>:
20002c6a:	b002      	add	sp, #8
20002c6c:	4662      	mov	r2, ip
20002c6e:	07d7      	lsls	r7, r2, #31
20002c70:	1092      	asrs	r2, r2, #2
20002c72:	4b08      	ldr	r3, [pc, #32]	@ (20002c94 <dd_4+0x6>)
20002c74:	18d2      	adds	r2, r2, r3
20002c76:	4b08      	ldr	r3, [pc, #32]	@ (20002c98 <dd_4+0xa>)
20002c78:	429a      	cmp	r2, r3
20002c7a:	d203      	bcs.n	20002c84 <dd_3>
20002c7c:	0512      	lsls	r2, r2, #20
20002c7e:	1889      	adds	r1, r1, r2

20002c80 <dd_5>:
20002c80:	19c9      	adds	r1, r1, r7
20002c82:	bdf0      	pop	{r4, r5, r6, r7, pc}

20002c84 <dd_3>:
20002c84:	2000      	movs	r0, #0
20002c86:	2a00      	cmp	r2, #0
20002c88:	dc01      	bgt.n	20002c8e <dd_4>
20002c8a:	0039      	movs	r1, r7
20002c8c:	bdf0      	pop	{r4, r5, r6, r7, pc}

20002c8e <dd_4>:
20002c8e:	3301      	adds	r3, #1
20002c90:	0519      	lsls	r1, r3, #20
20002c92:	e7f5      	b.n	20002c80 <dd_5>
20002c94:	000003fd 	.word	0x000003fd
20002c98:	000007fe 	.word	0x000007fe

20002c9c <double2uint_shim>:
20002c9c:	2200      	movs	r2, #0

20002c9e <double2ufix_shim>:
20002c9e:	b500      	push	{lr}
20002ca0:	3220      	adds	r2, #32
20002ca2:	f000 f804 	bl	20002cae <double2ufix64_shim>
20002ca6:	0008      	movs	r0, r1
20002ca8:	bd00      	pop	{pc}
	...

20002cac <double2uint64_shim>:
20002cac:	2200      	movs	r2, #0

20002cae <double2ufix64_shim>:
20002cae:	150b      	asrs	r3, r1, #20
20002cb0:	d40a      	bmi.n	20002cc8 <ret_dzero>

20002cb2 <d2fix>:
20002cb2:	b510      	push	{r4, lr}
20002cb4:	4694      	mov	ip, r2
20002cb6:	f000 f831 	bl	20002d1c <dunpacks>
20002cba:	1414      	asrs	r4, r2, #16
20002cbc:	3401      	adds	r4, #1
20002cbe:	da00      	bge.n	20002cc2 <d2fix+0x10>
20002cc0:	2100      	movs	r1, #0
20002cc2:	17cb      	asrs	r3, r1, #31
20002cc4:	4c14      	ldr	r4, [pc, #80]	@ (20002d18 <d2fix_a+0x4a>)
20002cc6:	4720      	bx	r4

20002cc8 <ret_dzero>:
20002cc8:	2000      	movs	r0, #0
20002cca:	2100      	movs	r1, #0
20002ccc:	4770      	bx	lr

20002cce <d2fix_a>:
20002cce:	4462      	add	r2, ip
20002cd0:	3a34      	subs	r2, #52	@ 0x34
20002cd2:	d40c      	bmi.n	20002cee <d2fix_a+0x20>
20002cd4:	2a0c      	cmp	r2, #12
20002cd6:	da07      	bge.n	20002ce8 <d2fix_a+0x1a>
20002cd8:	0004      	movs	r4, r0
20002cda:	4091      	lsls	r1, r2
20002cdc:	4090      	lsls	r0, r2
20002cde:	4252      	negs	r2, r2
20002ce0:	3220      	adds	r2, #32
20002ce2:	40d4      	lsrs	r4, r2
20002ce4:	4321      	orrs	r1, r4
20002ce6:	bd10      	pop	{r4, pc}
20002ce8:	43d8      	mvns	r0, r3
20002cea:	43d9      	mvns	r1, r3
20002cec:	bd10      	pop	{r4, pc}
20002cee:	3220      	adds	r2, #32
20002cf0:	d407      	bmi.n	20002d02 <d2fix_a+0x34>
20002cf2:	460c      	mov	r4, r1
20002cf4:	4094      	lsls	r4, r2
20002cf6:	4252      	negs	r2, r2
20002cf8:	3220      	adds	r2, #32
20002cfa:	4111      	asrs	r1, r2
20002cfc:	40d0      	lsrs	r0, r2
20002cfe:	4320      	orrs	r0, r4
20002d00:	bd10      	pop	{r4, pc}
20002d02:	0008      	movs	r0, r1
20002d04:	17c9      	asrs	r1, r1, #31
20002d06:	3220      	adds	r2, #32
20002d08:	d403      	bmi.n	20002d12 <d2fix_a+0x44>
20002d0a:	4252      	negs	r2, r2
20002d0c:	3220      	adds	r2, #32
20002d0e:	4110      	asrs	r0, r2
20002d10:	bd10      	pop	{r4, pc}
20002d12:	0018      	movs	r0, r3
20002d14:	0019      	movs	r1, r3
20002d16:	bd10      	pop	{r4, pc}
20002d18:	20002ccf 	.word	0x20002ccf

20002d1c <dunpacks>:
20002d1c:	0d0a      	lsrs	r2, r1, #20
20002d1e:	0fcc      	lsrs	r4, r1, #31
20002d20:	1e53      	subs	r3, r2, #1
20002d22:	051b      	lsls	r3, r3, #20
20002d24:	1ac9      	subs	r1, r1, r3
20002d26:	0552      	lsls	r2, r2, #21
20002d28:	d303      	bcc.n	20002d32 <l60_1>
20002d2a:	43c9      	mvns	r1, r1
20002d2c:	4240      	negs	r0, r0
20002d2e:	d300      	bcc.n	20002d32 <l60_1>
20002d30:	3101      	adds	r1, #1

20002d32 <l60_1>:
20002d32:	0d52      	lsrs	r2, r2, #21
20002d34:	d003      	beq.n	20002d3e <l60_2>
20002d36:	1c53      	adds	r3, r2, #1
20002d38:	0adb      	lsrs	r3, r3, #11
20002d3a:	d007      	beq.n	20002d4c <l60_3>
20002d3c:	1b12      	subs	r2, r2, r4

20002d3e <l60_2>:
20002d3e:	2000      	movs	r0, #0
20002d40:	0064      	lsls	r4, r4, #1
20002d42:	1c61      	adds	r1, r4, #1
20002d44:	0789      	lsls	r1, r1, #30
20002d46:	1289      	asrs	r1, r1, #10
20002d48:	3a80      	subs	r2, #128	@ 0x80
20002d4a:	0312      	lsls	r2, r2, #12

20002d4c <l60_3>:
20002d4c:	4b01      	ldr	r3, [pc, #4]	@ (20002d54 <l60_3+0x8>)
20002d4e:	1ad2      	subs	r2, r2, r3
20002d50:	4770      	bx	lr
20002d52:	0000      	.short	0x0000
20002d54:	000003ff 	.word	0x000003ff

20002d58 <__wrap___aeabi_lmul>:
20002d58:	4351      	muls	r1, r2
20002d5a:	4343      	muls	r3, r0
20002d5c:	18c9      	adds	r1, r1, r3
20002d5e:	468c      	mov	ip, r1
20002d60:	0c11      	lsrs	r1, r2, #16
20002d62:	b283      	uxth	r3, r0
20002d64:	434b      	muls	r3, r1
20002d66:	b410      	push	{r4}
20002d68:	0c04      	lsrs	r4, r0, #16
20002d6a:	4361      	muls	r1, r4
20002d6c:	b292      	uxth	r2, r2
20002d6e:	b280      	uxth	r0, r0
20002d70:	4350      	muls	r0, r2
20002d72:	4362      	muls	r2, r4
20002d74:	041c      	lsls	r4, r3, #16
20002d76:	0c1b      	lsrs	r3, r3, #16
20002d78:	1900      	adds	r0, r0, r4
20002d7a:	bc10      	pop	{r4}
20002d7c:	4159      	adcs	r1, r3
20002d7e:	0413      	lsls	r3, r2, #16
20002d80:	0c12      	lsrs	r2, r2, #16
20002d82:	18c0      	adds	r0, r0, r3
20002d84:	4151      	adcs	r1, r2
20002d86:	4461      	add	r1, ip
20002d88:	4770      	bx	lr
	...

20002d8c <__aeabi_float_init>:
20002d8c:	b570      	push	{r4, r5, r6, lr}
20002d8e:	2313      	movs	r3, #19
20002d90:	781c      	ldrb	r4, [r3, #0]
20002d92:	482a      	ldr	r0, [pc, #168]	@ (20002e3c <__aeabi_float_init+0xb0>)
20002d94:	f7ff f856 	bl	20001e44 <rom_data_lookup>
20002d98:	0005      	movs	r5, r0
20002d9a:	2c01      	cmp	r4, #1
20002d9c:	d012      	beq.n	20002dc4 <__aeabi_float_init+0x38>
20002d9e:	2c01      	cmp	r4, #1
20002da0:	dd0a      	ble.n	20002db8 <__aeabi_float_init+0x2c>
20002da2:	002b      	movs	r3, r5
20002da4:	3b02      	subs	r3, #2
20002da6:	781b      	ldrb	r3, [r3, #0]
20002da8:	009b      	lsls	r3, r3, #2
20002daa:	2b7f      	cmp	r3, #127	@ 0x7f
20002dac:	dd40      	ble.n	20002e30 <__aeabi_float_init+0xa4>
20002dae:	4824      	ldr	r0, [pc, #144]	@ (20002e40 <__aeabi_float_init+0xb4>)
20002db0:	2280      	movs	r2, #128	@ 0x80
20002db2:	0029      	movs	r1, r5
20002db4:	f000 f890 	bl	20002ed8 <__wrap___aeabi_memcpy>
20002db8:	4822      	ldr	r0, [pc, #136]	@ (20002e44 <__aeabi_float_init+0xb8>)
20002dba:	f7ff f83b 	bl	20001e34 <rom_func_lookup>
20002dbe:	4b22      	ldr	r3, [pc, #136]	@ (20002e48 <__aeabi_float_init+0xbc>)
20002dc0:	6018      	str	r0, [r3, #0]
20002dc2:	bd70      	pop	{r4, r5, r6, pc}
20002dc4:	481e      	ldr	r0, [pc, #120]	@ (20002e40 <__aeabi_float_init+0xb4>)
20002dc6:	2254      	movs	r2, #84	@ 0x54
20002dc8:	0029      	movs	r1, r5
20002dca:	f000 f885 	bl	20002ed8 <__wrap___aeabi_memcpy>
20002dce:	4b1f      	ldr	r3, [pc, #124]	@ (20002e4c <__aeabi_float_init+0xc0>)
20002dd0:	881a      	ldrh	r2, [r3, #0]
20002dd2:	4b1f      	ldr	r3, [pc, #124]	@ (20002e50 <__aeabi_float_init+0xc4>)
20002dd4:	429a      	cmp	r2, r3
20002dd6:	d11c      	bne.n	20002e12 <__aeabi_float_init+0x86>
20002dd8:	23a7      	movs	r3, #167	@ 0xa7
20002dda:	019b      	lsls	r3, r3, #6
20002ddc:	881a      	ldrh	r2, [r3, #0]
20002dde:	4b1d      	ldr	r3, [pc, #116]	@ (20002e54 <__aeabi_float_init+0xc8>)
20002de0:	429a      	cmp	r2, r3
20002de2:	d116      	bne.n	20002e12 <__aeabi_float_init+0x86>
20002de4:	4b1c      	ldr	r3, [pc, #112]	@ (20002e58 <__aeabi_float_init+0xcc>)
20002de6:	881a      	ldrh	r2, [r3, #0]
20002de8:	4b1c      	ldr	r3, [pc, #112]	@ (20002e5c <__aeabi_float_init+0xd0>)
20002dea:	429a      	cmp	r2, r3
20002dec:	d111      	bne.n	20002e12 <__aeabi_float_init+0x86>
20002dee:	4b1c      	ldr	r3, [pc, #112]	@ (20002e60 <__aeabi_float_init+0xd4>)
20002df0:	881a      	ldrh	r2, [r3, #0]
20002df2:	2394      	movs	r3, #148	@ 0x94
20002df4:	019b      	lsls	r3, r3, #6
20002df6:	429a      	cmp	r2, r3
20002df8:	d10b      	bne.n	20002e12 <__aeabi_float_init+0x86>
20002dfa:	4b1a      	ldr	r3, [pc, #104]	@ (20002e64 <__aeabi_float_init+0xd8>)
20002dfc:	881a      	ldrh	r2, [r3, #0]
20002dfe:	4b1a      	ldr	r3, [pc, #104]	@ (20002e68 <__aeabi_float_init+0xdc>)
20002e00:	429a      	cmp	r2, r3
20002e02:	d106      	bne.n	20002e12 <__aeabi_float_init+0x86>
20002e04:	4b19      	ldr	r3, [pc, #100]	@ (20002e6c <__aeabi_float_init+0xe0>)
20002e06:	681a      	ldr	r2, [r3, #0]
20002e08:	4b19      	ldr	r3, [pc, #100]	@ (20002e70 <__aeabi_float_init+0xe4>)
20002e0a:	429a      	cmp	r2, r3
20002e0c:	d101      	bne.n	20002e12 <__aeabi_float_init+0x86>
20002e0e:	2315      	movs	r3, #21
20002e10:	e007      	b.n	20002e22 <__aeabi_float_init+0x96>
20002e12:	4818      	ldr	r0, [pc, #96]	@ (20002e74 <__aeabi_float_init+0xe8>)
20002e14:	f7fd feea 	bl	20000bec <panic>
20002e18:	4917      	ldr	r1, [pc, #92]	@ (20002e78 <__aeabi_float_init+0xec>)
20002e1a:	4a09      	ldr	r2, [pc, #36]	@ (20002e40 <__aeabi_float_init+0xb4>)
20002e1c:	0098      	lsls	r0, r3, #2
20002e1e:	5081      	str	r1, [r0, r2]
20002e20:	3301      	adds	r3, #1
20002e22:	2b1f      	cmp	r3, #31
20002e24:	d9f8      	bls.n	20002e18 <__aeabi_float_init+0x8c>
20002e26:	4b14      	ldr	r3, [pc, #80]	@ (20002e78 <__aeabi_float_init+0xec>)
20002e28:	4a05      	ldr	r2, [pc, #20]	@ (20002e40 <__aeabi_float_init+0xb4>)
20002e2a:	6213      	str	r3, [r2, #32]
20002e2c:	61d3      	str	r3, [r2, #28]
20002e2e:	e7b6      	b.n	20002d9e <__aeabi_float_init+0x12>
20002e30:	4b12      	ldr	r3, [pc, #72]	@ (20002e7c <__aeabi_float_init+0xf0>)
20002e32:	4a13      	ldr	r2, [pc, #76]	@ (20002e80 <__aeabi_float_init+0xf4>)
20002e34:	4813      	ldr	r0, [pc, #76]	@ (20002e84 <__aeabi_float_init+0xf8>)
20002e36:	2142      	movs	r1, #66	@ 0x42
20002e38:	f001 f94e 	bl	200040d8 <__assert_func>
20002e3c:	00004653 	.word	0x00004653
20002e40:	20008bf8 	.word	0x20008bf8
20002e44:	0000334c 	.word	0x0000334c
20002e48:	20008bf4 	.word	0x20008bf4
20002e4c:	000029ee 	.word	0x000029ee
20002e50:	00000fc4 	.word	0x00000fc4
20002e54:	00000dc2 	.word	0x00000dc2
20002e58:	00002b96 	.word	0x00002b96
20002e5c:	0000b5c0 	.word	0x0000b5c0
20002e60:	00002b18 	.word	0x00002b18
20002e64:	00002acc 	.word	0x00002acc
20002e68:	0000b510 	.word	0x0000b510
20002e6c:	00002cfc 	.word	0x00002cfc
20002e70:	6487ed51 	.word	0x6487ed51
20002e74:	20007074 	.word	0x20007074
20002e78:	20002e89 	.word	0x20002e89
20002e7c:	2000769c 	.word	0x2000769c
20002e80:	20007b44 	.word	0x20007b44
20002e84:	200076d0 	.word	0x200076d0

20002e88 <float_table_shim_on_use_helper>:
20002e88:	b507      	push	{r0, r1, r2, lr}
20002e8a:	4660      	mov	r0, ip
20002e8c:	2800      	cmp	r0, #0
20002e8e:	d100      	bne.n	20002e92 <float_table_shim_on_use_helper+0xa>
20002e90:	be00      	bkpt	0x0000
20002e92:	8801      	ldrh	r1, [r0, #0]
20002e94:	0a0a      	lsrs	r2, r1, #8
20002e96:	3002      	adds	r0, #2
20002e98:	2adf      	cmp	r2, #223	@ 0xdf
20002e9a:	d1fa      	bne.n	20002e92 <float_table_shim_on_use_helper+0xa>
20002e9c:	b2c9      	uxtb	r1, r1
20002e9e:	0882      	lsrs	r2, r0, #2
20002ea0:	d304      	bcc.n	20002eac <float_table_shim_on_use_helper+0x24>
20002ea2:	8802      	ldrh	r2, [r0, #0]
20002ea4:	8840      	ldrh	r0, [r0, #2]
20002ea6:	0400      	lsls	r0, r0, #16
20002ea8:	4310      	orrs	r0, r2
20002eaa:	e000      	b.n	20002eae <float_table_shim_on_use_helper+0x26>
20002eac:	6800      	ldr	r0, [r0, #0]
20002eae:	4a02      	ldr	r2, [pc, #8]	@ (20002eb8 <float_table_shim_on_use_helper+0x30>)
20002eb0:	5050      	str	r0, [r2, r1]
20002eb2:	9003      	str	r0, [sp, #12]
20002eb4:	bd07      	pop	{r0, r1, r2, pc}
20002eb6:	0000      	.short	0x0000
20002eb8:	20008bf8 	.word	0x20008bf8

20002ebc <__aeabi_mem_init>:
20002ebc:	4801      	ldr	r0, [pc, #4]	@ (20002ec4 <__aeabi_mem_init+0x8>)
20002ebe:	2104      	movs	r1, #4
20002ec0:	4b01      	ldr	r3, [pc, #4]	@ (20002ec8 <__aeabi_mem_init+0xc>)
20002ec2:	4718      	bx	r3
20002ec4:	20007eb0 	.word	0x20007eb0
20002ec8:	20001e55 	.word	0x20001e55

20002ecc <__wrap_memset>:
20002ecc:	4b01      	ldr	r3, [pc, #4]	@ (20002ed4 <__wrap_memset+0x8>)
20002ece:	681b      	ldr	r3, [r3, #0]
20002ed0:	4718      	bx	r3
20002ed2:	0000      	.short	0x0000
20002ed4:	20007eb0 	.word	0x20007eb0

20002ed8 <__wrap___aeabi_memcpy>:
20002ed8:	4b01      	ldr	r3, [pc, #4]	@ (20002ee0 <__wrap___aeabi_memcpy+0x8>)
20002eda:	685b      	ldr	r3, [r3, #4]
20002edc:	4718      	bx	r3
20002ede:	0000      	.short	0x0000
20002ee0:	20007eb0 	.word	0x20007eb0

20002ee4 <_out_null>:
20002ee4:	4770      	bx	lr

20002ee6 <_out_fct>:
20002ee6:	b510      	push	{r4, lr}
20002ee8:	2800      	cmp	r0, #0
20002eea:	d002      	beq.n	20002ef2 <_out_fct+0xc>
20002eec:	680b      	ldr	r3, [r1, #0]
20002eee:	6849      	ldr	r1, [r1, #4]
20002ef0:	4798      	blx	r3
20002ef2:	bd10      	pop	{r4, pc}

20002ef4 <_atoi>:
20002ef4:	0001      	movs	r1, r0
20002ef6:	2000      	movs	r0, #0
20002ef8:	e007      	b.n	20002f0a <_atoi+0x16>
20002efa:	0083      	lsls	r3, r0, #2
20002efc:	181b      	adds	r3, r3, r0
20002efe:	005b      	lsls	r3, r3, #1
20002f00:	1c50      	adds	r0, r2, #1
20002f02:	6008      	str	r0, [r1, #0]
20002f04:	7810      	ldrb	r0, [r2, #0]
20002f06:	18c0      	adds	r0, r0, r3
20002f08:	3830      	subs	r0, #48	@ 0x30
20002f0a:	680a      	ldr	r2, [r1, #0]
20002f0c:	7813      	ldrb	r3, [r2, #0]
20002f0e:	3b30      	subs	r3, #48	@ 0x30
20002f10:	b2db      	uxtb	r3, r3
20002f12:	2b09      	cmp	r3, #9
20002f14:	d9f1      	bls.n	20002efa <_atoi+0x6>
20002f16:	4770      	bx	lr

20002f18 <_out_rev>:
20002f18:	b5f0      	push	{r4, r5, r6, r7, lr}
20002f1a:	46d6      	mov	lr, sl
20002f1c:	464f      	mov	r7, r9
20002f1e:	4646      	mov	r6, r8
20002f20:	b5c0      	push	{r6, r7, lr}
20002f22:	0005      	movs	r5, r0
20002f24:	000e      	movs	r6, r1
20002f26:	0010      	movs	r0, r2
20002f28:	4691      	mov	r9, r2
20002f2a:	001f      	movs	r7, r3
20002f2c:	9c09      	ldr	r4, [sp, #36]	@ 0x24
20002f2e:	9b0b      	ldr	r3, [sp, #44]	@ 0x2c
20002f30:	2202      	movs	r2, #2
20002f32:	0011      	movs	r1, r2
20002f34:	4019      	ands	r1, r3
20002f36:	468a      	mov	sl, r1
20002f38:	421a      	tst	r2, r3
20002f3a:	d134      	bne.n	20002fa6 <_out_rev+0x8e>
20002f3c:	07db      	lsls	r3, r3, #31
20002f3e:	d516      	bpl.n	20002f6e <_out_rev+0x56>
20002f40:	0002      	movs	r2, r0
20002f42:	46b8      	mov	r8, r7
20002f44:	0037      	movs	r7, r6
20002f46:	002e      	movs	r6, r5
20002f48:	e01f      	b.n	20002f8a <_out_rev+0x72>
20002f4a:	1c55      	adds	r5, r2, #1
20002f4c:	0033      	movs	r3, r6
20002f4e:	4641      	mov	r1, r8
20002f50:	2020      	movs	r0, #32
20002f52:	47b8      	blx	r7
20002f54:	3401      	adds	r4, #1
20002f56:	002a      	movs	r2, r5
20002f58:	9b0a      	ldr	r3, [sp, #40]	@ 0x28
20002f5a:	429c      	cmp	r4, r3
20002f5c:	d3f5      	bcc.n	20002f4a <_out_rev+0x32>
20002f5e:	003d      	movs	r5, r7
20002f60:	0037      	movs	r7, r6
20002f62:	4646      	mov	r6, r8
20002f64:	9c09      	ldr	r4, [sp, #36]	@ 0x24
20002f66:	46b8      	mov	r8, r7
20002f68:	0037      	movs	r7, r6
20002f6a:	002e      	movs	r6, r5
20002f6c:	e00d      	b.n	20002f8a <_out_rev+0x72>
20002f6e:	0002      	movs	r2, r0
20002f70:	46b0      	mov	r8, r6
20002f72:	003e      	movs	r6, r7
20002f74:	002f      	movs	r7, r5
20002f76:	9409      	str	r4, [sp, #36]	@ 0x24
20002f78:	e7ee      	b.n	20002f58 <_out_rev+0x40>
20002f7a:	3c01      	subs	r4, #1
20002f7c:	1c55      	adds	r5, r2, #1
20002f7e:	9b08      	ldr	r3, [sp, #32]
20002f80:	5d18      	ldrb	r0, [r3, r4]
20002f82:	4643      	mov	r3, r8
20002f84:	0039      	movs	r1, r7
20002f86:	47b0      	blx	r6
20002f88:	002a      	movs	r2, r5
20002f8a:	2c00      	cmp	r4, #0
20002f8c:	d1f5      	bne.n	20002f7a <_out_rev+0x62>
20002f8e:	0035      	movs	r5, r6
20002f90:	003e      	movs	r6, r7
20002f92:	4647      	mov	r7, r8
20002f94:	4653      	mov	r3, sl
20002f96:	2b00      	cmp	r3, #0
20002f98:	d116      	bne.n	20002fc8 <_out_rev+0xb0>
20002f9a:	0010      	movs	r0, r2
20002f9c:	bce0      	pop	{r5, r6, r7}
20002f9e:	46ba      	mov	sl, r7
20002fa0:	46b1      	mov	r9, r6
20002fa2:	46a8      	mov	r8, r5
20002fa4:	bdf0      	pop	{r4, r5, r6, r7, pc}
20002fa6:	0002      	movs	r2, r0
20002fa8:	46b8      	mov	r8, r7
20002faa:	0037      	movs	r7, r6
20002fac:	002e      	movs	r6, r5
20002fae:	e7ec      	b.n	20002f8a <_out_rev+0x72>
20002fb0:	1c54      	adds	r4, r2, #1
20002fb2:	0033      	movs	r3, r6
20002fb4:	0029      	movs	r1, r5
20002fb6:	2020      	movs	r0, #32
20002fb8:	47b8      	blx	r7
20002fba:	0022      	movs	r2, r4
20002fbc:	464b      	mov	r3, r9
20002fbe:	1ad3      	subs	r3, r2, r3
20002fc0:	990a      	ldr	r1, [sp, #40]	@ 0x28
20002fc2:	428b      	cmp	r3, r1
20002fc4:	d3f4      	bcc.n	20002fb0 <_out_rev+0x98>
20002fc6:	e7e8      	b.n	20002f9a <_out_rev+0x82>
20002fc8:	003b      	movs	r3, r7
20002fca:	002f      	movs	r7, r5
20002fcc:	0035      	movs	r5, r6
20002fce:	001e      	movs	r6, r3
20002fd0:	e7f4      	b.n	20002fbc <_out_rev+0xa4>

20002fd2 <_ntoa_format>:
20002fd2:	b5f0      	push	{r4, r5, r6, r7, lr}
20002fd4:	46ce      	mov	lr, r9
20002fd6:	4647      	mov	r7, r8
20002fd8:	b580      	push	{r7, lr}
20002fda:	b085      	sub	sp, #20
20002fdc:	0006      	movs	r6, r0
20002fde:	000f      	movs	r7, r1
20002fe0:	4690      	mov	r8, r2
20002fe2:	4699      	mov	r9, r3
20002fe4:	9a0c      	ldr	r2, [sp, #48]	@ 0x30
20002fe6:	9b0d      	ldr	r3, [sp, #52]	@ 0x34
20002fe8:	a90e      	add	r1, sp, #56	@ 0x38
20002fea:	7809      	ldrb	r1, [r1, #0]
20002fec:	468c      	mov	ip, r1
20002fee:	9d10      	ldr	r5, [sp, #64]	@ 0x40
20002ff0:	9c11      	ldr	r4, [sp, #68]	@ 0x44
20002ff2:	9912      	ldr	r1, [sp, #72]	@ 0x48
20002ff4:	0788      	lsls	r0, r1, #30
20002ff6:	d41c      	bmi.n	20003032 <_ntoa_format+0x60>
20002ff8:	2c00      	cmp	r4, #0
20002ffa:	d00c      	beq.n	20003016 <_ntoa_format+0x44>
20002ffc:	07c8      	lsls	r0, r1, #31
20002ffe:	d50a      	bpl.n	20003016 <_ntoa_format+0x44>
20003000:	4660      	mov	r0, ip
20003002:	2800      	cmp	r0, #0
20003004:	d102      	bne.n	2000300c <_ntoa_format+0x3a>
20003006:	300c      	adds	r0, #12
20003008:	4208      	tst	r0, r1
2000300a:	d004      	beq.n	20003016 <_ntoa_format+0x44>
2000300c:	3c01      	subs	r4, #1
2000300e:	e002      	b.n	20003016 <_ntoa_format+0x44>
20003010:	2030      	movs	r0, #48	@ 0x30
20003012:	54d0      	strb	r0, [r2, r3]
20003014:	3301      	adds	r3, #1
20003016:	42ab      	cmp	r3, r5
20003018:	d201      	bcs.n	2000301e <_ntoa_format+0x4c>
2000301a:	2b1f      	cmp	r3, #31
2000301c:	d9f8      	bls.n	20003010 <_ntoa_format+0x3e>
2000301e:	07c8      	lsls	r0, r1, #31
20003020:	d507      	bpl.n	20003032 <_ntoa_format+0x60>
20003022:	42a3      	cmp	r3, r4
20003024:	d205      	bcs.n	20003032 <_ntoa_format+0x60>
20003026:	2b1f      	cmp	r3, #31
20003028:	d803      	bhi.n	20003032 <_ntoa_format+0x60>
2000302a:	2030      	movs	r0, #48	@ 0x30
2000302c:	54d0      	strb	r0, [r2, r3]
2000302e:	3301      	adds	r3, #1
20003030:	e7f5      	b.n	2000301e <_ntoa_format+0x4c>
20003032:	06c8      	lsls	r0, r1, #27
20003034:	d512      	bpl.n	2000305c <_ntoa_format+0x8a>
20003036:	0548      	lsls	r0, r1, #21
20003038:	d405      	bmi.n	20003046 <_ntoa_format+0x74>
2000303a:	2b00      	cmp	r3, #0
2000303c:	d003      	beq.n	20003046 <_ntoa_format+0x74>
2000303e:	42ab      	cmp	r3, r5
20003040:	d023      	beq.n	2000308a <_ntoa_format+0xb8>
20003042:	42a3      	cmp	r3, r4
20003044:	d021      	beq.n	2000308a <_ntoa_format+0xb8>
20003046:	980f      	ldr	r0, [sp, #60]	@ 0x3c
20003048:	2810      	cmp	r0, #16
2000304a:	d031      	beq.n	200030b0 <_ntoa_format+0xde>
2000304c:	980f      	ldr	r0, [sp, #60]	@ 0x3c
2000304e:	2802      	cmp	r0, #2
20003050:	d038      	beq.n	200030c4 <_ntoa_format+0xf2>
20003052:	2b1f      	cmp	r3, #31
20003054:	d80a      	bhi.n	2000306c <_ntoa_format+0x9a>
20003056:	2030      	movs	r0, #48	@ 0x30
20003058:	54d0      	strb	r0, [r2, r3]
2000305a:	3301      	adds	r3, #1
2000305c:	2b1f      	cmp	r3, #31
2000305e:	d805      	bhi.n	2000306c <_ntoa_format+0x9a>
20003060:	4660      	mov	r0, ip
20003062:	2800      	cmp	r0, #0
20003064:	d034      	beq.n	200030d0 <_ntoa_format+0xfe>
20003066:	202d      	movs	r0, #45	@ 0x2d
20003068:	54d0      	strb	r0, [r2, r3]
2000306a:	3301      	adds	r3, #1
2000306c:	9103      	str	r1, [sp, #12]
2000306e:	9402      	str	r4, [sp, #8]
20003070:	9301      	str	r3, [sp, #4]
20003072:	9200      	str	r2, [sp, #0]
20003074:	464b      	mov	r3, r9
20003076:	4642      	mov	r2, r8
20003078:	0039      	movs	r1, r7
2000307a:	0030      	movs	r0, r6
2000307c:	f7ff ff4c 	bl	20002f18 <_out_rev>
20003080:	b005      	add	sp, #20
20003082:	bcc0      	pop	{r6, r7}
20003084:	46b9      	mov	r9, r7
20003086:	46b0      	mov	r8, r6
20003088:	bdf0      	pop	{r4, r5, r6, r7, pc}
2000308a:	1e58      	subs	r0, r3, #1
2000308c:	2b01      	cmp	r3, #1
2000308e:	d017      	beq.n	200030c0 <_ntoa_format+0xee>
20003090:	9d0f      	ldr	r5, [sp, #60]	@ 0x3c
20003092:	2d10      	cmp	r5, #16
20003094:	d00b      	beq.n	200030ae <_ntoa_format+0xdc>
20003096:	0003      	movs	r3, r0
20003098:	980f      	ldr	r0, [sp, #60]	@ 0x3c
2000309a:	2810      	cmp	r0, #16
2000309c:	d1d6      	bne.n	2000304c <_ntoa_format+0x7a>
2000309e:	0688      	lsls	r0, r1, #26
200030a0:	d5d4      	bpl.n	2000304c <_ntoa_format+0x7a>
200030a2:	2b1f      	cmp	r3, #31
200030a4:	d8d2      	bhi.n	2000304c <_ntoa_format+0x7a>
200030a6:	2058      	movs	r0, #88	@ 0x58
200030a8:	54d0      	strb	r0, [r2, r3]
200030aa:	3301      	adds	r3, #1
200030ac:	e7d1      	b.n	20003052 <_ntoa_format+0x80>
200030ae:	3b02      	subs	r3, #2
200030b0:	0688      	lsls	r0, r1, #26
200030b2:	d4f1      	bmi.n	20003098 <_ntoa_format+0xc6>
200030b4:	2b1f      	cmp	r3, #31
200030b6:	d8ef      	bhi.n	20003098 <_ntoa_format+0xc6>
200030b8:	2078      	movs	r0, #120	@ 0x78
200030ba:	54d0      	strb	r0, [r2, r3]
200030bc:	3301      	adds	r3, #1
200030be:	e7c8      	b.n	20003052 <_ntoa_format+0x80>
200030c0:	0003      	movs	r3, r0
200030c2:	e7c0      	b.n	20003046 <_ntoa_format+0x74>
200030c4:	2b1f      	cmp	r3, #31
200030c6:	d8d1      	bhi.n	2000306c <_ntoa_format+0x9a>
200030c8:	3060      	adds	r0, #96	@ 0x60
200030ca:	54d0      	strb	r0, [r2, r3]
200030cc:	3301      	adds	r3, #1
200030ce:	e7c0      	b.n	20003052 <_ntoa_format+0x80>
200030d0:	0748      	lsls	r0, r1, #29
200030d2:	d503      	bpl.n	200030dc <_ntoa_format+0x10a>
200030d4:	202b      	movs	r0, #43	@ 0x2b
200030d6:	54d0      	strb	r0, [r2, r3]
200030d8:	3301      	adds	r3, #1
200030da:	e7c7      	b.n	2000306c <_ntoa_format+0x9a>
200030dc:	0708      	lsls	r0, r1, #28
200030de:	d5c5      	bpl.n	2000306c <_ntoa_format+0x9a>
200030e0:	2020      	movs	r0, #32
200030e2:	54d0      	strb	r0, [r2, r3]
200030e4:	3301      	adds	r3, #1
200030e6:	e7c1      	b.n	2000306c <_ntoa_format+0x9a>

200030e8 <_ntoa_long>:
200030e8:	b5f0      	push	{r4, r5, r6, r7, lr}
200030ea:	46de      	mov	lr, fp
200030ec:	4657      	mov	r7, sl
200030ee:	464e      	mov	r6, r9
200030f0:	4645      	mov	r5, r8
200030f2:	b5e0      	push	{r5, r6, r7, lr}
200030f4:	b093      	sub	sp, #76	@ 0x4c
200030f6:	4680      	mov	r8, r0
200030f8:	4689      	mov	r9, r1
200030fa:	4692      	mov	sl, r2
200030fc:	469b      	mov	fp, r3
200030fe:	ab1c      	add	r3, sp, #112	@ 0x70
20003100:	cb10      	ldmia	r3!, {r4}
20003102:	781b      	ldrb	r3, [r3, #0]
20003104:	9309      	str	r3, [sp, #36]	@ 0x24
20003106:	9d1e      	ldr	r5, [sp, #120]	@ 0x78
20003108:	2c00      	cmp	r4, #0
2000310a:	d103      	bne.n	20003114 <_ntoa_long+0x2c>
2000310c:	2310      	movs	r3, #16
2000310e:	9a21      	ldr	r2, [sp, #132]	@ 0x84
20003110:	439a      	bics	r2, r3
20003112:	9221      	str	r2, [sp, #132]	@ 0x84
20003114:	2380      	movs	r3, #128	@ 0x80
20003116:	00db      	lsls	r3, r3, #3
20003118:	9e21      	ldr	r6, [sp, #132]	@ 0x84
2000311a:	401e      	ands	r6, r3
2000311c:	9a21      	ldr	r2, [sp, #132]	@ 0x84
2000311e:	421a      	tst	r2, r3
20003120:	d018      	beq.n	20003154 <_ntoa_long+0x6c>
20003122:	2c00      	cmp	r4, #0
20003124:	d022      	beq.n	2000316c <_ntoa_long+0x84>
20003126:	2600      	movs	r6, #0
20003128:	e014      	b.n	20003154 <_ntoa_long+0x6c>
2000312a:	9a21      	ldr	r2, [sp, #132]	@ 0x84
2000312c:	0692      	lsls	r2, r2, #26
2000312e:	d51b      	bpl.n	20003168 <_ntoa_long+0x80>
20003130:	2141      	movs	r1, #65	@ 0x41
20003132:	18c9      	adds	r1, r1, r3
20003134:	b2c9      	uxtb	r1, r1
20003136:	390a      	subs	r1, #10
20003138:	b2c9      	uxtb	r1, r1
2000313a:	1c77      	adds	r7, r6, #1
2000313c:	ab0a      	add	r3, sp, #40	@ 0x28
2000313e:	5599      	strb	r1, [r3, r6]
20003140:	0029      	movs	r1, r5
20003142:	0020      	movs	r0, r4
20003144:	f7fe ffcc 	bl	200020e0 <__wrap___aeabi_uidiv>
20003148:	42ac      	cmp	r4, r5
2000314a:	d310      	bcc.n	2000316e <_ntoa_long+0x86>
2000314c:	2f1f      	cmp	r7, #31
2000314e:	d80e      	bhi.n	2000316e <_ntoa_long+0x86>
20003150:	003e      	movs	r6, r7
20003152:	0004      	movs	r4, r0
20003154:	0029      	movs	r1, r5
20003156:	0020      	movs	r0, r4
20003158:	f7fe ffc2 	bl	200020e0 <__wrap___aeabi_uidiv>
2000315c:	b2cb      	uxtb	r3, r1
2000315e:	2b09      	cmp	r3, #9
20003160:	d8e3      	bhi.n	2000312a <_ntoa_long+0x42>
20003162:	3330      	adds	r3, #48	@ 0x30
20003164:	b2d9      	uxtb	r1, r3
20003166:	e7e8      	b.n	2000313a <_ntoa_long+0x52>
20003168:	2161      	movs	r1, #97	@ 0x61
2000316a:	e7e2      	b.n	20003132 <_ntoa_long+0x4a>
2000316c:	0027      	movs	r7, r4
2000316e:	9b21      	ldr	r3, [sp, #132]	@ 0x84
20003170:	9306      	str	r3, [sp, #24]
20003172:	9b20      	ldr	r3, [sp, #128]	@ 0x80
20003174:	9305      	str	r3, [sp, #20]
20003176:	9b1f      	ldr	r3, [sp, #124]	@ 0x7c
20003178:	9304      	str	r3, [sp, #16]
2000317a:	9503      	str	r5, [sp, #12]
2000317c:	9b09      	ldr	r3, [sp, #36]	@ 0x24
2000317e:	9302      	str	r3, [sp, #8]
20003180:	9701      	str	r7, [sp, #4]
20003182:	ab0a      	add	r3, sp, #40	@ 0x28
20003184:	9300      	str	r3, [sp, #0]
20003186:	465b      	mov	r3, fp
20003188:	4652      	mov	r2, sl
2000318a:	4649      	mov	r1, r9
2000318c:	4640      	mov	r0, r8
2000318e:	f7ff ff20 	bl	20002fd2 <_ntoa_format>
20003192:	b013      	add	sp, #76	@ 0x4c
20003194:	bcf0      	pop	{r4, r5, r6, r7}
20003196:	46bb      	mov	fp, r7
20003198:	46b2      	mov	sl, r6
2000319a:	46a9      	mov	r9, r5
2000319c:	46a0      	mov	r8, r4
2000319e:	bdf0      	pop	{r4, r5, r6, r7, pc}

200031a0 <_ntoa_long_long>:
200031a0:	b5f0      	push	{r4, r5, r6, r7, lr}
200031a2:	46de      	mov	lr, fp
200031a4:	4657      	mov	r7, sl
200031a6:	464e      	mov	r6, r9
200031a8:	4645      	mov	r5, r8
200031aa:	b5e0      	push	{r5, r6, r7, lr}
200031ac:	b095      	sub	sp, #84	@ 0x54
200031ae:	4683      	mov	fp, r0
200031b0:	9108      	str	r1, [sp, #32]
200031b2:	9209      	str	r2, [sp, #36]	@ 0x24
200031b4:	930a      	str	r3, [sp, #40]	@ 0x28
200031b6:	9b1e      	ldr	r3, [sp, #120]	@ 0x78
200031b8:	4699      	mov	r9, r3
200031ba:	9f1f      	ldr	r7, [sp, #124]	@ 0x7c
200031bc:	ab20      	add	r3, sp, #128	@ 0x80
200031be:	781b      	ldrb	r3, [r3, #0]
200031c0:	930b      	str	r3, [sp, #44]	@ 0x2c
200031c2:	9b22      	ldr	r3, [sp, #136]	@ 0x88
200031c4:	4698      	mov	r8, r3
200031c6:	9c23      	ldr	r4, [sp, #140]	@ 0x8c
200031c8:	464b      	mov	r3, r9
200031ca:	433b      	orrs	r3, r7
200031cc:	d103      	bne.n	200031d6 <_ntoa_long_long+0x36>
200031ce:	3310      	adds	r3, #16
200031d0:	9a26      	ldr	r2, [sp, #152]	@ 0x98
200031d2:	439a      	bics	r2, r3
200031d4:	9226      	str	r2, [sp, #152]	@ 0x98
200031d6:	2380      	movs	r3, #128	@ 0x80
200031d8:	00db      	lsls	r3, r3, #3
200031da:	9d26      	ldr	r5, [sp, #152]	@ 0x98
200031dc:	401d      	ands	r5, r3
200031de:	9a26      	ldr	r2, [sp, #152]	@ 0x98
200031e0:	421a      	tst	r2, r3
200031e2:	d008      	beq.n	200031f6 <_ntoa_long_long+0x56>
200031e4:	464b      	mov	r3, r9
200031e6:	433b      	orrs	r3, r7
200031e8:	d039      	beq.n	2000325e <_ntoa_long_long+0xbe>
200031ea:	2500      	movs	r5, #0
200031ec:	464e      	mov	r6, r9
200031ee:	0023      	movs	r3, r4
200031f0:	002c      	movs	r4, r5
200031f2:	001d      	movs	r5, r3
200031f4:	e01f      	b.n	20003236 <_ntoa_long_long+0x96>
200031f6:	464e      	mov	r6, r9
200031f8:	0023      	movs	r3, r4
200031fa:	002c      	movs	r4, r5
200031fc:	001d      	movs	r5, r3
200031fe:	e01a      	b.n	20003236 <_ntoa_long_long+0x96>
20003200:	9a26      	ldr	r2, [sp, #152]	@ 0x98
20003202:	0692      	lsls	r2, r2, #26
20003204:	d523      	bpl.n	2000324e <_ntoa_long_long+0xae>
20003206:	2241      	movs	r2, #65	@ 0x41
20003208:	18d2      	adds	r2, r2, r3
2000320a:	b2d2      	uxtb	r2, r2
2000320c:	3a0a      	subs	r2, #10
2000320e:	b2d2      	uxtb	r2, r2
20003210:	1c63      	adds	r3, r4, #1
20003212:	469a      	mov	sl, r3
20003214:	ab0c      	add	r3, sp, #48	@ 0x30
20003216:	551a      	strb	r2, [r3, r4]
20003218:	4642      	mov	r2, r8
2000321a:	002b      	movs	r3, r5
2000321c:	0030      	movs	r0, r6
2000321e:	0039      	movs	r1, r7
20003220:	f7fe ff9c 	bl	2000215c <__wrap___aeabi_uldivmod>
20003224:	42bd      	cmp	r5, r7
20003226:	d81c      	bhi.n	20003262 <_ntoa_long_long+0xc2>
20003228:	d013      	beq.n	20003252 <_ntoa_long_long+0xb2>
2000322a:	4653      	mov	r3, sl
2000322c:	2b1f      	cmp	r3, #31
2000322e:	d814      	bhi.n	2000325a <_ntoa_long_long+0xba>
20003230:	4654      	mov	r4, sl
20003232:	0006      	movs	r6, r0
20003234:	000f      	movs	r7, r1
20003236:	4642      	mov	r2, r8
20003238:	002b      	movs	r3, r5
2000323a:	0030      	movs	r0, r6
2000323c:	0039      	movs	r1, r7
2000323e:	f7fe ff8d 	bl	2000215c <__wrap___aeabi_uldivmod>
20003242:	b2d3      	uxtb	r3, r2
20003244:	2b09      	cmp	r3, #9
20003246:	d8db      	bhi.n	20003200 <_ntoa_long_long+0x60>
20003248:	3330      	adds	r3, #48	@ 0x30
2000324a:	b2da      	uxtb	r2, r3
2000324c:	e7e0      	b.n	20003210 <_ntoa_long_long+0x70>
2000324e:	2261      	movs	r2, #97	@ 0x61
20003250:	e7da      	b.n	20003208 <_ntoa_long_long+0x68>
20003252:	45b0      	cmp	r8, r6
20003254:	d9e9      	bls.n	2000322a <_ntoa_long_long+0x8a>
20003256:	4656      	mov	r6, sl
20003258:	e004      	b.n	20003264 <_ntoa_long_long+0xc4>
2000325a:	4656      	mov	r6, sl
2000325c:	e002      	b.n	20003264 <_ntoa_long_long+0xc4>
2000325e:	2600      	movs	r6, #0
20003260:	e000      	b.n	20003264 <_ntoa_long_long+0xc4>
20003262:	4656      	mov	r6, sl
20003264:	9b26      	ldr	r3, [sp, #152]	@ 0x98
20003266:	9306      	str	r3, [sp, #24]
20003268:	9b25      	ldr	r3, [sp, #148]	@ 0x94
2000326a:	9305      	str	r3, [sp, #20]
2000326c:	9b24      	ldr	r3, [sp, #144]	@ 0x90
2000326e:	9304      	str	r3, [sp, #16]
20003270:	4643      	mov	r3, r8
20003272:	9303      	str	r3, [sp, #12]
20003274:	9b0b      	ldr	r3, [sp, #44]	@ 0x2c
20003276:	9302      	str	r3, [sp, #8]
20003278:	9601      	str	r6, [sp, #4]
2000327a:	ab0c      	add	r3, sp, #48	@ 0x30
2000327c:	9300      	str	r3, [sp, #0]
2000327e:	9b0a      	ldr	r3, [sp, #40]	@ 0x28
20003280:	9a09      	ldr	r2, [sp, #36]	@ 0x24
20003282:	9908      	ldr	r1, [sp, #32]
20003284:	4658      	mov	r0, fp
20003286:	f7ff fea4 	bl	20002fd2 <_ntoa_format>
2000328a:	b015      	add	sp, #84	@ 0x54
2000328c:	bcf0      	pop	{r4, r5, r6, r7}
2000328e:	46bb      	mov	fp, r7
20003290:	46b2      	mov	sl, r6
20003292:	46a9      	mov	r9, r5
20003294:	46a0      	mov	r8, r4
20003296:	bdf0      	pop	{r4, r5, r6, r7, pc}

20003298 <_etoa>:
20003298:	b5f0      	push	{r4, r5, r6, r7, lr}
2000329a:	46de      	mov	lr, fp
2000329c:	4657      	mov	r7, sl
2000329e:	464e      	mov	r6, r9
200032a0:	4645      	mov	r5, r8
200032a2:	b5e0      	push	{r5, r6, r7, lr}
200032a4:	b095      	sub	sp, #84	@ 0x54
200032a6:	0004      	movs	r4, r0
200032a8:	468a      	mov	sl, r1
200032aa:	4693      	mov	fp, r2
200032ac:	4699      	mov	r9, r3
200032ae:	9e1e      	ldr	r6, [sp, #120]	@ 0x78
200032b0:	9f1f      	ldr	r7, [sp, #124]	@ 0x7c
200032b2:	0032      	movs	r2, r6
200032b4:	003b      	movs	r3, r7
200032b6:	0030      	movs	r0, r6
200032b8:	0039      	movs	r1, r7
200032ba:	f7ff f9da 	bl	20002672 <__wrap___aeabi_dcmpun>
200032be:	2800      	cmp	r0, #0
200032c0:	d000      	beq.n	200032c4 <_etoa+0x2c>
200032c2:	e0fb      	b.n	200034bc <_etoa+0x224>
200032c4:	2201      	movs	r2, #1
200032c6:	4252      	negs	r2, r2
200032c8:	4bd6      	ldr	r3, [pc, #856]	@ (20003624 <_etoa+0x38c>)
200032ca:	0030      	movs	r0, r6
200032cc:	0039      	movs	r1, r7
200032ce:	f7ff f9cb 	bl	20002668 <__wrap___aeabi_dcmpgt>
200032d2:	2800      	cmp	r0, #0
200032d4:	d000      	beq.n	200032d8 <_etoa+0x40>
200032d6:	e0f1      	b.n	200034bc <_etoa+0x224>
200032d8:	2201      	movs	r2, #1
200032da:	4252      	negs	r2, r2
200032dc:	4bd2      	ldr	r3, [pc, #840]	@ (20003628 <_etoa+0x390>)
200032de:	0030      	movs	r0, r6
200032e0:	0039      	movs	r1, r7
200032e2:	f7ff f9ab 	bl	2000263c <__wrap___aeabi_dcmplt>
200032e6:	2800      	cmp	r0, #0
200032e8:	d000      	beq.n	200032ec <_etoa+0x54>
200032ea:	e0e7      	b.n	200034bc <_etoa+0x224>
200032ec:	2200      	movs	r2, #0
200032ee:	2300      	movs	r3, #0
200032f0:	0030      	movs	r0, r6
200032f2:	0039      	movs	r1, r7
200032f4:	f7ff f9a2 	bl	2000263c <__wrap___aeabi_dcmplt>
200032f8:	2800      	cmp	r0, #0
200032fa:	d000      	beq.n	200032fe <_etoa+0x66>
200032fc:	e0f3      	b.n	200034e6 <_etoa+0x24e>
200032fe:	9606      	str	r6, [sp, #24]
20003300:	9707      	str	r7, [sp, #28]
20003302:	2380      	movs	r3, #128	@ 0x80
20003304:	00db      	lsls	r3, r3, #3
20003306:	9a22      	ldr	r2, [sp, #136]	@ 0x88
20003308:	401a      	ands	r2, r3
2000330a:	9211      	str	r2, [sp, #68]	@ 0x44
2000330c:	9a22      	ldr	r2, [sp, #136]	@ 0x88
2000330e:	421a      	tst	r2, r3
20003310:	d101      	bne.n	20003316 <_etoa+0x7e>
20003312:	2306      	movs	r3, #6
20003314:	9320      	str	r3, [sp, #128]	@ 0x80
20003316:	9806      	ldr	r0, [sp, #24]
20003318:	9907      	ldr	r1, [sp, #28]
2000331a:	0002      	movs	r2, r0
2000331c:	000b      	movs	r3, r1
2000331e:	920a      	str	r2, [sp, #40]	@ 0x28
20003320:	930b      	str	r3, [sp, #44]	@ 0x2c
20003322:	0003      	movs	r3, r0
20003324:	000a      	movs	r2, r1
20003326:	4302      	orrs	r2, r0
20003328:	d100      	bne.n	2000332c <_etoa+0x94>
2000332a:	e0e8      	b.n	200034fe <_etoa+0x266>
2000332c:	0d08      	lsrs	r0, r1, #20
2000332e:	0540      	lsls	r0, r0, #21
20003330:	0d40      	lsrs	r0, r0, #21
20003332:	4dbe      	ldr	r5, [pc, #760]	@ (2000362c <_etoa+0x394>)
20003334:	46ac      	mov	ip, r5
20003336:	4460      	add	r0, ip
20003338:	0005      	movs	r5, r0
2000333a:	9807      	ldr	r0, [sp, #28]
2000333c:	0302      	lsls	r2, r0, #12
2000333e:	0b12      	lsrs	r2, r2, #12
20003340:	2000      	movs	r0, #0
20003342:	2100      	movs	r1, #0
20003344:	9008      	str	r0, [sp, #32]
20003346:	9109      	str	r1, [sp, #36]	@ 0x24
20003348:	9308      	str	r3, [sp, #32]
2000334a:	4bb9      	ldr	r3, [pc, #740]	@ (20003630 <_etoa+0x398>)
2000334c:	4313      	orrs	r3, r2
2000334e:	9309      	str	r3, [sp, #36]	@ 0x24
20003350:	0028      	movs	r0, r5
20003352:	f7ff f99f 	bl	20002694 <__wrap___aeabi_i2d>
20003356:	4ab7      	ldr	r2, [pc, #732]	@ (20003634 <_etoa+0x39c>)
20003358:	4bb7      	ldr	r3, [pc, #732]	@ (20003638 <_etoa+0x3a0>)
2000335a:	f7ff f92c 	bl	200025b6 <__wrap___aeabi_dmul>
2000335e:	4ab7      	ldr	r2, [pc, #732]	@ (2000363c <_etoa+0x3a4>)
20003360:	4bb7      	ldr	r3, [pc, #732]	@ (20003640 <_etoa+0x3a8>)
20003362:	f7ff f901 	bl	20002568 <__wrap___aeabi_dadd>
20003366:	900a      	str	r0, [sp, #40]	@ 0x28
20003368:	910b      	str	r1, [sp, #44]	@ 0x2c
2000336a:	2200      	movs	r2, #0
2000336c:	4bb5      	ldr	r3, [pc, #724]	@ (20003644 <_etoa+0x3ac>)
2000336e:	9808      	ldr	r0, [sp, #32]
20003370:	9909      	ldr	r1, [sp, #36]	@ 0x24
20003372:	f7ff f8f0 	bl	20002556 <__wrap___aeabi_dsub>
20003376:	4ab4      	ldr	r2, [pc, #720]	@ (20003648 <_etoa+0x3b0>)
20003378:	4bb4      	ldr	r3, [pc, #720]	@ (2000364c <_etoa+0x3b4>)
2000337a:	f7ff f91c 	bl	200025b6 <__wrap___aeabi_dmul>
2000337e:	0002      	movs	r2, r0
20003380:	000b      	movs	r3, r1
20003382:	980a      	ldr	r0, [sp, #40]	@ 0x28
20003384:	990b      	ldr	r1, [sp, #44]	@ 0x2c
20003386:	f7ff f8ef 	bl	20002568 <__wrap___aeabi_dadd>
2000338a:	f7ff f99b 	bl	200026c4 <__wrap___aeabi_d2iz>
2000338e:	4680      	mov	r8, r0
20003390:	9008      	str	r0, [sp, #32]
20003392:	f7ff f97f 	bl	20002694 <__wrap___aeabi_i2d>
20003396:	4aae      	ldr	r2, [pc, #696]	@ (20003650 <_etoa+0x3b8>)
20003398:	4bae      	ldr	r3, [pc, #696]	@ (20003654 <_etoa+0x3bc>)
2000339a:	900a      	str	r0, [sp, #40]	@ 0x28
2000339c:	910b      	str	r1, [sp, #44]	@ 0x2c
2000339e:	f7ff f90a 	bl	200025b6 <__wrap___aeabi_dmul>
200033a2:	2200      	movs	r2, #0
200033a4:	4bac      	ldr	r3, [pc, #688]	@ (20003658 <_etoa+0x3c0>)
200033a6:	f7ff f8df 	bl	20002568 <__wrap___aeabi_dadd>
200033aa:	f7ff f98b 	bl	200026c4 <__wrap___aeabi_d2iz>
200033ae:	0005      	movs	r5, r0
200033b0:	4aaa      	ldr	r2, [pc, #680]	@ (2000365c <_etoa+0x3c4>)
200033b2:	4bab      	ldr	r3, [pc, #684]	@ (20003660 <_etoa+0x3c8>)
200033b4:	980a      	ldr	r0, [sp, #40]	@ 0x28
200033b6:	990b      	ldr	r1, [sp, #44]	@ 0x2c
200033b8:	f7ff f8fd 	bl	200025b6 <__wrap___aeabi_dmul>
200033bc:	900a      	str	r0, [sp, #40]	@ 0x28
200033be:	910b      	str	r1, [sp, #44]	@ 0x2c
200033c0:	0028      	movs	r0, r5
200033c2:	f7ff f967 	bl	20002694 <__wrap___aeabi_i2d>
200033c6:	4aa7      	ldr	r2, [pc, #668]	@ (20003664 <_etoa+0x3cc>)
200033c8:	4ba7      	ldr	r3, [pc, #668]	@ (20003668 <_etoa+0x3d0>)
200033ca:	f7ff f8f4 	bl	200025b6 <__wrap___aeabi_dmul>
200033ce:	0002      	movs	r2, r0
200033d0:	000b      	movs	r3, r1
200033d2:	980a      	ldr	r0, [sp, #40]	@ 0x28
200033d4:	990b      	ldr	r1, [sp, #44]	@ 0x2c
200033d6:	f7ff f8be 	bl	20002556 <__wrap___aeabi_dsub>
200033da:	0002      	movs	r2, r0
200033dc:	000b      	movs	r3, r1
200033de:	900a      	str	r0, [sp, #40]	@ 0x28
200033e0:	910b      	str	r1, [sp, #44]	@ 0x2c
200033e2:	f7ff f8e8 	bl	200025b6 <__wrap___aeabi_dmul>
200033e6:	900e      	str	r0, [sp, #56]	@ 0x38
200033e8:	910f      	str	r1, [sp, #60]	@ 0x3c
200033ea:	002b      	movs	r3, r5
200033ec:	4d9f      	ldr	r5, [pc, #636]	@ (2000366c <_etoa+0x3d4>)
200033ee:	46ac      	mov	ip, r5
200033f0:	4463      	add	r3, ip
200033f2:	2100      	movs	r1, #0
200033f4:	2200      	movs	r2, #0
200033f6:	910c      	str	r1, [sp, #48]	@ 0x30
200033f8:	920d      	str	r2, [sp, #52]	@ 0x34
200033fa:	051b      	lsls	r3, r3, #20
200033fc:	930d      	str	r3, [sp, #52]	@ 0x34
200033fe:	2300      	movs	r3, #0
20003400:	930c      	str	r3, [sp, #48]	@ 0x30
20003402:	980a      	ldr	r0, [sp, #40]	@ 0x28
20003404:	990b      	ldr	r1, [sp, #44]	@ 0x2c
20003406:	0002      	movs	r2, r0
20003408:	000b      	movs	r3, r1
2000340a:	f7ff f8ad 	bl	20002568 <__wrap___aeabi_dadd>
2000340e:	9012      	str	r0, [sp, #72]	@ 0x48
20003410:	9113      	str	r1, [sp, #76]	@ 0x4c
20003412:	9a0a      	ldr	r2, [sp, #40]	@ 0x28
20003414:	9b0b      	ldr	r3, [sp, #44]	@ 0x2c
20003416:	2000      	movs	r0, #0
20003418:	2180      	movs	r1, #128	@ 0x80
2000341a:	05c9      	lsls	r1, r1, #23
2000341c:	f7ff f89b 	bl	20002556 <__wrap___aeabi_dsub>
20003420:	900a      	str	r0, [sp, #40]	@ 0x28
20003422:	910b      	str	r1, [sp, #44]	@ 0x2c
20003424:	2200      	movs	r2, #0
20003426:	4b92      	ldr	r3, [pc, #584]	@ (20003670 <_etoa+0x3d8>)
20003428:	980e      	ldr	r0, [sp, #56]	@ 0x38
2000342a:	990f      	ldr	r1, [sp, #60]	@ 0x3c
2000342c:	f7ff f8a5 	bl	2000257a <__wrap___aeabi_ddiv>
20003430:	2200      	movs	r2, #0
20003432:	4b90      	ldr	r3, [pc, #576]	@ (20003674 <_etoa+0x3dc>)
20003434:	f7ff f898 	bl	20002568 <__wrap___aeabi_dadd>
20003438:	0002      	movs	r2, r0
2000343a:	000b      	movs	r3, r1
2000343c:	980e      	ldr	r0, [sp, #56]	@ 0x38
2000343e:	990f      	ldr	r1, [sp, #60]	@ 0x3c
20003440:	f7ff f89b 	bl	2000257a <__wrap___aeabi_ddiv>
20003444:	2200      	movs	r2, #0
20003446:	4b8c      	ldr	r3, [pc, #560]	@ (20003678 <_etoa+0x3e0>)
20003448:	f7ff f88e 	bl	20002568 <__wrap___aeabi_dadd>
2000344c:	0002      	movs	r2, r0
2000344e:	000b      	movs	r3, r1
20003450:	980e      	ldr	r0, [sp, #56]	@ 0x38
20003452:	990f      	ldr	r1, [sp, #60]	@ 0x3c
20003454:	f7ff f891 	bl	2000257a <__wrap___aeabi_ddiv>
20003458:	0002      	movs	r2, r0
2000345a:	000b      	movs	r3, r1
2000345c:	980a      	ldr	r0, [sp, #40]	@ 0x28
2000345e:	990b      	ldr	r1, [sp, #44]	@ 0x2c
20003460:	f7ff f882 	bl	20002568 <__wrap___aeabi_dadd>
20003464:	0002      	movs	r2, r0
20003466:	000b      	movs	r3, r1
20003468:	9812      	ldr	r0, [sp, #72]	@ 0x48
2000346a:	9913      	ldr	r1, [sp, #76]	@ 0x4c
2000346c:	f7ff f885 	bl	2000257a <__wrap___aeabi_ddiv>
20003470:	2200      	movs	r2, #0
20003472:	4b6f      	ldr	r3, [pc, #444]	@ (20003630 <_etoa+0x398>)
20003474:	f7ff f878 	bl	20002568 <__wrap___aeabi_dadd>
20003478:	9a0c      	ldr	r2, [sp, #48]	@ 0x30
2000347a:	9b0d      	ldr	r3, [sp, #52]	@ 0x34
2000347c:	f7ff f89b 	bl	200025b6 <__wrap___aeabi_dmul>
20003480:	0002      	movs	r2, r0
20003482:	000b      	movs	r3, r1
20003484:	920a      	str	r2, [sp, #40]	@ 0x28
20003486:	930b      	str	r3, [sp, #44]	@ 0x2c
20003488:	9a06      	ldr	r2, [sp, #24]
2000348a:	9b07      	ldr	r3, [sp, #28]
2000348c:	900c      	str	r0, [sp, #48]	@ 0x30
2000348e:	910d      	str	r1, [sp, #52]	@ 0x34
20003490:	f7ff f8ea 	bl	20002668 <__wrap___aeabi_dcmpgt>
20003494:	2800      	cmp	r0, #0
20003496:	d00a      	beq.n	200034ae <_etoa+0x216>
20003498:	4643      	mov	r3, r8
2000349a:	3b01      	subs	r3, #1
2000349c:	9308      	str	r3, [sp, #32]
2000349e:	2200      	movs	r2, #0
200034a0:	4b74      	ldr	r3, [pc, #464]	@ (20003674 <_etoa+0x3dc>)
200034a2:	980c      	ldr	r0, [sp, #48]	@ 0x30
200034a4:	990d      	ldr	r1, [sp, #52]	@ 0x34
200034a6:	f7ff f868 	bl	2000257a <__wrap___aeabi_ddiv>
200034aa:	900a      	str	r0, [sp, #40]	@ 0x28
200034ac:	910b      	str	r1, [sp, #44]	@ 0x2c
200034ae:	9b08      	ldr	r3, [sp, #32]
200034b0:	3363      	adds	r3, #99	@ 0x63
200034b2:	2bc6      	cmp	r3, #198	@ 0xc6
200034b4:	d849      	bhi.n	2000354a <_etoa+0x2b2>
200034b6:	2304      	movs	r3, #4
200034b8:	001d      	movs	r5, r3
200034ba:	e024      	b.n	20003506 <_etoa+0x26e>
200034bc:	9b22      	ldr	r3, [sp, #136]	@ 0x88
200034be:	9304      	str	r3, [sp, #16]
200034c0:	9b21      	ldr	r3, [sp, #132]	@ 0x84
200034c2:	9303      	str	r3, [sp, #12]
200034c4:	9b20      	ldr	r3, [sp, #128]	@ 0x80
200034c6:	9302      	str	r3, [sp, #8]
200034c8:	9600      	str	r6, [sp, #0]
200034ca:	9701      	str	r7, [sp, #4]
200034cc:	464b      	mov	r3, r9
200034ce:	465a      	mov	r2, fp
200034d0:	4651      	mov	r1, sl
200034d2:	0020      	movs	r0, r4
200034d4:	f000 f904 	bl	200036e0 <_ftoa>
200034d8:	b015      	add	sp, #84	@ 0x54
200034da:	bcf0      	pop	{r4, r5, r6, r7}
200034dc:	46bb      	mov	fp, r7
200034de:	46b2      	mov	sl, r6
200034e0:	46a9      	mov	r9, r5
200034e2:	46a0      	mov	r8, r4
200034e4:	bdf0      	pop	{r4, r5, r6, r7, pc}
200034e6:	2100      	movs	r1, #0
200034e8:	2200      	movs	r2, #0
200034ea:	9106      	str	r1, [sp, #24]
200034ec:	9207      	str	r2, [sp, #28]
200034ee:	9606      	str	r6, [sp, #24]
200034f0:	2380      	movs	r3, #128	@ 0x80
200034f2:	061b      	lsls	r3, r3, #24
200034f4:	469c      	mov	ip, r3
200034f6:	44bc      	add	ip, r7
200034f8:	4663      	mov	r3, ip
200034fa:	9307      	str	r3, [sp, #28]
200034fc:	e701      	b.n	20003302 <_etoa+0x6a>
200034fe:	2300      	movs	r3, #0
20003500:	9308      	str	r3, [sp, #32]
20003502:	3304      	adds	r3, #4
20003504:	001d      	movs	r5, r3
20003506:	9b22      	ldr	r3, [sp, #136]	@ 0x88
20003508:	051b      	lsls	r3, r3, #20
2000350a:	d52b      	bpl.n	20003564 <_etoa+0x2cc>
2000350c:	9a0a      	ldr	r2, [sp, #40]	@ 0x28
2000350e:	9b0b      	ldr	r3, [sp, #44]	@ 0x2c
20003510:	0019      	movs	r1, r3
20003512:	4311      	orrs	r1, r2
20003514:	d011      	beq.n	2000353a <_etoa+0x2a2>
20003516:	4a59      	ldr	r2, [pc, #356]	@ (2000367c <_etoa+0x3e4>)
20003518:	4b59      	ldr	r3, [pc, #356]	@ (20003680 <_etoa+0x3e8>)
2000351a:	9806      	ldr	r0, [sp, #24]
2000351c:	9907      	ldr	r1, [sp, #28]
2000351e:	f7ff f89b 	bl	20002658 <__wrap___aeabi_dcmpge>
20003522:	2800      	cmp	r0, #0
20003524:	d100      	bne.n	20003528 <_etoa+0x290>
20003526:	e0b1      	b.n	2000368c <_etoa+0x3f4>
20003528:	2200      	movs	r2, #0
2000352a:	4b56      	ldr	r3, [pc, #344]	@ (20003684 <_etoa+0x3ec>)
2000352c:	9806      	ldr	r0, [sp, #24]
2000352e:	9907      	ldr	r1, [sp, #28]
20003530:	f7ff f884 	bl	2000263c <__wrap___aeabi_dcmplt>
20003534:	2800      	cmp	r0, #0
20003536:	d100      	bne.n	2000353a <_etoa+0x2a2>
20003538:	e0a8      	b.n	2000368c <_etoa+0x3f4>
2000353a:	9a20      	ldr	r2, [sp, #128]	@ 0x80
2000353c:	9b08      	ldr	r3, [sp, #32]
2000353e:	429a      	cmp	r2, r3
20003540:	dd06      	ble.n	20003550 <_etoa+0x2b8>
20003542:	1ad3      	subs	r3, r2, r3
20003544:	3b01      	subs	r3, #1
20003546:	9320      	str	r3, [sp, #128]	@ 0x80
20003548:	e004      	b.n	20003554 <_etoa+0x2bc>
2000354a:	2305      	movs	r3, #5
2000354c:	001d      	movs	r5, r3
2000354e:	e7da      	b.n	20003506 <_etoa+0x26e>
20003550:	2300      	movs	r3, #0
20003552:	9320      	str	r3, [sp, #128]	@ 0x80
20003554:	2380      	movs	r3, #128	@ 0x80
20003556:	00db      	lsls	r3, r3, #3
20003558:	9a22      	ldr	r2, [sp, #136]	@ 0x88
2000355a:	431a      	orrs	r2, r3
2000355c:	9222      	str	r2, [sp, #136]	@ 0x88
2000355e:	2300      	movs	r3, #0
20003560:	001d      	movs	r5, r3
20003562:	9308      	str	r3, [sp, #32]
20003564:	9a21      	ldr	r2, [sp, #132]	@ 0x84
20003566:	4295      	cmp	r5, r2
20003568:	d300      	bcc.n	2000356c <_etoa+0x2d4>
2000356a:	e09b      	b.n	200036a4 <_etoa+0x40c>
2000356c:	1b53      	subs	r3, r2, r5
2000356e:	4698      	mov	r8, r3
20003570:	2302      	movs	r3, #2
20003572:	9a22      	ldr	r2, [sp, #136]	@ 0x88
20003574:	401a      	ands	r2, r3
20003576:	920c      	str	r2, [sp, #48]	@ 0x30
20003578:	9a22      	ldr	r2, [sp, #136]	@ 0x88
2000357a:	4213      	tst	r3, r2
2000357c:	d003      	beq.n	20003586 <_etoa+0x2ee>
2000357e:	2d00      	cmp	r5, #0
20003580:	d001      	beq.n	20003586 <_etoa+0x2ee>
20003582:	2300      	movs	r3, #0
20003584:	4698      	mov	r8, r3
20003586:	9b08      	ldr	r3, [sp, #32]
20003588:	2b00      	cmp	r3, #0
2000358a:	d007      	beq.n	2000359c <_etoa+0x304>
2000358c:	9a0a      	ldr	r2, [sp, #40]	@ 0x28
2000358e:	9b0b      	ldr	r3, [sp, #44]	@ 0x2c
20003590:	9806      	ldr	r0, [sp, #24]
20003592:	9907      	ldr	r1, [sp, #28]
20003594:	f7fe fff1 	bl	2000257a <__wrap___aeabi_ddiv>
20003598:	9006      	str	r0, [sp, #24]
2000359a:	9107      	str	r1, [sp, #28]
2000359c:	2200      	movs	r2, #0
2000359e:	2300      	movs	r3, #0
200035a0:	0030      	movs	r0, r6
200035a2:	0039      	movs	r1, r7
200035a4:	f7ff f84a 	bl	2000263c <__wrap___aeabi_dcmplt>
200035a8:	2800      	cmp	r0, #0
200035aa:	d000      	beq.n	200035ae <_etoa+0x316>
200035ac:	e07d      	b.n	200036aa <_etoa+0x412>
200035ae:	4b36      	ldr	r3, [pc, #216]	@ (20003688 <_etoa+0x3f0>)
200035b0:	9a22      	ldr	r2, [sp, #136]	@ 0x88
200035b2:	4013      	ands	r3, r2
200035b4:	9304      	str	r3, [sp, #16]
200035b6:	4643      	mov	r3, r8
200035b8:	9303      	str	r3, [sp, #12]
200035ba:	9b20      	ldr	r3, [sp, #128]	@ 0x80
200035bc:	9302      	str	r3, [sp, #8]
200035be:	9a06      	ldr	r2, [sp, #24]
200035c0:	9b07      	ldr	r3, [sp, #28]
200035c2:	9200      	str	r2, [sp, #0]
200035c4:	9301      	str	r3, [sp, #4]
200035c6:	464b      	mov	r3, r9
200035c8:	465a      	mov	r2, fp
200035ca:	4651      	mov	r1, sl
200035cc:	0020      	movs	r0, r4
200035ce:	f000 f887 	bl	200036e0 <_ftoa>
200035d2:	2d00      	cmp	r5, #0
200035d4:	d100      	bne.n	200035d8 <_etoa+0x340>
200035d6:	e77f      	b.n	200034d8 <_etoa+0x240>
200035d8:	9b22      	ldr	r3, [sp, #136]	@ 0x88
200035da:	069b      	lsls	r3, r3, #26
200035dc:	d571      	bpl.n	200036c2 <_etoa+0x42a>
200035de:	2745      	movs	r7, #69	@ 0x45
200035e0:	1c46      	adds	r6, r0, #1
200035e2:	464b      	mov	r3, r9
200035e4:	0002      	movs	r2, r0
200035e6:	4651      	mov	r1, sl
200035e8:	0038      	movs	r0, r7
200035ea:	47a0      	blx	r4
200035ec:	9808      	ldr	r0, [sp, #32]
200035ee:	17c3      	asrs	r3, r0, #31
200035f0:	18c2      	adds	r2, r0, r3
200035f2:	405a      	eors	r2, r3
200035f4:	2305      	movs	r3, #5
200035f6:	9305      	str	r3, [sp, #20]
200035f8:	3d01      	subs	r5, #1
200035fa:	9504      	str	r5, [sp, #16]
200035fc:	2300      	movs	r3, #0
200035fe:	9303      	str	r3, [sp, #12]
20003600:	330a      	adds	r3, #10
20003602:	9302      	str	r3, [sp, #8]
20003604:	0fc3      	lsrs	r3, r0, #31
20003606:	9301      	str	r3, [sp, #4]
20003608:	9200      	str	r2, [sp, #0]
2000360a:	464b      	mov	r3, r9
2000360c:	0032      	movs	r2, r6
2000360e:	4651      	mov	r1, sl
20003610:	0020      	movs	r0, r4
20003612:	f7ff fd69 	bl	200030e8 <_ntoa_long>
20003616:	9b0c      	ldr	r3, [sp, #48]	@ 0x30
20003618:	2b00      	cmp	r3, #0
2000361a:	d100      	bne.n	2000361e <_etoa+0x386>
2000361c:	e75c      	b.n	200034d8 <_etoa+0x240>
2000361e:	0002      	movs	r2, r0
20003620:	9f21      	ldr	r7, [sp, #132]	@ 0x84
20003622:	e056      	b.n	200036d2 <_etoa+0x43a>
20003624:	7fefffff 	.word	0x7fefffff
20003628:	ffefffff 	.word	0xffefffff
2000362c:	fffffc01 	.word	0xfffffc01
20003630:	3ff00000 	.word	0x3ff00000
20003634:	509f79fb 	.word	0x509f79fb
20003638:	3fd34413 	.word	0x3fd34413
2000363c:	8b60c8b3 	.word	0x8b60c8b3
20003640:	3fc68a28 	.word	0x3fc68a28
20003644:	3ff80000 	.word	0x3ff80000
20003648:	636f4361 	.word	0x636f4361
2000364c:	3fd287a7 	.word	0x3fd287a7
20003650:	0979a371 	.word	0x0979a371
20003654:	400a934f 	.word	0x400a934f
20003658:	3fe00000 	.word	0x3fe00000
2000365c:	bbb55516 	.word	0xbbb55516
20003660:	40026bb1 	.word	0x40026bb1
20003664:	fefa39ef 	.word	0xfefa39ef
20003668:	3fe62e42 	.word	0x3fe62e42
2000366c:	000003ff 	.word	0x000003ff
20003670:	402c0000 	.word	0x402c0000
20003674:	40240000 	.word	0x40240000
20003678:	40180000 	.word	0x40180000
2000367c:	eb1c432d 	.word	0xeb1c432d
20003680:	3f1a36e2 	.word	0x3f1a36e2
20003684:	412e8480 	.word	0x412e8480
20003688:	fffff7ff 	.word	0xfffff7ff
2000368c:	9b20      	ldr	r3, [sp, #128]	@ 0x80
2000368e:	2b00      	cmp	r3, #0
20003690:	d100      	bne.n	20003694 <_etoa+0x3fc>
20003692:	e767      	b.n	20003564 <_etoa+0x2cc>
20003694:	9b11      	ldr	r3, [sp, #68]	@ 0x44
20003696:	2b00      	cmp	r3, #0
20003698:	d100      	bne.n	2000369c <_etoa+0x404>
2000369a:	e763      	b.n	20003564 <_etoa+0x2cc>
2000369c:	9b20      	ldr	r3, [sp, #128]	@ 0x80
2000369e:	3b01      	subs	r3, #1
200036a0:	9320      	str	r3, [sp, #128]	@ 0x80
200036a2:	e75f      	b.n	20003564 <_etoa+0x2cc>
200036a4:	2300      	movs	r3, #0
200036a6:	4698      	mov	r8, r3
200036a8:	e762      	b.n	20003570 <_etoa+0x2d8>
200036aa:	9e06      	ldr	r6, [sp, #24]
200036ac:	9f07      	ldr	r7, [sp, #28]
200036ae:	0032      	movs	r2, r6
200036b0:	0039      	movs	r1, r7
200036b2:	2080      	movs	r0, #128	@ 0x80
200036b4:	0600      	lsls	r0, r0, #24
200036b6:	4684      	mov	ip, r0
200036b8:	4461      	add	r1, ip
200036ba:	000b      	movs	r3, r1
200036bc:	9206      	str	r2, [sp, #24]
200036be:	9307      	str	r3, [sp, #28]
200036c0:	e775      	b.n	200035ae <_etoa+0x316>
200036c2:	2765      	movs	r7, #101	@ 0x65
200036c4:	e78c      	b.n	200035e0 <_etoa+0x348>
200036c6:	1c56      	adds	r6, r2, #1
200036c8:	464b      	mov	r3, r9
200036ca:	4651      	mov	r1, sl
200036cc:	2020      	movs	r0, #32
200036ce:	47a0      	blx	r4
200036d0:	0032      	movs	r2, r6
200036d2:	465b      	mov	r3, fp
200036d4:	1ad3      	subs	r3, r2, r3
200036d6:	42bb      	cmp	r3, r7
200036d8:	d3f5      	bcc.n	200036c6 <_etoa+0x42e>
200036da:	0010      	movs	r0, r2
200036dc:	e6fc      	b.n	200034d8 <_etoa+0x240>
200036de:	46c0      	nop			@ (mov r8, r8)

200036e0 <_ftoa>:
200036e0:	b5f0      	push	{r4, r5, r6, r7, lr}
200036e2:	46de      	mov	lr, fp
200036e4:	4657      	mov	r7, sl
200036e6:	464e      	mov	r6, r9
200036e8:	4645      	mov	r5, r8
200036ea:	b5e0      	push	{r5, r6, r7, lr}
200036ec:	b095      	sub	sp, #84	@ 0x54
200036ee:	4681      	mov	r9, r0
200036f0:	468a      	mov	sl, r1
200036f2:	4693      	mov	fp, r2
200036f4:	930a      	str	r3, [sp, #40]	@ 0x28
200036f6:	9f20      	ldr	r7, [sp, #128]	@ 0x80
200036f8:	9a1e      	ldr	r2, [sp, #120]	@ 0x78
200036fa:	9b1f      	ldr	r3, [sp, #124]	@ 0x7c
200036fc:	0010      	movs	r0, r2
200036fe:	0019      	movs	r1, r3
20003700:	f7fe ffb7 	bl	20002672 <__wrap___aeabi_dcmpun>
20003704:	2800      	cmp	r0, #0
20003706:	d131      	bne.n	2000376c <_ftoa+0x8c>
20003708:	2201      	movs	r2, #1
2000370a:	4252      	negs	r2, r2
2000370c:	4bba      	ldr	r3, [pc, #744]	@ (200039f8 <_ftoa+0x318>)
2000370e:	981e      	ldr	r0, [sp, #120]	@ 0x78
20003710:	991f      	ldr	r1, [sp, #124]	@ 0x7c
20003712:	f7fe ff93 	bl	2000263c <__wrap___aeabi_dcmplt>
20003716:	2800      	cmp	r0, #0
20003718:	d137      	bne.n	2000378a <_ftoa+0xaa>
2000371a:	2201      	movs	r2, #1
2000371c:	4252      	negs	r2, r2
2000371e:	4bb7      	ldr	r3, [pc, #732]	@ (200039fc <_ftoa+0x31c>)
20003720:	981e      	ldr	r0, [sp, #120]	@ 0x78
20003722:	991f      	ldr	r1, [sp, #124]	@ 0x7c
20003724:	f7fe ffa0 	bl	20002668 <__wrap___aeabi_dcmpgt>
20003728:	2800      	cmp	r0, #0
2000372a:	d13d      	bne.n	200037a8 <_ftoa+0xc8>
2000372c:	2200      	movs	r2, #0
2000372e:	4bb4      	ldr	r3, [pc, #720]	@ (20003a00 <_ftoa+0x320>)
20003730:	981e      	ldr	r0, [sp, #120]	@ 0x78
20003732:	991f      	ldr	r1, [sp, #124]	@ 0x7c
20003734:	f7fe ff98 	bl	20002668 <__wrap___aeabi_dcmpgt>
20003738:	2800      	cmp	r0, #0
2000373a:	d14a      	bne.n	200037d2 <_ftoa+0xf2>
2000373c:	2200      	movs	r2, #0
2000373e:	4bb1      	ldr	r3, [pc, #708]	@ (20003a04 <_ftoa+0x324>)
20003740:	981e      	ldr	r0, [sp, #120]	@ 0x78
20003742:	991f      	ldr	r1, [sp, #124]	@ 0x7c
20003744:	f7fe ff7a 	bl	2000263c <__wrap___aeabi_dcmplt>
20003748:	2800      	cmp	r0, #0
2000374a:	d142      	bne.n	200037d2 <_ftoa+0xf2>
2000374c:	2200      	movs	r2, #0
2000374e:	2300      	movs	r3, #0
20003750:	981e      	ldr	r0, [sp, #120]	@ 0x78
20003752:	991f      	ldr	r1, [sp, #124]	@ 0x7c
20003754:	f7fe ff72 	bl	2000263c <__wrap___aeabi_dcmplt>
20003758:	2800      	cmp	r0, #0
2000375a:	d14a      	bne.n	200037f2 <_ftoa+0x112>
2000375c:	2300      	movs	r3, #0
2000375e:	930b      	str	r3, [sp, #44]	@ 0x2c
20003760:	9b22      	ldr	r3, [sp, #136]	@ 0x88
20003762:	055b      	lsls	r3, r3, #21
20003764:	d400      	bmi.n	20003768 <_ftoa+0x88>
20003766:	e0af      	b.n	200038c8 <_ftoa+0x1e8>
20003768:	2400      	movs	r4, #0
2000376a:	e052      	b.n	20003812 <_ftoa+0x132>
2000376c:	9b22      	ldr	r3, [sp, #136]	@ 0x88
2000376e:	9303      	str	r3, [sp, #12]
20003770:	9b21      	ldr	r3, [sp, #132]	@ 0x84
20003772:	9302      	str	r3, [sp, #8]
20003774:	2303      	movs	r3, #3
20003776:	9301      	str	r3, [sp, #4]
20003778:	4ba3      	ldr	r3, [pc, #652]	@ (20003a08 <_ftoa+0x328>)
2000377a:	9300      	str	r3, [sp, #0]
2000377c:	9b0a      	ldr	r3, [sp, #40]	@ 0x28
2000377e:	465a      	mov	r2, fp
20003780:	4651      	mov	r1, sl
20003782:	4648      	mov	r0, r9
20003784:	f7ff fbc8 	bl	20002f18 <_out_rev>
20003788:	e11f      	b.n	200039ca <_ftoa+0x2ea>
2000378a:	9b22      	ldr	r3, [sp, #136]	@ 0x88
2000378c:	9303      	str	r3, [sp, #12]
2000378e:	9b21      	ldr	r3, [sp, #132]	@ 0x84
20003790:	9302      	str	r3, [sp, #8]
20003792:	2304      	movs	r3, #4
20003794:	9301      	str	r3, [sp, #4]
20003796:	4b9d      	ldr	r3, [pc, #628]	@ (20003a0c <_ftoa+0x32c>)
20003798:	9300      	str	r3, [sp, #0]
2000379a:	9b0a      	ldr	r3, [sp, #40]	@ 0x28
2000379c:	465a      	mov	r2, fp
2000379e:	4651      	mov	r1, sl
200037a0:	4648      	mov	r0, r9
200037a2:	f7ff fbb9 	bl	20002f18 <_out_rev>
200037a6:	e110      	b.n	200039ca <_ftoa+0x2ea>
200037a8:	9b22      	ldr	r3, [sp, #136]	@ 0x88
200037aa:	075b      	lsls	r3, r3, #29
200037ac:	d50e      	bpl.n	200037cc <_ftoa+0xec>
200037ae:	4b98      	ldr	r3, [pc, #608]	@ (20003a10 <_ftoa+0x330>)
200037b0:	2204      	movs	r2, #4
200037b2:	9922      	ldr	r1, [sp, #136]	@ 0x88
200037b4:	9103      	str	r1, [sp, #12]
200037b6:	9921      	ldr	r1, [sp, #132]	@ 0x84
200037b8:	9102      	str	r1, [sp, #8]
200037ba:	9201      	str	r2, [sp, #4]
200037bc:	9300      	str	r3, [sp, #0]
200037be:	9b0a      	ldr	r3, [sp, #40]	@ 0x28
200037c0:	465a      	mov	r2, fp
200037c2:	4651      	mov	r1, sl
200037c4:	4648      	mov	r0, r9
200037c6:	f7ff fba7 	bl	20002f18 <_out_rev>
200037ca:	e0fe      	b.n	200039ca <_ftoa+0x2ea>
200037cc:	4b91      	ldr	r3, [pc, #580]	@ (20003a14 <_ftoa+0x334>)
200037ce:	2203      	movs	r2, #3
200037d0:	e7ef      	b.n	200037b2 <_ftoa+0xd2>
200037d2:	9b22      	ldr	r3, [sp, #136]	@ 0x88
200037d4:	9304      	str	r3, [sp, #16]
200037d6:	9b21      	ldr	r3, [sp, #132]	@ 0x84
200037d8:	9303      	str	r3, [sp, #12]
200037da:	9702      	str	r7, [sp, #8]
200037dc:	9b1e      	ldr	r3, [sp, #120]	@ 0x78
200037de:	9c1f      	ldr	r4, [sp, #124]	@ 0x7c
200037e0:	9300      	str	r3, [sp, #0]
200037e2:	9401      	str	r4, [sp, #4]
200037e4:	9b0a      	ldr	r3, [sp, #40]	@ 0x28
200037e6:	465a      	mov	r2, fp
200037e8:	4651      	mov	r1, sl
200037ea:	4648      	mov	r0, r9
200037ec:	f7ff fd54 	bl	20003298 <_etoa>
200037f0:	e0eb      	b.n	200039ca <_ftoa+0x2ea>
200037f2:	9a1e      	ldr	r2, [sp, #120]	@ 0x78
200037f4:	9b1f      	ldr	r3, [sp, #124]	@ 0x7c
200037f6:	2000      	movs	r0, #0
200037f8:	2100      	movs	r1, #0
200037fa:	f7fe feac 	bl	20002556 <__wrap___aeabi_dsub>
200037fe:	901e      	str	r0, [sp, #120]	@ 0x78
20003800:	911f      	str	r1, [sp, #124]	@ 0x7c
20003802:	2301      	movs	r3, #1
20003804:	930b      	str	r3, [sp, #44]	@ 0x2c
20003806:	e7ab      	b.n	20003760 <_ftoa+0x80>
20003808:	ab0c      	add	r3, sp, #48	@ 0x30
2000380a:	2230      	movs	r2, #48	@ 0x30
2000380c:	551a      	strb	r2, [r3, r4]
2000380e:	3f01      	subs	r7, #1
20003810:	3401      	adds	r4, #1
20003812:	2c1f      	cmp	r4, #31
20003814:	d801      	bhi.n	2000381a <_ftoa+0x13a>
20003816:	2f09      	cmp	r7, #9
20003818:	d8f6      	bhi.n	20003808 <_ftoa+0x128>
2000381a:	981e      	ldr	r0, [sp, #120]	@ 0x78
2000381c:	991f      	ldr	r1, [sp, #124]	@ 0x7c
2000381e:	f7fe ff51 	bl	200026c4 <__wrap___aeabi_d2iz>
20003822:	0005      	movs	r5, r0
20003824:	f7fe ff36 	bl	20002694 <__wrap___aeabi_i2d>
20003828:	0002      	movs	r2, r0
2000382a:	000b      	movs	r3, r1
2000382c:	981e      	ldr	r0, [sp, #120]	@ 0x78
2000382e:	991f      	ldr	r1, [sp, #124]	@ 0x7c
20003830:	f7fe fe91 	bl	20002556 <__wrap___aeabi_dsub>
20003834:	4b78      	ldr	r3, [pc, #480]	@ (20003a18 <_ftoa+0x338>)
20003836:	00fa      	lsls	r2, r7, #3
20003838:	189b      	adds	r3, r3, r2
2000383a:	cb0c      	ldmia	r3, {r2, r3}
2000383c:	9208      	str	r2, [sp, #32]
2000383e:	9309      	str	r3, [sp, #36]	@ 0x24
20003840:	f7fe feb9 	bl	200025b6 <__wrap___aeabi_dmul>
20003844:	9006      	str	r0, [sp, #24]
20003846:	9107      	str	r1, [sp, #28]
20003848:	f7fe ff60 	bl	2000270c <__wrap___aeabi_d2uiz>
2000384c:	0006      	movs	r6, r0
2000384e:	f7fe ff1d 	bl	2000268c <__wrap___aeabi_ui2d>
20003852:	0002      	movs	r2, r0
20003854:	000b      	movs	r3, r1
20003856:	9806      	ldr	r0, [sp, #24]
20003858:	9907      	ldr	r1, [sp, #28]
2000385a:	f7fe fe7c 	bl	20002556 <__wrap___aeabi_dsub>
2000385e:	9006      	str	r0, [sp, #24]
20003860:	9107      	str	r1, [sp, #28]
20003862:	2200      	movs	r2, #0
20003864:	4b6d      	ldr	r3, [pc, #436]	@ (20003a1c <_ftoa+0x33c>)
20003866:	f7fe feff 	bl	20002668 <__wrap___aeabi_dcmpgt>
2000386a:	2800      	cmp	r0, #0
2000386c:	d02e      	beq.n	200038cc <_ftoa+0x1ec>
2000386e:	3601      	adds	r6, #1
20003870:	0030      	movs	r0, r6
20003872:	f7fe ff0b 	bl	2000268c <__wrap___aeabi_ui2d>
20003876:	0002      	movs	r2, r0
20003878:	000b      	movs	r3, r1
2000387a:	9808      	ldr	r0, [sp, #32]
2000387c:	9909      	ldr	r1, [sp, #36]	@ 0x24
2000387e:	f7fe fee3 	bl	20002648 <__wrap___aeabi_dcmple>
20003882:	2800      	cmp	r0, #0
20003884:	d001      	beq.n	2000388a <_ftoa+0x1aa>
20003886:	3501      	adds	r5, #1
20003888:	2600      	movs	r6, #0
2000388a:	2f00      	cmp	r7, #0
2000388c:	d12c      	bne.n	200038e8 <_ftoa+0x208>
2000388e:	0028      	movs	r0, r5
20003890:	f7fe ff00 	bl	20002694 <__wrap___aeabi_i2d>
20003894:	0002      	movs	r2, r0
20003896:	000b      	movs	r3, r1
20003898:	981e      	ldr	r0, [sp, #120]	@ 0x78
2000389a:	991f      	ldr	r1, [sp, #124]	@ 0x7c
2000389c:	f7fe fe5b 	bl	20002556 <__wrap___aeabi_dsub>
200038a0:	0006      	movs	r6, r0
200038a2:	000f      	movs	r7, r1
200038a4:	2200      	movs	r2, #0
200038a6:	4b5d      	ldr	r3, [pc, #372]	@ (20003a1c <_ftoa+0x33c>)
200038a8:	f7fe fec8 	bl	2000263c <__wrap___aeabi_dcmplt>
200038ac:	2800      	cmp	r0, #0
200038ae:	d146      	bne.n	2000393e <_ftoa+0x25e>
200038b0:	2200      	movs	r2, #0
200038b2:	4b5a      	ldr	r3, [pc, #360]	@ (20003a1c <_ftoa+0x33c>)
200038b4:	0030      	movs	r0, r6
200038b6:	0039      	movs	r1, r7
200038b8:	f7fe fed6 	bl	20002668 <__wrap___aeabi_dcmpgt>
200038bc:	2800      	cmp	r0, #0
200038be:	d13e      	bne.n	2000393e <_ftoa+0x25e>
200038c0:	07eb      	lsls	r3, r5, #31
200038c2:	d53c      	bpl.n	2000393e <_ftoa+0x25e>
200038c4:	3501      	adds	r5, #1
200038c6:	e03a      	b.n	2000393e <_ftoa+0x25e>
200038c8:	2706      	movs	r7, #6
200038ca:	e74d      	b.n	20003768 <_ftoa+0x88>
200038cc:	2200      	movs	r2, #0
200038ce:	4b53      	ldr	r3, [pc, #332]	@ (20003a1c <_ftoa+0x33c>)
200038d0:	9806      	ldr	r0, [sp, #24]
200038d2:	9907      	ldr	r1, [sp, #28]
200038d4:	f7fe feb2 	bl	2000263c <__wrap___aeabi_dcmplt>
200038d8:	2800      	cmp	r0, #0
200038da:	d1d6      	bne.n	2000388a <_ftoa+0x1aa>
200038dc:	2e00      	cmp	r6, #0
200038de:	d001      	beq.n	200038e4 <_ftoa+0x204>
200038e0:	07f3      	lsls	r3, r6, #31
200038e2:	d5d2      	bpl.n	2000388a <_ftoa+0x1aa>
200038e4:	3601      	adds	r6, #1
200038e6:	e7d0      	b.n	2000388a <_ftoa+0x1aa>
200038e8:	46a8      	mov	r8, r5
200038ea:	2c1f      	cmp	r4, #31
200038ec:	d811      	bhi.n	20003912 <_ftoa+0x232>
200038ee:	3f01      	subs	r7, #1
200038f0:	210a      	movs	r1, #10
200038f2:	0030      	movs	r0, r6
200038f4:	f7fe fbf4 	bl	200020e0 <__wrap___aeabi_uidiv>
200038f8:	1c65      	adds	r5, r4, #1
200038fa:	3130      	adds	r1, #48	@ 0x30
200038fc:	ab0c      	add	r3, sp, #48	@ 0x30
200038fe:	5519      	strb	r1, [r3, r4]
20003900:	210a      	movs	r1, #10
20003902:	0030      	movs	r0, r6
20003904:	f7fe fbec 	bl	200020e0 <__wrap___aeabi_uidiv>
20003908:	2e09      	cmp	r6, #9
2000390a:	d90e      	bls.n	2000392a <_ftoa+0x24a>
2000390c:	0006      	movs	r6, r0
2000390e:	002c      	movs	r4, r5
20003910:	e7eb      	b.n	200038ea <_ftoa+0x20a>
20003912:	4645      	mov	r5, r8
20003914:	2c1f      	cmp	r4, #31
20003916:	d80c      	bhi.n	20003932 <_ftoa+0x252>
20003918:	1e7b      	subs	r3, r7, #1
2000391a:	2f00      	cmp	r7, #0
2000391c:	d009      	beq.n	20003932 <_ftoa+0x252>
2000391e:	aa0c      	add	r2, sp, #48	@ 0x30
20003920:	2130      	movs	r1, #48	@ 0x30
20003922:	5511      	strb	r1, [r2, r4]
20003924:	001f      	movs	r7, r3
20003926:	3401      	adds	r4, #1
20003928:	e7f4      	b.n	20003914 <_ftoa+0x234>
2000392a:	002b      	movs	r3, r5
2000392c:	4645      	mov	r5, r8
2000392e:	001c      	movs	r4, r3
20003930:	e7f0      	b.n	20003914 <_ftoa+0x234>
20003932:	2c1f      	cmp	r4, #31
20003934:	d803      	bhi.n	2000393e <_ftoa+0x25e>
20003936:	ab0c      	add	r3, sp, #48	@ 0x30
20003938:	222e      	movs	r2, #46	@ 0x2e
2000393a:	551a      	strb	r2, [r3, r4]
2000393c:	3401      	adds	r4, #1
2000393e:	2c1f      	cmp	r4, #31
20003940:	d810      	bhi.n	20003964 <_ftoa+0x284>
20003942:	210a      	movs	r1, #10
20003944:	0028      	movs	r0, r5
20003946:	f7fe fba3 	bl	20002090 <__wrap___aeabi_idiv>
2000394a:	1c66      	adds	r6, r4, #1
2000394c:	3130      	adds	r1, #48	@ 0x30
2000394e:	ab0c      	add	r3, sp, #48	@ 0x30
20003950:	5519      	strb	r1, [r3, r4]
20003952:	210a      	movs	r1, #10
20003954:	0028      	movs	r0, r5
20003956:	f7fe fb9b 	bl	20002090 <__wrap___aeabi_idiv>
2000395a:	1e05      	subs	r5, r0, #0
2000395c:	d001      	beq.n	20003962 <_ftoa+0x282>
2000395e:	0034      	movs	r4, r6
20003960:	e7ed      	b.n	2000393e <_ftoa+0x25e>
20003962:	0034      	movs	r4, r6
20003964:	9b22      	ldr	r3, [sp, #136]	@ 0x88
20003966:	079b      	lsls	r3, r3, #30
20003968:	d419      	bmi.n	2000399e <_ftoa+0x2be>
2000396a:	9b22      	ldr	r3, [sp, #136]	@ 0x88
2000396c:	07db      	lsls	r3, r3, #31
2000396e:	d516      	bpl.n	2000399e <_ftoa+0x2be>
20003970:	9b21      	ldr	r3, [sp, #132]	@ 0x84
20003972:	2b00      	cmp	r3, #0
20003974:	d00e      	beq.n	20003994 <_ftoa+0x2b4>
20003976:	9b0b      	ldr	r3, [sp, #44]	@ 0x2c
20003978:	2b00      	cmp	r3, #0
2000397a:	d103      	bne.n	20003984 <_ftoa+0x2a4>
2000397c:	330c      	adds	r3, #12
2000397e:	9a22      	ldr	r2, [sp, #136]	@ 0x88
20003980:	4213      	tst	r3, r2
20003982:	d007      	beq.n	20003994 <_ftoa+0x2b4>
20003984:	9b21      	ldr	r3, [sp, #132]	@ 0x84
20003986:	3b01      	subs	r3, #1
20003988:	9321      	str	r3, [sp, #132]	@ 0x84
2000398a:	e003      	b.n	20003994 <_ftoa+0x2b4>
2000398c:	ab0c      	add	r3, sp, #48	@ 0x30
2000398e:	2230      	movs	r2, #48	@ 0x30
20003990:	551a      	strb	r2, [r3, r4]
20003992:	3401      	adds	r4, #1
20003994:	9b21      	ldr	r3, [sp, #132]	@ 0x84
20003996:	429c      	cmp	r4, r3
20003998:	d201      	bcs.n	2000399e <_ftoa+0x2be>
2000399a:	2c1f      	cmp	r4, #31
2000399c:	d9f6      	bls.n	2000398c <_ftoa+0x2ac>
2000399e:	2c1f      	cmp	r4, #31
200039a0:	d806      	bhi.n	200039b0 <_ftoa+0x2d0>
200039a2:	9b0b      	ldr	r3, [sp, #44]	@ 0x2c
200039a4:	2b00      	cmp	r3, #0
200039a6:	d017      	beq.n	200039d8 <_ftoa+0x2f8>
200039a8:	ab0c      	add	r3, sp, #48	@ 0x30
200039aa:	222d      	movs	r2, #45	@ 0x2d
200039ac:	551a      	strb	r2, [r3, r4]
200039ae:	3401      	adds	r4, #1
200039b0:	9b22      	ldr	r3, [sp, #136]	@ 0x88
200039b2:	9303      	str	r3, [sp, #12]
200039b4:	9b21      	ldr	r3, [sp, #132]	@ 0x84
200039b6:	9302      	str	r3, [sp, #8]
200039b8:	9401      	str	r4, [sp, #4]
200039ba:	ab0c      	add	r3, sp, #48	@ 0x30
200039bc:	9300      	str	r3, [sp, #0]
200039be:	9b0a      	ldr	r3, [sp, #40]	@ 0x28
200039c0:	465a      	mov	r2, fp
200039c2:	4651      	mov	r1, sl
200039c4:	4648      	mov	r0, r9
200039c6:	f7ff faa7 	bl	20002f18 <_out_rev>
200039ca:	b015      	add	sp, #84	@ 0x54
200039cc:	bcf0      	pop	{r4, r5, r6, r7}
200039ce:	46bb      	mov	fp, r7
200039d0:	46b2      	mov	sl, r6
200039d2:	46a9      	mov	r9, r5
200039d4:	46a0      	mov	r8, r4
200039d6:	bdf0      	pop	{r4, r5, r6, r7, pc}
200039d8:	9b22      	ldr	r3, [sp, #136]	@ 0x88
200039da:	075b      	lsls	r3, r3, #29
200039dc:	d504      	bpl.n	200039e8 <_ftoa+0x308>
200039de:	ab0c      	add	r3, sp, #48	@ 0x30
200039e0:	222b      	movs	r2, #43	@ 0x2b
200039e2:	551a      	strb	r2, [r3, r4]
200039e4:	3401      	adds	r4, #1
200039e6:	e7e3      	b.n	200039b0 <_ftoa+0x2d0>
200039e8:	9b22      	ldr	r3, [sp, #136]	@ 0x88
200039ea:	071b      	lsls	r3, r3, #28
200039ec:	d5e0      	bpl.n	200039b0 <_ftoa+0x2d0>
200039ee:	ab0c      	add	r3, sp, #48	@ 0x30
200039f0:	2220      	movs	r2, #32
200039f2:	551a      	strb	r2, [r3, r4]
200039f4:	3401      	adds	r4, #1
200039f6:	e7db      	b.n	200039b0 <_ftoa+0x2d0>
200039f8:	ffefffff 	.word	0xffefffff
200039fc:	7fefffff 	.word	0x7fefffff
20003a00:	41cdcd65 	.word	0x41cdcd65
20003a04:	c1cdcd65 	.word	0xc1cdcd65
20003a08:	2000775c 	.word	0x2000775c
20003a0c:	20007760 	.word	0x20007760
20003a10:	20007750 	.word	0x20007750
20003a14:	20007758 	.word	0x20007758
20003a18:	20007b70 	.word	0x20007b70
20003a1c:	3fe00000 	.word	0x3fe00000

20003a20 <_vsnprintf>:
20003a20:	b5f0      	push	{r4, r5, r6, r7, lr}
20003a22:	46de      	mov	lr, fp
20003a24:	4657      	mov	r7, sl
20003a26:	464e      	mov	r6, r9
20003a28:	4645      	mov	r5, r8
20003a2a:	b5e0      	push	{r5, r6, r7, lr}
20003a2c:	b093      	sub	sp, #76	@ 0x4c
20003a2e:	4683      	mov	fp, r0
20003a30:	468a      	mov	sl, r1
20003a32:	4690      	mov	r8, r2
20003a34:	9311      	str	r3, [sp, #68]	@ 0x44
20003a36:	2900      	cmp	r1, #0
20003a38:	d100      	bne.n	20003a3c <_vsnprintf+0x1c>
20003a3a:	e31a      	b.n	20004072 <_vsnprintf+0x652>
20003a3c:	2500      	movs	r5, #0
20003a3e:	465e      	mov	r6, fp
20003a40:	9b11      	ldr	r3, [sp, #68]	@ 0x44
20003a42:	7818      	ldrb	r0, [r3, #0]
20003a44:	2800      	cmp	r0, #0
20003a46:	d100      	bne.n	20003a4a <_vsnprintf+0x2a>
20003a48:	e316      	b.n	20004078 <_vsnprintf+0x658>
20003a4a:	2825      	cmp	r0, #37	@ 0x25
20003a4c:	d009      	beq.n	20003a62 <_vsnprintf+0x42>
20003a4e:	1c6c      	adds	r4, r5, #1
20003a50:	4643      	mov	r3, r8
20003a52:	002a      	movs	r2, r5
20003a54:	4651      	mov	r1, sl
20003a56:	47b0      	blx	r6
20003a58:	9b11      	ldr	r3, [sp, #68]	@ 0x44
20003a5a:	3301      	adds	r3, #1
20003a5c:	9311      	str	r3, [sp, #68]	@ 0x44
20003a5e:	0025      	movs	r5, r4
20003a60:	e7ee      	b.n	20003a40 <_vsnprintf+0x20>
20003a62:	3301      	adds	r3, #1
20003a64:	9311      	str	r3, [sp, #68]	@ 0x44
20003a66:	2700      	movs	r7, #0
20003a68:	e012      	b.n	20003a90 <_vsnprintf+0x70>
20003a6a:	2a20      	cmp	r2, #32
20003a6c:	d025      	beq.n	20003aba <_vsnprintf+0x9a>
20003a6e:	2a23      	cmp	r2, #35	@ 0x23
20003a70:	d105      	bne.n	20003a7e <_vsnprintf+0x5e>
20003a72:	2210      	movs	r2, #16
20003a74:	4317      	orrs	r7, r2
20003a76:	3301      	adds	r3, #1
20003a78:	9311      	str	r3, [sp, #68]	@ 0x44
20003a7a:	2401      	movs	r4, #1
20003a7c:	e006      	b.n	20003a8c <_vsnprintf+0x6c>
20003a7e:	2400      	movs	r4, #0
20003a80:	e004      	b.n	20003a8c <_vsnprintf+0x6c>
20003a82:	2202      	movs	r2, #2
20003a84:	4317      	orrs	r7, r2
20003a86:	3301      	adds	r3, #1
20003a88:	9311      	str	r3, [sp, #68]	@ 0x44
20003a8a:	2401      	movs	r4, #1
20003a8c:	2c00      	cmp	r4, #0
20003a8e:	d01c      	beq.n	20003aca <_vsnprintf+0xaa>
20003a90:	9b11      	ldr	r3, [sp, #68]	@ 0x44
20003a92:	781a      	ldrb	r2, [r3, #0]
20003a94:	2a2b      	cmp	r2, #43	@ 0x2b
20003a96:	d00a      	beq.n	20003aae <_vsnprintf+0x8e>
20003a98:	d9e7      	bls.n	20003a6a <_vsnprintf+0x4a>
20003a9a:	2a2d      	cmp	r2, #45	@ 0x2d
20003a9c:	d0f1      	beq.n	20003a82 <_vsnprintf+0x62>
20003a9e:	2a30      	cmp	r2, #48	@ 0x30
20003aa0:	d111      	bne.n	20003ac6 <_vsnprintf+0xa6>
20003aa2:	3a2f      	subs	r2, #47	@ 0x2f
20003aa4:	4317      	orrs	r7, r2
20003aa6:	3301      	adds	r3, #1
20003aa8:	9311      	str	r3, [sp, #68]	@ 0x44
20003aaa:	2401      	movs	r4, #1
20003aac:	e7ee      	b.n	20003a8c <_vsnprintf+0x6c>
20003aae:	2204      	movs	r2, #4
20003ab0:	4317      	orrs	r7, r2
20003ab2:	3301      	adds	r3, #1
20003ab4:	9311      	str	r3, [sp, #68]	@ 0x44
20003ab6:	2401      	movs	r4, #1
20003ab8:	e7e8      	b.n	20003a8c <_vsnprintf+0x6c>
20003aba:	2208      	movs	r2, #8
20003abc:	4317      	orrs	r7, r2
20003abe:	3301      	adds	r3, #1
20003ac0:	9311      	str	r3, [sp, #68]	@ 0x44
20003ac2:	2401      	movs	r4, #1
20003ac4:	e7e2      	b.n	20003a8c <_vsnprintf+0x6c>
20003ac6:	2400      	movs	r4, #0
20003ac8:	e7e0      	b.n	20003a8c <_vsnprintf+0x6c>
20003aca:	9b11      	ldr	r3, [sp, #68]	@ 0x44
20003acc:	781a      	ldrb	r2, [r3, #0]
20003ace:	0013      	movs	r3, r2
20003ad0:	3b30      	subs	r3, #48	@ 0x30
20003ad2:	b2db      	uxtb	r3, r3
20003ad4:	2b09      	cmp	r3, #9
20003ad6:	d915      	bls.n	20003b04 <_vsnprintf+0xe4>
20003ad8:	2a2a      	cmp	r2, #42	@ 0x2a
20003ada:	d018      	beq.n	20003b0e <_vsnprintf+0xee>
20003adc:	940b      	str	r4, [sp, #44]	@ 0x2c
20003ade:	9b11      	ldr	r3, [sp, #68]	@ 0x44
20003ae0:	781a      	ldrb	r2, [r3, #0]
20003ae2:	2a2e      	cmp	r2, #46	@ 0x2e
20003ae4:	d023      	beq.n	20003b2e <_vsnprintf+0x10e>
20003ae6:	9b11      	ldr	r3, [sp, #68]	@ 0x44
20003ae8:	781a      	ldrb	r2, [r3, #0]
20003aea:	2a6c      	cmp	r2, #108	@ 0x6c
20003aec:	d047      	beq.n	20003b7e <_vsnprintf+0x15e>
20003aee:	d93c      	bls.n	20003b6a <_vsnprintf+0x14a>
20003af0:	2a74      	cmp	r2, #116	@ 0x74
20003af2:	d062      	beq.n	20003bba <_vsnprintf+0x19a>
20003af4:	2a7a      	cmp	r2, #122	@ 0x7a
20003af6:	d165      	bne.n	20003bc4 <_vsnprintf+0x1a4>
20003af8:	2280      	movs	r2, #128	@ 0x80
20003afa:	0052      	lsls	r2, r2, #1
20003afc:	4317      	orrs	r7, r2
20003afe:	3301      	adds	r3, #1
20003b00:	9311      	str	r3, [sp, #68]	@ 0x44
20003b02:	e05f      	b.n	20003bc4 <_vsnprintf+0x1a4>
20003b04:	a811      	add	r0, sp, #68	@ 0x44
20003b06:	f7ff f9f5 	bl	20002ef4 <_atoi>
20003b0a:	900b      	str	r0, [sp, #44]	@ 0x2c
20003b0c:	e7e7      	b.n	20003ade <_vsnprintf+0xbe>
20003b0e:	9b1c      	ldr	r3, [sp, #112]	@ 0x70
20003b10:	1d1a      	adds	r2, r3, #4
20003b12:	921c      	str	r2, [sp, #112]	@ 0x70
20003b14:	681b      	ldr	r3, [r3, #0]
20003b16:	2b00      	cmp	r3, #0
20003b18:	db04      	blt.n	20003b24 <_vsnprintf+0x104>
20003b1a:	930b      	str	r3, [sp, #44]	@ 0x2c
20003b1c:	9b11      	ldr	r3, [sp, #68]	@ 0x44
20003b1e:	3301      	adds	r3, #1
20003b20:	9311      	str	r3, [sp, #68]	@ 0x44
20003b22:	e7dc      	b.n	20003ade <_vsnprintf+0xbe>
20003b24:	2202      	movs	r2, #2
20003b26:	4317      	orrs	r7, r2
20003b28:	425b      	negs	r3, r3
20003b2a:	930b      	str	r3, [sp, #44]	@ 0x2c
20003b2c:	e7f6      	b.n	20003b1c <_vsnprintf+0xfc>
20003b2e:	2280      	movs	r2, #128	@ 0x80
20003b30:	00d2      	lsls	r2, r2, #3
20003b32:	4317      	orrs	r7, r2
20003b34:	1c5a      	adds	r2, r3, #1
20003b36:	9211      	str	r2, [sp, #68]	@ 0x44
20003b38:	785a      	ldrb	r2, [r3, #1]
20003b3a:	0013      	movs	r3, r2
20003b3c:	3b30      	subs	r3, #48	@ 0x30
20003b3e:	b2db      	uxtb	r3, r3
20003b40:	2b09      	cmp	r3, #9
20003b42:	d90b      	bls.n	20003b5c <_vsnprintf+0x13c>
20003b44:	2a2a      	cmp	r2, #42	@ 0x2a
20003b46:	d1ce      	bne.n	20003ae6 <_vsnprintf+0xc6>
20003b48:	9b1c      	ldr	r3, [sp, #112]	@ 0x70
20003b4a:	1d1a      	adds	r2, r3, #4
20003b4c:	921c      	str	r2, [sp, #112]	@ 0x70
20003b4e:	681c      	ldr	r4, [r3, #0]
20003b50:	2c00      	cmp	r4, #0
20003b52:	db08      	blt.n	20003b66 <_vsnprintf+0x146>
20003b54:	9b11      	ldr	r3, [sp, #68]	@ 0x44
20003b56:	3301      	adds	r3, #1
20003b58:	9311      	str	r3, [sp, #68]	@ 0x44
20003b5a:	e7c4      	b.n	20003ae6 <_vsnprintf+0xc6>
20003b5c:	a811      	add	r0, sp, #68	@ 0x44
20003b5e:	f7ff f9c9 	bl	20002ef4 <_atoi>
20003b62:	0004      	movs	r4, r0
20003b64:	e7bf      	b.n	20003ae6 <_vsnprintf+0xc6>
20003b66:	2400      	movs	r4, #0
20003b68:	e7f4      	b.n	20003b54 <_vsnprintf+0x134>
20003b6a:	2a68      	cmp	r2, #104	@ 0x68
20003b6c:	d017      	beq.n	20003b9e <_vsnprintf+0x17e>
20003b6e:	2a6a      	cmp	r2, #106	@ 0x6a
20003b70:	d128      	bne.n	20003bc4 <_vsnprintf+0x1a4>
20003b72:	2280      	movs	r2, #128	@ 0x80
20003b74:	0092      	lsls	r2, r2, #2
20003b76:	4317      	orrs	r7, r2
20003b78:	3301      	adds	r3, #1
20003b7a:	9311      	str	r3, [sp, #68]	@ 0x44
20003b7c:	e022      	b.n	20003bc4 <_vsnprintf+0x1a4>
20003b7e:	2280      	movs	r2, #128	@ 0x80
20003b80:	0052      	lsls	r2, r2, #1
20003b82:	433a      	orrs	r2, r7
20003b84:	1c59      	adds	r1, r3, #1
20003b86:	9111      	str	r1, [sp, #68]	@ 0x44
20003b88:	7859      	ldrb	r1, [r3, #1]
20003b8a:	296c      	cmp	r1, #108	@ 0x6c
20003b8c:	d001      	beq.n	20003b92 <_vsnprintf+0x172>
20003b8e:	0017      	movs	r7, r2
20003b90:	e018      	b.n	20003bc4 <_vsnprintf+0x1a4>
20003b92:	22c0      	movs	r2, #192	@ 0xc0
20003b94:	0092      	lsls	r2, r2, #2
20003b96:	4317      	orrs	r7, r2
20003b98:	3302      	adds	r3, #2
20003b9a:	9311      	str	r3, [sp, #68]	@ 0x44
20003b9c:	e012      	b.n	20003bc4 <_vsnprintf+0x1a4>
20003b9e:	2280      	movs	r2, #128	@ 0x80
20003ba0:	433a      	orrs	r2, r7
20003ba2:	1c59      	adds	r1, r3, #1
20003ba4:	9111      	str	r1, [sp, #68]	@ 0x44
20003ba6:	7859      	ldrb	r1, [r3, #1]
20003ba8:	2968      	cmp	r1, #104	@ 0x68
20003baa:	d001      	beq.n	20003bb0 <_vsnprintf+0x190>
20003bac:	0017      	movs	r7, r2
20003bae:	e009      	b.n	20003bc4 <_vsnprintf+0x1a4>
20003bb0:	22c0      	movs	r2, #192	@ 0xc0
20003bb2:	4317      	orrs	r7, r2
20003bb4:	3302      	adds	r3, #2
20003bb6:	9311      	str	r3, [sp, #68]	@ 0x44
20003bb8:	e004      	b.n	20003bc4 <_vsnprintf+0x1a4>
20003bba:	2280      	movs	r2, #128	@ 0x80
20003bbc:	0052      	lsls	r2, r2, #1
20003bbe:	4317      	orrs	r7, r2
20003bc0:	3301      	adds	r3, #1
20003bc2:	9311      	str	r3, [sp, #68]	@ 0x44
20003bc4:	9b11      	ldr	r3, [sp, #68]	@ 0x44
20003bc6:	7818      	ldrb	r0, [r3, #0]
20003bc8:	2865      	cmp	r0, #101	@ 0x65
20003bca:	d040      	beq.n	20003c4e <_vsnprintf+0x22e>
20003bcc:	d877      	bhi.n	20003cbe <_vsnprintf+0x29e>
20003bce:	2846      	cmp	r0, #70	@ 0x46
20003bd0:	d100      	bne.n	20003bd4 <_vsnprintf+0x1b4>
20003bd2:	e08b      	b.n	20003cec <_vsnprintf+0x2cc>
20003bd4:	d91b      	bls.n	20003c0e <_vsnprintf+0x1ee>
20003bd6:	2863      	cmp	r0, #99	@ 0x63
20003bd8:	d131      	bne.n	20003c3e <_vsnprintf+0x21e>
20003bda:	2302      	movs	r3, #2
20003bdc:	001a      	movs	r2, r3
20003bde:	403a      	ands	r2, r7
20003be0:	4691      	mov	r9, r2
20003be2:	423b      	tst	r3, r7
20003be4:	d100      	bne.n	20003be8 <_vsnprintf+0x1c8>
20003be6:	e1b0      	b.n	20003f4a <_vsnprintf+0x52a>
20003be8:	2401      	movs	r4, #1
20003bea:	9b1c      	ldr	r3, [sp, #112]	@ 0x70
20003bec:	1d1a      	adds	r2, r3, #4
20003bee:	921c      	str	r2, [sp, #112]	@ 0x70
20003bf0:	1c6f      	adds	r7, r5, #1
20003bf2:	7818      	ldrb	r0, [r3, #0]
20003bf4:	4643      	mov	r3, r8
20003bf6:	002a      	movs	r2, r5
20003bf8:	4651      	mov	r1, sl
20003bfa:	47b0      	blx	r6
20003bfc:	464b      	mov	r3, r9
20003bfe:	2b00      	cmp	r3, #0
20003c00:	d000      	beq.n	20003c04 <_vsnprintf+0x1e4>
20003c02:	e1a6      	b.n	20003f52 <_vsnprintf+0x532>
20003c04:	9b11      	ldr	r3, [sp, #68]	@ 0x44
20003c06:	3301      	adds	r3, #1
20003c08:	9311      	str	r3, [sp, #68]	@ 0x44
20003c0a:	003d      	movs	r5, r7
20003c0c:	e718      	b.n	20003a40 <_vsnprintf+0x20>
20003c0e:	2825      	cmp	r0, #37	@ 0x25
20003c10:	d109      	bne.n	20003c26 <_vsnprintf+0x206>
20003c12:	1c6c      	adds	r4, r5, #1
20003c14:	4643      	mov	r3, r8
20003c16:	002a      	movs	r2, r5
20003c18:	4651      	mov	r1, sl
20003c1a:	47b0      	blx	r6
20003c1c:	9b11      	ldr	r3, [sp, #68]	@ 0x44
20003c1e:	3301      	adds	r3, #1
20003c20:	9311      	str	r3, [sp, #68]	@ 0x44
20003c22:	0025      	movs	r5, r4
20003c24:	e70c      	b.n	20003a40 <_vsnprintf+0x20>
20003c26:	2845      	cmp	r0, #69	@ 0x45
20003c28:	d011      	beq.n	20003c4e <_vsnprintf+0x22e>
20003c2a:	1c6c      	adds	r4, r5, #1
20003c2c:	4643      	mov	r3, r8
20003c2e:	002a      	movs	r2, r5
20003c30:	4651      	mov	r1, sl
20003c32:	47b0      	blx	r6
20003c34:	9b11      	ldr	r3, [sp, #68]	@ 0x44
20003c36:	3301      	adds	r3, #1
20003c38:	9311      	str	r3, [sp, #68]	@ 0x44
20003c3a:	0025      	movs	r5, r4
20003c3c:	e700      	b.n	20003a40 <_vsnprintf+0x20>
20003c3e:	2863      	cmp	r0, #99	@ 0x63
20003c40:	d82b      	bhi.n	20003c9a <_vsnprintf+0x27a>
20003c42:	2858      	cmp	r0, #88	@ 0x58
20003c44:	d02b      	beq.n	20003c9e <_vsnprintf+0x27e>
20003c46:	2862      	cmp	r0, #98	@ 0x62
20003c48:	d029      	beq.n	20003c9e <_vsnprintf+0x27e>
20003c4a:	2847      	cmp	r0, #71	@ 0x47
20003c4c:	d1ed      	bne.n	20003c2a <_vsnprintf+0x20a>
20003c4e:	2867      	cmp	r0, #103	@ 0x67
20003c50:	d001      	beq.n	20003c56 <_vsnprintf+0x236>
20003c52:	2847      	cmp	r0, #71	@ 0x47
20003c54:	d102      	bne.n	20003c5c <_vsnprintf+0x23c>
20003c56:	2380      	movs	r3, #128	@ 0x80
20003c58:	011b      	lsls	r3, r3, #4
20003c5a:	431f      	orrs	r7, r3
20003c5c:	2845      	cmp	r0, #69	@ 0x45
20003c5e:	d001      	beq.n	20003c64 <_vsnprintf+0x244>
20003c60:	2847      	cmp	r0, #71	@ 0x47
20003c62:	d101      	bne.n	20003c68 <_vsnprintf+0x248>
20003c64:	2320      	movs	r3, #32
20003c66:	431f      	orrs	r7, r3
20003c68:	9b1c      	ldr	r3, [sp, #112]	@ 0x70
20003c6a:	3307      	adds	r3, #7
20003c6c:	2207      	movs	r2, #7
20003c6e:	4393      	bics	r3, r2
20003c70:	001a      	movs	r2, r3
20003c72:	3208      	adds	r2, #8
20003c74:	921c      	str	r2, [sp, #112]	@ 0x70
20003c76:	9704      	str	r7, [sp, #16]
20003c78:	9a0b      	ldr	r2, [sp, #44]	@ 0x2c
20003c7a:	9203      	str	r2, [sp, #12]
20003c7c:	9402      	str	r4, [sp, #8]
20003c7e:	cb0c      	ldmia	r3, {r2, r3}
20003c80:	9200      	str	r2, [sp, #0]
20003c82:	9301      	str	r3, [sp, #4]
20003c84:	4643      	mov	r3, r8
20003c86:	002a      	movs	r2, r5
20003c88:	4651      	mov	r1, sl
20003c8a:	0030      	movs	r0, r6
20003c8c:	f7ff fb04 	bl	20003298 <_etoa>
20003c90:	0005      	movs	r5, r0
20003c92:	9b11      	ldr	r3, [sp, #68]	@ 0x44
20003c94:	3301      	adds	r3, #1
20003c96:	9311      	str	r3, [sp, #68]	@ 0x44
20003c98:	e6d2      	b.n	20003a40 <_vsnprintf+0x20>
20003c9a:	2864      	cmp	r0, #100	@ 0x64
20003c9c:	d1c5      	bne.n	20003c2a <_vsnprintf+0x20a>
20003c9e:	2878      	cmp	r0, #120	@ 0x78
20003ca0:	d04d      	beq.n	20003d3e <_vsnprintf+0x31e>
20003ca2:	2858      	cmp	r0, #88	@ 0x58
20003ca4:	d100      	bne.n	20003ca8 <_vsnprintf+0x288>
20003ca6:	e07c      	b.n	20003da2 <_vsnprintf+0x382>
20003ca8:	286f      	cmp	r0, #111	@ 0x6f
20003caa:	d100      	bne.n	20003cae <_vsnprintf+0x28e>
20003cac:	e07c      	b.n	20003da8 <_vsnprintf+0x388>
20003cae:	2862      	cmp	r0, #98	@ 0x62
20003cb0:	d100      	bne.n	20003cb4 <_vsnprintf+0x294>
20003cb2:	e07c      	b.n	20003dae <_vsnprintf+0x38e>
20003cb4:	2310      	movs	r3, #16
20003cb6:	439f      	bics	r7, r3
20003cb8:	3b06      	subs	r3, #6
20003cba:	469c      	mov	ip, r3
20003cbc:	e041      	b.n	20003d42 <_vsnprintf+0x322>
20003cbe:	2870      	cmp	r0, #112	@ 0x70
20003cc0:	d100      	bne.n	20003cc4 <_vsnprintf+0x2a4>
20003cc2:	e1bc      	b.n	2000403e <_vsnprintf+0x61e>
20003cc4:	d90d      	bls.n	20003ce2 <_vsnprintf+0x2c2>
20003cc6:	2873      	cmp	r0, #115	@ 0x73
20003cc8:	d131      	bne.n	20003d2e <_vsnprintf+0x30e>
20003cca:	9b1c      	ldr	r3, [sp, #112]	@ 0x70
20003ccc:	1d1a      	adds	r2, r3, #4
20003cce:	921c      	str	r2, [sp, #112]	@ 0x70
20003cd0:	681b      	ldr	r3, [r3, #0]
20003cd2:	469b      	mov	fp, r3
20003cd4:	2c00      	cmp	r4, #0
20003cd6:	d000      	beq.n	20003cda <_vsnprintf+0x2ba>
20003cd8:	e16e      	b.n	20003fb8 <_vsnprintf+0x598>
20003cda:	2201      	movs	r2, #1
20003cdc:	4252      	negs	r2, r2
20003cde:	465b      	mov	r3, fp
20003ce0:	e14a      	b.n	20003f78 <_vsnprintf+0x558>
20003ce2:	2867      	cmp	r0, #103	@ 0x67
20003ce4:	d0b3      	beq.n	20003c4e <_vsnprintf+0x22e>
20003ce6:	d81d      	bhi.n	20003d24 <_vsnprintf+0x304>
20003ce8:	2866      	cmp	r0, #102	@ 0x66
20003cea:	d19e      	bne.n	20003c2a <_vsnprintf+0x20a>
20003cec:	2846      	cmp	r0, #70	@ 0x46
20003cee:	d100      	bne.n	20003cf2 <_vsnprintf+0x2d2>
20003cf0:	e11c      	b.n	20003f2c <_vsnprintf+0x50c>
20003cf2:	9b1c      	ldr	r3, [sp, #112]	@ 0x70
20003cf4:	3307      	adds	r3, #7
20003cf6:	2207      	movs	r2, #7
20003cf8:	4393      	bics	r3, r2
20003cfa:	001a      	movs	r2, r3
20003cfc:	3208      	adds	r2, #8
20003cfe:	921c      	str	r2, [sp, #112]	@ 0x70
20003d00:	9704      	str	r7, [sp, #16]
20003d02:	9a0b      	ldr	r2, [sp, #44]	@ 0x2c
20003d04:	9203      	str	r2, [sp, #12]
20003d06:	9402      	str	r4, [sp, #8]
20003d08:	cb0c      	ldmia	r3, {r2, r3}
20003d0a:	9200      	str	r2, [sp, #0]
20003d0c:	9301      	str	r3, [sp, #4]
20003d0e:	4643      	mov	r3, r8
20003d10:	002a      	movs	r2, r5
20003d12:	4651      	mov	r1, sl
20003d14:	0030      	movs	r0, r6
20003d16:	f7ff fce3 	bl	200036e0 <_ftoa>
20003d1a:	0005      	movs	r5, r0
20003d1c:	9b11      	ldr	r3, [sp, #68]	@ 0x44
20003d1e:	3301      	adds	r3, #1
20003d20:	9311      	str	r3, [sp, #68]	@ 0x44
20003d22:	e68d      	b.n	20003a40 <_vsnprintf+0x20>
20003d24:	2869      	cmp	r0, #105	@ 0x69
20003d26:	d0ba      	beq.n	20003c9e <_vsnprintf+0x27e>
20003d28:	286f      	cmp	r0, #111	@ 0x6f
20003d2a:	d0b8      	beq.n	20003c9e <_vsnprintf+0x27e>
20003d2c:	e77d      	b.n	20003c2a <_vsnprintf+0x20a>
20003d2e:	2873      	cmp	r0, #115	@ 0x73
20003d30:	d200      	bcs.n	20003d34 <_vsnprintf+0x314>
20003d32:	e77a      	b.n	20003c2a <_vsnprintf+0x20a>
20003d34:	2875      	cmp	r0, #117	@ 0x75
20003d36:	d0b2      	beq.n	20003c9e <_vsnprintf+0x27e>
20003d38:	2878      	cmp	r0, #120	@ 0x78
20003d3a:	d0b0      	beq.n	20003c9e <_vsnprintf+0x27e>
20003d3c:	e775      	b.n	20003c2a <_vsnprintf+0x20a>
20003d3e:	2310      	movs	r3, #16
20003d40:	469c      	mov	ip, r3
20003d42:	2858      	cmp	r0, #88	@ 0x58
20003d44:	d036      	beq.n	20003db4 <_vsnprintf+0x394>
20003d46:	2869      	cmp	r0, #105	@ 0x69
20003d48:	d003      	beq.n	20003d52 <_vsnprintf+0x332>
20003d4a:	2864      	cmp	r0, #100	@ 0x64
20003d4c:	d001      	beq.n	20003d52 <_vsnprintf+0x332>
20003d4e:	220c      	movs	r2, #12
20003d50:	4397      	bics	r7, r2
20003d52:	057a      	lsls	r2, r7, #21
20003d54:	d501      	bpl.n	20003d5a <_vsnprintf+0x33a>
20003d56:	2201      	movs	r2, #1
20003d58:	4397      	bics	r7, r2
20003d5a:	2869      	cmp	r0, #105	@ 0x69
20003d5c:	d02d      	beq.n	20003dba <_vsnprintf+0x39a>
20003d5e:	2864      	cmp	r0, #100	@ 0x64
20003d60:	d02b      	beq.n	20003dba <_vsnprintf+0x39a>
20003d62:	05ba      	lsls	r2, r7, #22
20003d64:	d500      	bpl.n	20003d68 <_vsnprintf+0x348>
20003d66:	e0a3      	b.n	20003eb0 <_vsnprintf+0x490>
20003d68:	05fa      	lsls	r2, r7, #23
20003d6a:	d500      	bpl.n	20003d6e <_vsnprintf+0x34e>
20003d6c:	e0bb      	b.n	20003ee6 <_vsnprintf+0x4c6>
20003d6e:	067a      	lsls	r2, r7, #25
20003d70:	d400      	bmi.n	20003d74 <_vsnprintf+0x354>
20003d72:	e0cd      	b.n	20003f10 <_vsnprintf+0x4f0>
20003d74:	9a1c      	ldr	r2, [sp, #112]	@ 0x70
20003d76:	1d11      	adds	r1, r2, #4
20003d78:	911c      	str	r1, [sp, #112]	@ 0x70
20003d7a:	6811      	ldr	r1, [r2, #0]
20003d7c:	22ff      	movs	r2, #255	@ 0xff
20003d7e:	400a      	ands	r2, r1
20003d80:	9705      	str	r7, [sp, #20]
20003d82:	9b0b      	ldr	r3, [sp, #44]	@ 0x2c
20003d84:	9304      	str	r3, [sp, #16]
20003d86:	9403      	str	r4, [sp, #12]
20003d88:	4663      	mov	r3, ip
20003d8a:	9302      	str	r3, [sp, #8]
20003d8c:	2300      	movs	r3, #0
20003d8e:	9301      	str	r3, [sp, #4]
20003d90:	9200      	str	r2, [sp, #0]
20003d92:	4643      	mov	r3, r8
20003d94:	002a      	movs	r2, r5
20003d96:	4651      	mov	r1, sl
20003d98:	0030      	movs	r0, r6
20003d9a:	f7ff f9a5 	bl	200030e8 <_ntoa_long>
20003d9e:	0005      	movs	r5, r0
20003da0:	e02a      	b.n	20003df8 <_vsnprintf+0x3d8>
20003da2:	2310      	movs	r3, #16
20003da4:	469c      	mov	ip, r3
20003da6:	e7cc      	b.n	20003d42 <_vsnprintf+0x322>
20003da8:	2308      	movs	r3, #8
20003daa:	469c      	mov	ip, r3
20003dac:	e7c9      	b.n	20003d42 <_vsnprintf+0x322>
20003dae:	2302      	movs	r3, #2
20003db0:	469c      	mov	ip, r3
20003db2:	e7c6      	b.n	20003d42 <_vsnprintf+0x322>
20003db4:	2220      	movs	r2, #32
20003db6:	4317      	orrs	r7, r2
20003db8:	e7c5      	b.n	20003d46 <_vsnprintf+0x326>
20003dba:	05ba      	lsls	r2, r7, #22
20003dbc:	d420      	bmi.n	20003e00 <_vsnprintf+0x3e0>
20003dbe:	05fa      	lsls	r2, r7, #23
20003dc0:	d451      	bmi.n	20003e66 <_vsnprintf+0x446>
20003dc2:	067a      	lsls	r2, r7, #25
20003dc4:	d567      	bpl.n	20003e96 <_vsnprintf+0x476>
20003dc6:	9a1c      	ldr	r2, [sp, #112]	@ 0x70
20003dc8:	1d11      	adds	r1, r2, #4
20003dca:	911c      	str	r1, [sp, #112]	@ 0x70
20003dcc:	6811      	ldr	r1, [r2, #0]
20003dce:	22ff      	movs	r2, #255	@ 0xff
20003dd0:	400a      	ands	r2, r1
20003dd2:	17d0      	asrs	r0, r2, #31
20003dd4:	1811      	adds	r1, r2, r0
20003dd6:	4041      	eors	r1, r0
20003dd8:	9705      	str	r7, [sp, #20]
20003dda:	9b0b      	ldr	r3, [sp, #44]	@ 0x2c
20003ddc:	9304      	str	r3, [sp, #16]
20003dde:	9403      	str	r4, [sp, #12]
20003de0:	4663      	mov	r3, ip
20003de2:	9302      	str	r3, [sp, #8]
20003de4:	0fd2      	lsrs	r2, r2, #31
20003de6:	9201      	str	r2, [sp, #4]
20003de8:	9100      	str	r1, [sp, #0]
20003dea:	4643      	mov	r3, r8
20003dec:	002a      	movs	r2, r5
20003dee:	4651      	mov	r1, sl
20003df0:	0030      	movs	r0, r6
20003df2:	f7ff f979 	bl	200030e8 <_ntoa_long>
20003df6:	0005      	movs	r5, r0
20003df8:	9b11      	ldr	r3, [sp, #68]	@ 0x44
20003dfa:	3301      	adds	r3, #1
20003dfc:	9311      	str	r3, [sp, #68]	@ 0x44
20003dfe:	e61f      	b.n	20003a40 <_vsnprintf+0x20>
20003e00:	9a1c      	ldr	r2, [sp, #112]	@ 0x70
20003e02:	3207      	adds	r2, #7
20003e04:	2107      	movs	r1, #7
20003e06:	438a      	bics	r2, r1
20003e08:	0011      	movs	r1, r2
20003e0a:	3108      	adds	r1, #8
20003e0c:	911c      	str	r1, [sp, #112]	@ 0x70
20003e0e:	6811      	ldr	r1, [r2, #0]
20003e10:	6853      	ldr	r3, [r2, #4]
20003e12:	4699      	mov	r9, r3
20003e14:	17db      	asrs	r3, r3, #31
20003e16:	930c      	str	r3, [sp, #48]	@ 0x30
20003e18:	930d      	str	r3, [sp, #52]	@ 0x34
20003e1a:	9a0c      	ldr	r2, [sp, #48]	@ 0x30
20003e1c:	9b0d      	ldr	r3, [sp, #52]	@ 0x34
20003e1e:	0010      	movs	r0, r2
20003e20:	4048      	eors	r0, r1
20003e22:	900e      	str	r0, [sp, #56]	@ 0x38
20003e24:	9b0d      	ldr	r3, [sp, #52]	@ 0x34
20003e26:	4649      	mov	r1, r9
20003e28:	404b      	eors	r3, r1
20003e2a:	930f      	str	r3, [sp, #60]	@ 0x3c
20003e2c:	980e      	ldr	r0, [sp, #56]	@ 0x38
20003e2e:	990f      	ldr	r1, [sp, #60]	@ 0x3c
20003e30:	9a0c      	ldr	r2, [sp, #48]	@ 0x30
20003e32:	9b0d      	ldr	r3, [sp, #52]	@ 0x34
20003e34:	1a80      	subs	r0, r0, r2
20003e36:	4199      	sbcs	r1, r3
20003e38:	900e      	str	r0, [sp, #56]	@ 0x38
20003e3a:	910f      	str	r1, [sp, #60]	@ 0x3c
20003e3c:	9708      	str	r7, [sp, #32]
20003e3e:	9b0b      	ldr	r3, [sp, #44]	@ 0x2c
20003e40:	9307      	str	r3, [sp, #28]
20003e42:	9406      	str	r4, [sp, #24]
20003e44:	4663      	mov	r3, ip
20003e46:	9304      	str	r3, [sp, #16]
20003e48:	2300      	movs	r3, #0
20003e4a:	9305      	str	r3, [sp, #20]
20003e4c:	464b      	mov	r3, r9
20003e4e:	0fda      	lsrs	r2, r3, #31
20003e50:	9202      	str	r2, [sp, #8]
20003e52:	9000      	str	r0, [sp, #0]
20003e54:	9101      	str	r1, [sp, #4]
20003e56:	4643      	mov	r3, r8
20003e58:	002a      	movs	r2, r5
20003e5a:	4651      	mov	r1, sl
20003e5c:	0030      	movs	r0, r6
20003e5e:	f7ff f99f 	bl	200031a0 <_ntoa_long_long>
20003e62:	0005      	movs	r5, r0
20003e64:	e7c8      	b.n	20003df8 <_vsnprintf+0x3d8>
20003e66:	9a1c      	ldr	r2, [sp, #112]	@ 0x70
20003e68:	1d11      	adds	r1, r2, #4
20003e6a:	911c      	str	r1, [sp, #112]	@ 0x70
20003e6c:	6812      	ldr	r2, [r2, #0]
20003e6e:	17d0      	asrs	r0, r2, #31
20003e70:	1811      	adds	r1, r2, r0
20003e72:	4041      	eors	r1, r0
20003e74:	9705      	str	r7, [sp, #20]
20003e76:	9b0b      	ldr	r3, [sp, #44]	@ 0x2c
20003e78:	9304      	str	r3, [sp, #16]
20003e7a:	9403      	str	r4, [sp, #12]
20003e7c:	4663      	mov	r3, ip
20003e7e:	9302      	str	r3, [sp, #8]
20003e80:	0fd2      	lsrs	r2, r2, #31
20003e82:	9201      	str	r2, [sp, #4]
20003e84:	9100      	str	r1, [sp, #0]
20003e86:	4643      	mov	r3, r8
20003e88:	002a      	movs	r2, r5
20003e8a:	4651      	mov	r1, sl
20003e8c:	0030      	movs	r0, r6
20003e8e:	f7ff f92b 	bl	200030e8 <_ntoa_long>
20003e92:	0005      	movs	r5, r0
20003e94:	e7b0      	b.n	20003df8 <_vsnprintf+0x3d8>
20003e96:	063a      	lsls	r2, r7, #24
20003e98:	d505      	bpl.n	20003ea6 <_vsnprintf+0x486>
20003e9a:	9a1c      	ldr	r2, [sp, #112]	@ 0x70
20003e9c:	1d11      	adds	r1, r2, #4
20003e9e:	911c      	str	r1, [sp, #112]	@ 0x70
20003ea0:	2300      	movs	r3, #0
20003ea2:	5ed2      	ldrsh	r2, [r2, r3]
20003ea4:	e795      	b.n	20003dd2 <_vsnprintf+0x3b2>
20003ea6:	9a1c      	ldr	r2, [sp, #112]	@ 0x70
20003ea8:	1d11      	adds	r1, r2, #4
20003eaa:	911c      	str	r1, [sp, #112]	@ 0x70
20003eac:	6812      	ldr	r2, [r2, #0]
20003eae:	e790      	b.n	20003dd2 <_vsnprintf+0x3b2>
20003eb0:	9a1c      	ldr	r2, [sp, #112]	@ 0x70
20003eb2:	3207      	adds	r2, #7
20003eb4:	2107      	movs	r1, #7
20003eb6:	438a      	bics	r2, r1
20003eb8:	0011      	movs	r1, r2
20003eba:	3108      	adds	r1, #8
20003ebc:	911c      	str	r1, [sp, #112]	@ 0x70
20003ebe:	9708      	str	r7, [sp, #32]
20003ec0:	9b0b      	ldr	r3, [sp, #44]	@ 0x2c
20003ec2:	9307      	str	r3, [sp, #28]
20003ec4:	9406      	str	r4, [sp, #24]
20003ec6:	4663      	mov	r3, ip
20003ec8:	9304      	str	r3, [sp, #16]
20003eca:	2300      	movs	r3, #0
20003ecc:	9305      	str	r3, [sp, #20]
20003ece:	9302      	str	r3, [sp, #8]
20003ed0:	ca0c      	ldmia	r2, {r2, r3}
20003ed2:	9200      	str	r2, [sp, #0]
20003ed4:	9301      	str	r3, [sp, #4]
20003ed6:	4643      	mov	r3, r8
20003ed8:	002a      	movs	r2, r5
20003eda:	4651      	mov	r1, sl
20003edc:	0030      	movs	r0, r6
20003ede:	f7ff f95f 	bl	200031a0 <_ntoa_long_long>
20003ee2:	0005      	movs	r5, r0
20003ee4:	e788      	b.n	20003df8 <_vsnprintf+0x3d8>
20003ee6:	9a1c      	ldr	r2, [sp, #112]	@ 0x70
20003ee8:	1d11      	adds	r1, r2, #4
20003eea:	911c      	str	r1, [sp, #112]	@ 0x70
20003eec:	9705      	str	r7, [sp, #20]
20003eee:	9b0b      	ldr	r3, [sp, #44]	@ 0x2c
20003ef0:	9304      	str	r3, [sp, #16]
20003ef2:	9403      	str	r4, [sp, #12]
20003ef4:	4663      	mov	r3, ip
20003ef6:	9302      	str	r3, [sp, #8]
20003ef8:	2300      	movs	r3, #0
20003efa:	9301      	str	r3, [sp, #4]
20003efc:	6813      	ldr	r3, [r2, #0]
20003efe:	9300      	str	r3, [sp, #0]
20003f00:	4643      	mov	r3, r8
20003f02:	002a      	movs	r2, r5
20003f04:	4651      	mov	r1, sl
20003f06:	0030      	movs	r0, r6
20003f08:	f7ff f8ee 	bl	200030e8 <_ntoa_long>
20003f0c:	0005      	movs	r5, r0
20003f0e:	e773      	b.n	20003df8 <_vsnprintf+0x3d8>
20003f10:	063a      	lsls	r2, r7, #24
20003f12:	d506      	bpl.n	20003f22 <_vsnprintf+0x502>
20003f14:	9a1c      	ldr	r2, [sp, #112]	@ 0x70
20003f16:	1d11      	adds	r1, r2, #4
20003f18:	911c      	str	r1, [sp, #112]	@ 0x70
20003f1a:	6812      	ldr	r2, [r2, #0]
20003f1c:	0412      	lsls	r2, r2, #16
20003f1e:	0c12      	lsrs	r2, r2, #16
20003f20:	e72e      	b.n	20003d80 <_vsnprintf+0x360>
20003f22:	9a1c      	ldr	r2, [sp, #112]	@ 0x70
20003f24:	1d11      	adds	r1, r2, #4
20003f26:	911c      	str	r1, [sp, #112]	@ 0x70
20003f28:	6812      	ldr	r2, [r2, #0]
20003f2a:	e729      	b.n	20003d80 <_vsnprintf+0x360>
20003f2c:	2320      	movs	r3, #32
20003f2e:	431f      	orrs	r7, r3
20003f30:	e6df      	b.n	20003cf2 <_vsnprintf+0x2d2>
20003f32:	1c57      	adds	r7, r2, #1
20003f34:	4643      	mov	r3, r8
20003f36:	4651      	mov	r1, sl
20003f38:	2020      	movs	r0, #32
20003f3a:	47b0      	blx	r6
20003f3c:	0023      	movs	r3, r4
20003f3e:	003a      	movs	r2, r7
20003f40:	1c5c      	adds	r4, r3, #1
20003f42:	429d      	cmp	r5, r3
20003f44:	d8f5      	bhi.n	20003f32 <_vsnprintf+0x512>
20003f46:	0015      	movs	r5, r2
20003f48:	e64f      	b.n	20003bea <_vsnprintf+0x1ca>
20003f4a:	2301      	movs	r3, #1
20003f4c:	002a      	movs	r2, r5
20003f4e:	9d0b      	ldr	r5, [sp, #44]	@ 0x2c
20003f50:	e7f6      	b.n	20003f40 <_vsnprintf+0x520>
20003f52:	003a      	movs	r2, r7
20003f54:	46b1      	mov	r9, r6
20003f56:	9e0b      	ldr	r6, [sp, #44]	@ 0x2c
20003f58:	e006      	b.n	20003f68 <_vsnprintf+0x548>
20003f5a:	1c57      	adds	r7, r2, #1
20003f5c:	4643      	mov	r3, r8
20003f5e:	4651      	mov	r1, sl
20003f60:	2020      	movs	r0, #32
20003f62:	47c8      	blx	r9
20003f64:	002c      	movs	r4, r5
20003f66:	003a      	movs	r2, r7
20003f68:	1c65      	adds	r5, r4, #1
20003f6a:	42a6      	cmp	r6, r4
20003f6c:	d8f5      	bhi.n	20003f5a <_vsnprintf+0x53a>
20003f6e:	0017      	movs	r7, r2
20003f70:	464e      	mov	r6, r9
20003f72:	e647      	b.n	20003c04 <_vsnprintf+0x1e4>
20003f74:	3301      	adds	r3, #1
20003f76:	000a      	movs	r2, r1
20003f78:	7819      	ldrb	r1, [r3, #0]
20003f7a:	2900      	cmp	r1, #0
20003f7c:	d002      	beq.n	20003f84 <_vsnprintf+0x564>
20003f7e:	1e51      	subs	r1, r2, #1
20003f80:	2a00      	cmp	r2, #0
20003f82:	d1f7      	bne.n	20003f74 <_vsnprintf+0x554>
20003f84:	465a      	mov	r2, fp
20003f86:	1a9b      	subs	r3, r3, r2
20003f88:	2280      	movs	r2, #128	@ 0x80
20003f8a:	00d2      	lsls	r2, r2, #3
20003f8c:	0039      	movs	r1, r7
20003f8e:	4011      	ands	r1, r2
20003f90:	4689      	mov	r9, r1
20003f92:	4217      	tst	r7, r2
20003f94:	d002      	beq.n	20003f9c <_vsnprintf+0x57c>
20003f96:	42a3      	cmp	r3, r4
20003f98:	d900      	bls.n	20003f9c <_vsnprintf+0x57c>
20003f9a:	0023      	movs	r3, r4
20003f9c:	2202      	movs	r2, #2
20003f9e:	0011      	movs	r1, r2
20003fa0:	4039      	ands	r1, r7
20003fa2:	9110      	str	r1, [sp, #64]	@ 0x40
20003fa4:	423a      	tst	r2, r7
20003fa6:	d009      	beq.n	20003fbc <_vsnprintf+0x59c>
20003fa8:	002a      	movs	r2, r5
20003faa:	0025      	movs	r5, r4
20003fac:	465f      	mov	r7, fp
20003fae:	469b      	mov	fp, r3
20003fb0:	0033      	movs	r3, r6
20003fb2:	464e      	mov	r6, r9
20003fb4:	4699      	mov	r9, r3
20003fb6:	e021      	b.n	20003ffc <_vsnprintf+0x5dc>
20003fb8:	0022      	movs	r2, r4
20003fba:	e690      	b.n	20003cde <_vsnprintf+0x2be>
20003fbc:	002a      	movs	r2, r5
20003fbe:	4655      	mov	r5, sl
20003fc0:	46a2      	mov	sl, r4
20003fc2:	e006      	b.n	20003fd2 <_vsnprintf+0x5b2>
20003fc4:	1c54      	adds	r4, r2, #1
20003fc6:	4643      	mov	r3, r8
20003fc8:	0029      	movs	r1, r5
20003fca:	2020      	movs	r0, #32
20003fcc:	47b0      	blx	r6
20003fce:	003b      	movs	r3, r7
20003fd0:	0022      	movs	r2, r4
20003fd2:	1c5f      	adds	r7, r3, #1
20003fd4:	990b      	ldr	r1, [sp, #44]	@ 0x2c
20003fd6:	4299      	cmp	r1, r3
20003fd8:	d8f4      	bhi.n	20003fc4 <_vsnprintf+0x5a4>
20003fda:	4654      	mov	r4, sl
20003fdc:	46aa      	mov	sl, r5
20003fde:	003b      	movs	r3, r7
20003fe0:	0025      	movs	r5, r4
20003fe2:	465f      	mov	r7, fp
20003fe4:	469b      	mov	fp, r3
20003fe6:	0033      	movs	r3, r6
20003fe8:	464e      	mov	r6, r9
20003fea:	4699      	mov	r9, r3
20003fec:	e006      	b.n	20003ffc <_vsnprintf+0x5dc>
20003fee:	001d      	movs	r5, r3
20003ff0:	3701      	adds	r7, #1
20003ff2:	1c54      	adds	r4, r2, #1
20003ff4:	4643      	mov	r3, r8
20003ff6:	4651      	mov	r1, sl
20003ff8:	47c8      	blx	r9
20003ffa:	0022      	movs	r2, r4
20003ffc:	7838      	ldrb	r0, [r7, #0]
20003ffe:	2800      	cmp	r0, #0
20004000:	d004      	beq.n	2000400c <_vsnprintf+0x5ec>
20004002:	2e00      	cmp	r6, #0
20004004:	d0f4      	beq.n	20003ff0 <_vsnprintf+0x5d0>
20004006:	1e6b      	subs	r3, r5, #1
20004008:	2d00      	cmp	r5, #0
2000400a:	d1f0      	bne.n	20003fee <_vsnprintf+0x5ce>
2000400c:	0015      	movs	r5, r2
2000400e:	465b      	mov	r3, fp
20004010:	464e      	mov	r6, r9
20004012:	9a10      	ldr	r2, [sp, #64]	@ 0x40
20004014:	2a00      	cmp	r2, #0
20004016:	d103      	bne.n	20004020 <_vsnprintf+0x600>
20004018:	9b11      	ldr	r3, [sp, #68]	@ 0x44
2000401a:	3301      	adds	r3, #1
2000401c:	9311      	str	r3, [sp, #68]	@ 0x44
2000401e:	e50f      	b.n	20003a40 <_vsnprintf+0x20>
20004020:	002a      	movs	r2, r5
20004022:	9f0b      	ldr	r7, [sp, #44]	@ 0x2c
20004024:	e006      	b.n	20004034 <_vsnprintf+0x614>
20004026:	1c55      	adds	r5, r2, #1
20004028:	4643      	mov	r3, r8
2000402a:	4651      	mov	r1, sl
2000402c:	2020      	movs	r0, #32
2000402e:	47b0      	blx	r6
20004030:	0023      	movs	r3, r4
20004032:	002a      	movs	r2, r5
20004034:	1c5c      	adds	r4, r3, #1
20004036:	429f      	cmp	r7, r3
20004038:	d8f5      	bhi.n	20004026 <_vsnprintf+0x606>
2000403a:	0015      	movs	r5, r2
2000403c:	e7ec      	b.n	20004018 <_vsnprintf+0x5f8>
2000403e:	2321      	movs	r3, #33	@ 0x21
20004040:	433b      	orrs	r3, r7
20004042:	9a1c      	ldr	r2, [sp, #112]	@ 0x70
20004044:	1d11      	adds	r1, r2, #4
20004046:	911c      	str	r1, [sp, #112]	@ 0x70
20004048:	6812      	ldr	r2, [r2, #0]
2000404a:	9305      	str	r3, [sp, #20]
2000404c:	2308      	movs	r3, #8
2000404e:	9304      	str	r3, [sp, #16]
20004050:	9403      	str	r4, [sp, #12]
20004052:	3308      	adds	r3, #8
20004054:	9302      	str	r3, [sp, #8]
20004056:	2300      	movs	r3, #0
20004058:	9301      	str	r3, [sp, #4]
2000405a:	9200      	str	r2, [sp, #0]
2000405c:	4643      	mov	r3, r8
2000405e:	002a      	movs	r2, r5
20004060:	4651      	mov	r1, sl
20004062:	0030      	movs	r0, r6
20004064:	f7ff f840 	bl	200030e8 <_ntoa_long>
20004068:	0005      	movs	r5, r0
2000406a:	9b11      	ldr	r3, [sp, #68]	@ 0x44
2000406c:	3301      	adds	r3, #1
2000406e:	9311      	str	r3, [sp, #68]	@ 0x44
20004070:	e4e6      	b.n	20003a40 <_vsnprintf+0x20>
20004072:	4b0b      	ldr	r3, [pc, #44]	@ (200040a0 <_vsnprintf+0x680>)
20004074:	469b      	mov	fp, r3
20004076:	e4e1      	b.n	20003a3c <_vsnprintf+0x1c>
20004078:	46b3      	mov	fp, r6
2000407a:	4545      	cmp	r5, r8
2000407c:	d30d      	bcc.n	2000409a <_vsnprintf+0x67a>
2000407e:	4643      	mov	r3, r8
20004080:	1e5a      	subs	r2, r3, #1
20004082:	4643      	mov	r3, r8
20004084:	4651      	mov	r1, sl
20004086:	2000      	movs	r0, #0
20004088:	47d8      	blx	fp
2000408a:	0028      	movs	r0, r5
2000408c:	b013      	add	sp, #76	@ 0x4c
2000408e:	bcf0      	pop	{r4, r5, r6, r7}
20004090:	46bb      	mov	fp, r7
20004092:	46b2      	mov	sl, r6
20004094:	46a9      	mov	r9, r5
20004096:	46a0      	mov	r8, r4
20004098:	bdf0      	pop	{r4, r5, r6, r7, pc}
2000409a:	002a      	movs	r2, r5
2000409c:	e7f1      	b.n	20004082 <_vsnprintf+0x662>
2000409e:	46c0      	nop			@ (mov r8, r8)
200040a0:	20002ee5 	.word	0x20002ee5

200040a4 <vfctprintf>:
200040a4:	b500      	push	{lr}
200040a6:	b085      	sub	sp, #20
200040a8:	468c      	mov	ip, r1
200040aa:	a902      	add	r1, sp, #8
200040ac:	9002      	str	r0, [sp, #8]
200040ae:	4660      	mov	r0, ip
200040b0:	6048      	str	r0, [r1, #4]
200040b2:	2001      	movs	r0, #1
200040b4:	4684      	mov	ip, r0
200040b6:	4804      	ldr	r0, [pc, #16]	@ (200040c8 <vfctprintf+0x24>)
200040b8:	9300      	str	r3, [sp, #0]
200040ba:	0013      	movs	r3, r2
200040bc:	4662      	mov	r2, ip
200040be:	4252      	negs	r2, r2
200040c0:	f7ff fcae 	bl	20003a20 <_vsnprintf>
200040c4:	b005      	add	sp, #20
200040c6:	bd00      	pop	{pc}
200040c8:	20002ee7 	.word	0x20002ee7

200040cc <_exit>:
200040cc:	be00      	bkpt	0x0000
200040ce:	e7fd      	b.n	200040cc <_exit>

200040d0 <exit>:
200040d0:	b510      	push	{r4, lr}
200040d2:	f7ff fffb 	bl	200040cc <_exit>
	...

200040d8 <__assert_func>:
200040d8:	b510      	push	{r4, lr}
200040da:	b082      	sub	sp, #8
200040dc:	4684      	mov	ip, r0
200040de:	000c      	movs	r4, r1
200040e0:	0019      	movs	r1, r3
200040e2:	2a00      	cmp	r2, #0
200040e4:	d00a      	beq.n	200040fc <__assert_func+0x24>
200040e6:	4b07      	ldr	r3, [pc, #28]	@ (20004104 <__assert_func+0x2c>)
200040e8:	4807      	ldr	r0, [pc, #28]	@ (20004108 <__assert_func+0x30>)
200040ea:	9201      	str	r2, [sp, #4]
200040ec:	9300      	str	r3, [sp, #0]
200040ee:	0023      	movs	r3, r4
200040f0:	4662      	mov	r2, ip
200040f2:	f000 f95f 	bl	200043b4 <__wrap_printf>
200040f6:	2001      	movs	r0, #1
200040f8:	f7ff ffe8 	bl	200040cc <_exit>
200040fc:	4b03      	ldr	r3, [pc, #12]	@ (2000410c <__assert_func+0x34>)
200040fe:	001a      	movs	r2, r3
20004100:	e7f2      	b.n	200040e8 <__assert_func+0x10>
20004102:	46c0      	nop			@ (mov r8, r8)
20004104:	20007768 	.word	0x20007768
20004108:	20007778 	.word	0x20007778
2000410c:	20007074 	.word	0x20007074

20004110 <runtime_init>:
20004110:	b510      	push	{r4, lr}
20004112:	f3ef 8305 	mrs	r3, IPSR
20004116:	2b00      	cmp	r3, #0
20004118:	d000      	beq.n	2000411c <runtime_init+0xc>
2000411a:	be00      	bkpt	0x0000
2000411c:	f7fd feec 	bl	20001ef8 <runtime_run_initializers>
20004120:	4c03      	ldr	r4, [pc, #12]	@ (20004130 <runtime_init+0x20>)
20004122:	e001      	b.n	20004128 <runtime_init+0x18>
20004124:	cc08      	ldmia	r4!, {r3}
20004126:	4798      	blx	r3
20004128:	4b02      	ldr	r3, [pc, #8]	@ (20004134 <runtime_init+0x24>)
2000412a:	429c      	cmp	r4, r3
2000412c:	d3fa      	bcc.n	20004124 <runtime_init+0x14>
2000412e:	bd10      	pop	{r4, pc}
20004130:	20007f38 	.word	0x20007f38
20004134:	20007f3c 	.word	0x20007f3c

20004138 <stdio_out_chars_no_crlf>:
20004138:	b510      	push	{r4, lr}
2000413a:	0003      	movs	r3, r0
2000413c:	0008      	movs	r0, r1
2000413e:	0011      	movs	r1, r2
20004140:	681b      	ldr	r3, [r3, #0]
20004142:	4798      	blx	r3
20004144:	bd10      	pop	{r4, pc}
	...

20004148 <stdio_out_chars_crlf>:
20004148:	b5f8      	push	{r3, r4, r5, r6, r7, lr}
2000414a:	0007      	movs	r7, r0
2000414c:	000d      	movs	r5, r1
2000414e:	0016      	movs	r6, r2
20004150:	7d43      	ldrb	r3, [r0, #21]
20004152:	2b00      	cmp	r3, #0
20004154:	d002      	beq.n	2000415c <stdio_out_chars_crlf+0x14>
20004156:	2400      	movs	r4, #0
20004158:	2000      	movs	r0, #0
2000415a:	e00c      	b.n	20004176 <stdio_out_chars_crlf+0x2e>
2000415c:	6803      	ldr	r3, [r0, #0]
2000415e:	0011      	movs	r1, r2
20004160:	0028      	movs	r0, r5
20004162:	4798      	blx	r3
20004164:	e02b      	b.n	200041be <stdio_out_chars_crlf+0x76>
20004166:	7d3b      	ldrb	r3, [r7, #20]
20004168:	e00f      	b.n	2000418a <stdio_out_chars_crlf+0x42>
2000416a:	683b      	ldr	r3, [r7, #0]
2000416c:	4814      	ldr	r0, [pc, #80]	@ (200041c0 <stdio_out_chars_crlf+0x78>)
2000416e:	2102      	movs	r1, #2
20004170:	4798      	blx	r3
20004172:	1c60      	adds	r0, r4, #1
20004174:	3401      	adds	r4, #1
20004176:	42b4      	cmp	r4, r6
20004178:	da13      	bge.n	200041a2 <stdio_out_chars_crlf+0x5a>
2000417a:	2c00      	cmp	r4, #0
2000417c:	ddf3      	ble.n	20004166 <stdio_out_chars_crlf+0x1e>
2000417e:	1e63      	subs	r3, r4, #1
20004180:	5ceb      	ldrb	r3, [r5, r3]
20004182:	3b0d      	subs	r3, #13
20004184:	425a      	negs	r2, r3
20004186:	4153      	adcs	r3, r2
20004188:	b2db      	uxtb	r3, r3
2000418a:	5d2a      	ldrb	r2, [r5, r4]
2000418c:	2a0a      	cmp	r2, #10
2000418e:	d1f1      	bne.n	20004174 <stdio_out_chars_crlf+0x2c>
20004190:	2b00      	cmp	r3, #0
20004192:	d1ef      	bne.n	20004174 <stdio_out_chars_crlf+0x2c>
20004194:	42a0      	cmp	r0, r4
20004196:	dae8      	bge.n	2000416a <stdio_out_chars_crlf+0x22>
20004198:	683b      	ldr	r3, [r7, #0]
2000419a:	1a21      	subs	r1, r4, r0
2000419c:	1828      	adds	r0, r5, r0
2000419e:	4798      	blx	r3
200041a0:	e7e3      	b.n	2000416a <stdio_out_chars_crlf+0x22>
200041a2:	42b0      	cmp	r0, r6
200041a4:	da03      	bge.n	200041ae <stdio_out_chars_crlf+0x66>
200041a6:	683b      	ldr	r3, [r7, #0]
200041a8:	1a31      	subs	r1, r6, r0
200041aa:	1828      	adds	r0, r5, r0
200041ac:	4798      	blx	r3
200041ae:	2e00      	cmp	r6, #0
200041b0:	dd05      	ble.n	200041be <stdio_out_chars_crlf+0x76>
200041b2:	3e01      	subs	r6, #1
200041b4:	5dab      	ldrb	r3, [r5, r6]
200041b6:	3b0d      	subs	r3, #13
200041b8:	425a      	negs	r2, r3
200041ba:	4153      	adcs	r3, r2
200041bc:	753b      	strb	r3, [r7, #20]
200041be:	bdf8      	pop	{r3, r4, r5, r6, r7, pc}
200041c0:	20007bc0 	.word	0x20007bc0

200041c4 <stdio_stack_buffer_flush>:
200041c4:	b570      	push	{r4, r5, r6, lr}
200041c6:	0005      	movs	r5, r0
200041c8:	6803      	ldr	r3, [r0, #0]
200041ca:	2b00      	cmp	r3, #0
200041cc:	d016      	beq.n	200041fc <stdio_stack_buffer_flush+0x38>
200041ce:	4b0c      	ldr	r3, [pc, #48]	@ (20004200 <stdio_stack_buffer_flush+0x3c>)
200041d0:	681c      	ldr	r4, [r3, #0]
200041d2:	e005      	b.n	200041e0 <stdio_stack_buffer_flush+0x1c>
200041d4:	0029      	movs	r1, r5
200041d6:	c904      	ldmia	r1!, {r2}
200041d8:	0020      	movs	r0, r4
200041da:	f7ff ffb5 	bl	20004148 <stdio_out_chars_crlf>
200041de:	6924      	ldr	r4, [r4, #16]
200041e0:	2c00      	cmp	r4, #0
200041e2:	d009      	beq.n	200041f8 <stdio_stack_buffer_flush+0x34>
200041e4:	6823      	ldr	r3, [r4, #0]
200041e6:	2b00      	cmp	r3, #0
200041e8:	d0f9      	beq.n	200041de <stdio_stack_buffer_flush+0x1a>
200041ea:	4b06      	ldr	r3, [pc, #24]	@ (20004204 <stdio_stack_buffer_flush+0x40>)
200041ec:	681b      	ldr	r3, [r3, #0]
200041ee:	2b00      	cmp	r3, #0
200041f0:	d0f0      	beq.n	200041d4 <stdio_stack_buffer_flush+0x10>
200041f2:	42a3      	cmp	r3, r4
200041f4:	d1f3      	bne.n	200041de <stdio_stack_buffer_flush+0x1a>
200041f6:	e7ed      	b.n	200041d4 <stdio_stack_buffer_flush+0x10>
200041f8:	2300      	movs	r3, #0
200041fa:	602b      	str	r3, [r5, #0]
200041fc:	bd70      	pop	{r4, r5, r6, pc}
200041fe:	46c0      	nop			@ (mov r8, r8)
20004200:	200086c0 	.word	0x200086c0
20004204:	200086c8 	.word	0x200086c8

20004208 <stdio_buffered_printer>:
20004208:	b570      	push	{r4, r5, r6, lr}
2000420a:	0005      	movs	r5, r0
2000420c:	000c      	movs	r4, r1
2000420e:	680b      	ldr	r3, [r1, #0]
20004210:	2b80      	cmp	r3, #128	@ 0x80
20004212:	d005      	beq.n	20004220 <stdio_buffered_printer+0x18>
20004214:	6823      	ldr	r3, [r4, #0]
20004216:	1c5a      	adds	r2, r3, #1
20004218:	6022      	str	r2, [r4, #0]
2000421a:	18e4      	adds	r4, r4, r3
2000421c:	7125      	strb	r5, [r4, #4]
2000421e:	bd70      	pop	{r4, r5, r6, pc}
20004220:	0008      	movs	r0, r1
20004222:	f7ff ffcf 	bl	200041c4 <stdio_stack_buffer_flush>
20004226:	e7f5      	b.n	20004214 <stdio_buffered_printer+0xc>

20004228 <stdout_serialize_begin>:
20004228:	b510      	push	{r4, lr}
2000422a:	f7fd fc69 	bl	20001b00 <time_us_64>
2000422e:	4a07      	ldr	r2, [pc, #28]	@ (2000424c <stdout_serialize_begin+0x24>)
20004230:	2300      	movs	r3, #0
20004232:	1812      	adds	r2, r2, r0
20004234:	414b      	adcs	r3, r1
20004236:	2b00      	cmp	r3, #0
20004238:	db03      	blt.n	20004242 <stdout_serialize_begin+0x1a>
2000423a:	4805      	ldr	r0, [pc, #20]	@ (20004250 <stdout_serialize_begin+0x28>)
2000423c:	f7fc f82e 	bl	2000029c <mutex_try_enter_block_until>
20004240:	bd10      	pop	{r4, pc}
20004242:	2201      	movs	r2, #1
20004244:	4252      	negs	r2, r2
20004246:	4b03      	ldr	r3, [pc, #12]	@ (20004254 <stdout_serialize_begin+0x2c>)
20004248:	e7f7      	b.n	2000423a <stdout_serialize_begin+0x12>
2000424a:	46c0      	nop			@ (mov r8, r8)
2000424c:	000f4240 	.word	0x000f4240
20004250:	20007ef8 	.word	0x20007ef8
20004254:	7fffffff 	.word	0x7fffffff

20004258 <stdout_serialize_end>:
20004258:	b510      	push	{r4, lr}
2000425a:	4802      	ldr	r0, [pc, #8]	@ (20004264 <stdout_serialize_end+0xc>)
2000425c:	f7fc f856 	bl	2000030c <mutex_exit>
20004260:	bd10      	pop	{r4, pc}
20004262:	46c0      	nop			@ (mov r8, r8)
20004264:	20007ef8 	.word	0x20007ef8

20004268 <stdio_put_string>:
20004268:	b5f0      	push	{r4, r5, r6, r7, lr}
2000426a:	46ce      	mov	lr, r9
2000426c:	4647      	mov	r7, r8
2000426e:	b580      	push	{r7, lr}
20004270:	b083      	sub	sp, #12
20004272:	4680      	mov	r8, r0
20004274:	000d      	movs	r5, r1
20004276:	0016      	movs	r6, r2
20004278:	001c      	movs	r4, r3
2000427a:	f7ff ffd5 	bl	20004228 <stdout_serialize_begin>
2000427e:	4681      	mov	r9, r0
20004280:	1c6b      	adds	r3, r5, #1
20004282:	d005      	beq.n	20004290 <stdio_put_string+0x28>
20004284:	2c00      	cmp	r4, #0
20004286:	d008      	beq.n	2000429a <stdio_put_string+0x32>
20004288:	4f18      	ldr	r7, [pc, #96]	@ (200042ec <stdio_put_string+0x84>)
2000428a:	4b19      	ldr	r3, [pc, #100]	@ (200042f0 <stdio_put_string+0x88>)
2000428c:	681c      	ldr	r4, [r3, #0]
2000428e:	e007      	b.n	200042a0 <stdio_put_string+0x38>
20004290:	4640      	mov	r0, r8
20004292:	f002 feb1 	bl	20006ff8 <strlen>
20004296:	0005      	movs	r5, r0
20004298:	e7f4      	b.n	20004284 <stdio_put_string+0x1c>
2000429a:	4f16      	ldr	r7, [pc, #88]	@ (200042f4 <stdio_put_string+0x8c>)
2000429c:	e7f5      	b.n	2000428a <stdio_put_string+0x22>
2000429e:	6924      	ldr	r4, [r4, #16]
200042a0:	2c00      	cmp	r4, #0
200042a2:	d016      	beq.n	200042d2 <stdio_put_string+0x6a>
200042a4:	6823      	ldr	r3, [r4, #0]
200042a6:	2b00      	cmp	r3, #0
200042a8:	d0f9      	beq.n	2000429e <stdio_put_string+0x36>
200042aa:	4b13      	ldr	r3, [pc, #76]	@ (200042f8 <stdio_put_string+0x90>)
200042ac:	681b      	ldr	r3, [r3, #0]
200042ae:	2b00      	cmp	r3, #0
200042b0:	d001      	beq.n	200042b6 <stdio_put_string+0x4e>
200042b2:	42a3      	cmp	r3, r4
200042b4:	d1f3      	bne.n	2000429e <stdio_put_string+0x36>
200042b6:	002a      	movs	r2, r5
200042b8:	4641      	mov	r1, r8
200042ba:	0020      	movs	r0, r4
200042bc:	47b8      	blx	r7
200042be:	2e00      	cmp	r6, #0
200042c0:	d0ed      	beq.n	2000429e <stdio_put_string+0x36>
200042c2:	466b      	mov	r3, sp
200042c4:	1dd9      	adds	r1, r3, #7
200042c6:	230a      	movs	r3, #10
200042c8:	700b      	strb	r3, [r1, #0]
200042ca:	2201      	movs	r2, #1
200042cc:	0020      	movs	r0, r4
200042ce:	47b8      	blx	r7
200042d0:	e7e5      	b.n	2000429e <stdio_put_string+0x36>
200042d2:	464b      	mov	r3, r9
200042d4:	2b00      	cmp	r3, #0
200042d6:	d105      	bne.n	200042e4 <stdio_put_string+0x7c>
200042d8:	0028      	movs	r0, r5
200042da:	b003      	add	sp, #12
200042dc:	bcc0      	pop	{r6, r7}
200042de:	46b9      	mov	r9, r7
200042e0:	46b0      	mov	r8, r6
200042e2:	bdf0      	pop	{r4, r5, r6, r7, pc}
200042e4:	f7ff ffb8 	bl	20004258 <stdout_serialize_end>
200042e8:	e7f6      	b.n	200042d8 <stdio_put_string+0x70>
200042ea:	46c0      	nop			@ (mov r8, r8)
200042ec:	20004149 	.word	0x20004149
200042f0:	200086c0 	.word	0x200086c0
200042f4:	20004139 	.word	0x20004139
200042f8:	200086c8 	.word	0x200086c8

200042fc <stdio_set_driver_enabled>:
200042fc:	4a0a      	ldr	r2, [pc, #40]	@ (20004328 <stdio_set_driver_enabled+0x2c>)
200042fe:	6813      	ldr	r3, [r2, #0]
20004300:	e002      	b.n	20004308 <stdio_set_driver_enabled+0xc>
20004302:	001a      	movs	r2, r3
20004304:	3210      	adds	r2, #16
20004306:	691b      	ldr	r3, [r3, #16]
20004308:	2b00      	cmp	r3, #0
2000430a:	d009      	beq.n	20004320 <stdio_set_driver_enabled+0x24>
2000430c:	6813      	ldr	r3, [r2, #0]
2000430e:	4283      	cmp	r3, r0
20004310:	d1f7      	bne.n	20004302 <stdio_set_driver_enabled+0x6>
20004312:	2900      	cmp	r1, #0
20004314:	d107      	bne.n	20004326 <stdio_set_driver_enabled+0x2a>
20004316:	6903      	ldr	r3, [r0, #16]
20004318:	6013      	str	r3, [r2, #0]
2000431a:	2300      	movs	r3, #0
2000431c:	6103      	str	r3, [r0, #16]
2000431e:	e002      	b.n	20004326 <stdio_set_driver_enabled+0x2a>
20004320:	2900      	cmp	r1, #0
20004322:	d000      	beq.n	20004326 <stdio_set_driver_enabled+0x2a>
20004324:	6010      	str	r0, [r2, #0]
20004326:	4770      	bx	lr
20004328:	200086c0 	.word	0x200086c0

2000432c <stdio_flush>:
2000432c:	b510      	push	{r4, lr}
2000432e:	4b06      	ldr	r3, [pc, #24]	@ (20004348 <stdio_flush+0x1c>)
20004330:	681c      	ldr	r4, [r3, #0]
20004332:	e000      	b.n	20004336 <stdio_flush+0xa>
20004334:	6924      	ldr	r4, [r4, #16]
20004336:	2c00      	cmp	r4, #0
20004338:	d004      	beq.n	20004344 <stdio_flush+0x18>
2000433a:	6863      	ldr	r3, [r4, #4]
2000433c:	2b00      	cmp	r3, #0
2000433e:	d0f9      	beq.n	20004334 <stdio_flush+0x8>
20004340:	4798      	blx	r3
20004342:	e7f7      	b.n	20004334 <stdio_flush+0x8>
20004344:	bd10      	pop	{r4, pc}
20004346:	46c0      	nop			@ (mov r8, r8)
20004348:	200086c0 	.word	0x200086c0

2000434c <stdio_init_all>:
2000434c:	b510      	push	{r4, lr}
2000434e:	f000 f9cf 	bl	200046f0 <stdio_usb_init>
20004352:	bd10      	pop	{r4, pc}

20004354 <__wrap_puts>:
20004354:	b570      	push	{r4, r5, r6, lr}
20004356:	0005      	movs	r5, r0
20004358:	f002 fe4e 	bl	20006ff8 <strlen>
2000435c:	0004      	movs	r4, r0
2000435e:	2301      	movs	r3, #1
20004360:	2201      	movs	r2, #1
20004362:	0001      	movs	r1, r0
20004364:	0028      	movs	r0, r5
20004366:	f7ff ff7f 	bl	20004268 <stdio_put_string>
2000436a:	f7ff ffdf 	bl	2000432c <stdio_flush>
2000436e:	0020      	movs	r0, r4
20004370:	bd70      	pop	{r4, r5, r6, pc}
	...

20004374 <__wrap_vprintf>:
20004374:	b5f0      	push	{r4, r5, r6, r7, lr}
20004376:	b0a3      	sub	sp, #140	@ 0x8c
20004378:	0007      	movs	r7, r0
2000437a:	000e      	movs	r6, r1
2000437c:	f7ff ff54 	bl	20004228 <stdout_serialize_begin>
20004380:	0005      	movs	r5, r0
20004382:	ac01      	add	r4, sp, #4
20004384:	2300      	movs	r3, #0
20004386:	9301      	str	r3, [sp, #4]
20004388:	4809      	ldr	r0, [pc, #36]	@ (200043b0 <__wrap_vprintf+0x3c>)
2000438a:	0033      	movs	r3, r6
2000438c:	003a      	movs	r2, r7
2000438e:	0021      	movs	r1, r4
20004390:	f7ff fe88 	bl	200040a4 <vfctprintf>
20004394:	0006      	movs	r6, r0
20004396:	0020      	movs	r0, r4
20004398:	f7ff ff14 	bl	200041c4 <stdio_stack_buffer_flush>
2000439c:	f7ff ffc6 	bl	2000432c <stdio_flush>
200043a0:	2d00      	cmp	r5, #0
200043a2:	d102      	bne.n	200043aa <__wrap_vprintf+0x36>
200043a4:	0030      	movs	r0, r6
200043a6:	b023      	add	sp, #140	@ 0x8c
200043a8:	bdf0      	pop	{r4, r5, r6, r7, pc}
200043aa:	f7ff ff55 	bl	20004258 <stdout_serialize_end>
200043ae:	e7f9      	b.n	200043a4 <__wrap_vprintf+0x30>
200043b0:	20004209 	.word	0x20004209

200043b4 <__wrap_printf>:
200043b4:	b40f      	push	{r0, r1, r2, r3}
200043b6:	b500      	push	{lr}
200043b8:	b083      	sub	sp, #12
200043ba:	a904      	add	r1, sp, #16
200043bc:	c901      	ldmia	r1!, {r0}
200043be:	9101      	str	r1, [sp, #4]
200043c0:	f7ff ffd8 	bl	20004374 <__wrap_vprintf>
200043c4:	b003      	add	sp, #12
200043c6:	bc08      	pop	{r3}
200043c8:	b004      	add	sp, #16
200043ca:	4718      	bx	r3

200043cc <resetd_init>:
200043cc:	4770      	bx	lr
	...

200043d0 <resetd_reset>:
200043d0:	4b01      	ldr	r3, [pc, #4]	@ (200043d8 <resetd_reset+0x8>)
200043d2:	2200      	movs	r2, #0
200043d4:	701a      	strb	r2, [r3, #0]
200043d6:	4770      	bx	lr
200043d8:	20008d19 	.word	0x20008d19

200043dc <resetd_open>:
200043dc:	794b      	ldrb	r3, [r1, #5]
200043de:	2bff      	cmp	r3, #255	@ 0xff
200043e0:	d10c      	bne.n	200043fc <resetd_open+0x20>
200043e2:	798b      	ldrb	r3, [r1, #6]
200043e4:	2b00      	cmp	r3, #0
200043e6:	d10b      	bne.n	20004400 <resetd_open+0x24>
200043e8:	79cb      	ldrb	r3, [r1, #7]
200043ea:	2b01      	cmp	r3, #1
200043ec:	d10a      	bne.n	20004404 <resetd_open+0x28>
200043ee:	2a08      	cmp	r2, #8
200043f0:	d90a      	bls.n	20004408 <resetd_open+0x2c>
200043f2:	788a      	ldrb	r2, [r1, #2]
200043f4:	4b05      	ldr	r3, [pc, #20]	@ (2000440c <resetd_open+0x30>)
200043f6:	701a      	strb	r2, [r3, #0]
200043f8:	2009      	movs	r0, #9
200043fa:	e000      	b.n	200043fe <resetd_open+0x22>
200043fc:	2000      	movs	r0, #0
200043fe:	4770      	bx	lr
20004400:	2000      	movs	r0, #0
20004402:	e7fc      	b.n	200043fe <resetd_open+0x22>
20004404:	2000      	movs	r0, #0
20004406:	e7fa      	b.n	200043fe <resetd_open+0x22>
20004408:	2000      	movs	r0, #0
2000440a:	e7f8      	b.n	200043fe <resetd_open+0x22>
2000440c:	20008d19 	.word	0x20008d19

20004410 <resetd_xfer_cb>:
20004410:	2001      	movs	r0, #1
20004412:	4770      	bx	lr

20004414 <resetd_control_xfer_cb>:
20004414:	b510      	push	{r4, lr}
20004416:	2901      	cmp	r1, #1
20004418:	d127      	bne.n	2000446a <resetd_control_xfer_cb+0x56>
2000441a:	7911      	ldrb	r1, [r2, #4]
2000441c:	7953      	ldrb	r3, [r2, #5]
2000441e:	021b      	lsls	r3, r3, #8
20004420:	430b      	orrs	r3, r1
20004422:	4913      	ldr	r1, [pc, #76]	@ (20004470 <resetd_control_xfer_cb+0x5c>)
20004424:	7809      	ldrb	r1, [r1, #0]
20004426:	428b      	cmp	r3, r1
20004428:	d001      	beq.n	2000442e <resetd_control_xfer_cb+0x1a>
2000442a:	2000      	movs	r0, #0
2000442c:	e01e      	b.n	2000446c <resetd_control_xfer_cb+0x58>
2000442e:	7853      	ldrb	r3, [r2, #1]
20004430:	2b01      	cmp	r3, #1
20004432:	d003      	beq.n	2000443c <resetd_control_xfer_cb+0x28>
20004434:	2b02      	cmp	r3, #2
20004436:	d011      	beq.n	2000445c <resetd_control_xfer_cb+0x48>
20004438:	2000      	movs	r0, #0
2000443a:	e017      	b.n	2000446c <resetd_control_xfer_cb+0x58>
2000443c:	7891      	ldrb	r1, [r2, #2]
2000443e:	78d3      	ldrb	r3, [r2, #3]
20004440:	021b      	lsls	r3, r3, #8
20004442:	4319      	orrs	r1, r3
20004444:	05db      	lsls	r3, r3, #23
20004446:	d506      	bpl.n	20004456 <resetd_control_xfer_cb+0x42>
20004448:	0a48      	lsrs	r0, r1, #9
2000444a:	058a      	lsls	r2, r1, #22
2000444c:	0fd2      	lsrs	r2, r2, #31
2000444e:	237f      	movs	r3, #127	@ 0x7f
20004450:	4019      	ands	r1, r3
20004452:	f7fd fd1b 	bl	20001e8c <rom_reset_usb_boot_extra>
20004456:	2001      	movs	r0, #1
20004458:	4240      	negs	r0, r0
2000445a:	e7f6      	b.n	2000444a <resetd_control_xfer_cb+0x36>
2000445c:	2264      	movs	r2, #100	@ 0x64
2000445e:	2100      	movs	r1, #0
20004460:	2000      	movs	r0, #0
20004462:	f7fd fcbb 	bl	20001ddc <watchdog_reboot>
20004466:	2001      	movs	r0, #1
20004468:	e000      	b.n	2000446c <resetd_control_xfer_cb+0x58>
2000446a:	2001      	movs	r0, #1
2000446c:	bd10      	pop	{r4, pc}
2000446e:	46c0      	nop			@ (mov r8, r8)
20004470:	20008d19 	.word	0x20008d19

20004474 <tud_descriptor_bos_cb>:
20004474:	4800      	ldr	r0, [pc, #0]	@ (20004478 <tud_descriptor_bos_cb+0x4>)
20004476:	4770      	bx	lr
20004478:	20007c8c 	.word	0x20007c8c

2000447c <tud_vendor_control_xfer_cb>:
2000447c:	b510      	push	{r4, lr}
2000447e:	0004      	movs	r4, r0
20004480:	0010      	movs	r0, r2
20004482:	2901      	cmp	r1, #1
20004484:	d111      	bne.n	200044aa <tud_vendor_control_xfer_cb+0x2e>
20004486:	7853      	ldrb	r3, [r2, #1]
20004488:	2b01      	cmp	r3, #1
2000448a:	d110      	bne.n	200044ae <tud_vendor_control_xfer_cb+0x32>
2000448c:	7912      	ldrb	r2, [r2, #4]
2000448e:	7943      	ldrb	r3, [r0, #5]
20004490:	021b      	lsls	r3, r3, #8
20004492:	4313      	orrs	r3, r2
20004494:	2b07      	cmp	r3, #7
20004496:	d001      	beq.n	2000449c <tud_vendor_control_xfer_cb+0x20>
20004498:	2000      	movs	r0, #0
2000449a:	e007      	b.n	200044ac <tud_vendor_control_xfer_cb+0x30>
2000449c:	4a05      	ldr	r2, [pc, #20]	@ (200044b4 <tud_vendor_control_xfer_cb+0x38>)
2000449e:	339f      	adds	r3, #159	@ 0x9f
200044a0:	0001      	movs	r1, r0
200044a2:	0020      	movs	r0, r4
200044a4:	f001 fac4 	bl	20005a30 <tud_control_xfer>
200044a8:	e000      	b.n	200044ac <tud_vendor_control_xfer_cb+0x30>
200044aa:	2001      	movs	r0, #1
200044ac:	bd10      	pop	{r4, pc}
200044ae:	2000      	movs	r0, #0
200044b0:	e7fc      	b.n	200044ac <tud_vendor_control_xfer_cb+0x30>
200044b2:	46c0      	nop			@ (mov r8, r8)
200044b4:	20007be4 	.word	0x20007be4

200044b8 <usbd_app_driver_get_cb>:
200044b8:	2301      	movs	r3, #1
200044ba:	7003      	strb	r3, [r0, #0]
200044bc:	4800      	ldr	r0, [pc, #0]	@ (200044c0 <usbd_app_driver_get_cb+0x8>)
200044be:	4770      	bx	lr
200044c0:	20007bc4 	.word	0x20007bc4

200044c4 <tud_cdc_line_coding_cb>:
200044c4:	b510      	push	{r4, lr}
200044c6:	780a      	ldrb	r2, [r1, #0]
200044c8:	784b      	ldrb	r3, [r1, #1]
200044ca:	021b      	lsls	r3, r3, #8
200044cc:	4313      	orrs	r3, r2
200044ce:	788a      	ldrb	r2, [r1, #2]
200044d0:	0412      	lsls	r2, r2, #16
200044d2:	431a      	orrs	r2, r3
200044d4:	78cb      	ldrb	r3, [r1, #3]
200044d6:	061b      	lsls	r3, r3, #24
200044d8:	4313      	orrs	r3, r2
200044da:	2296      	movs	r2, #150	@ 0x96
200044dc:	00d2      	lsls	r2, r2, #3
200044de:	4293      	cmp	r3, r2
200044e0:	d000      	beq.n	200044e4 <tud_cdc_line_coding_cb+0x20>
200044e2:	bd10      	pop	{r4, pc}
200044e4:	2001      	movs	r0, #1
200044e6:	2200      	movs	r2, #0
200044e8:	0011      	movs	r1, r2
200044ea:	4240      	negs	r0, r0
200044ec:	f7fd fcce 	bl	20001e8c <rom_reset_usb_boot_extra>

200044f0 <stdio_usb_set_chars_available_callback>:
200044f0:	4b02      	ldr	r3, [pc, #8]	@ (200044fc <stdio_usb_set_chars_available_callback+0xc>)
200044f2:	6018      	str	r0, [r3, #0]
200044f4:	4b02      	ldr	r3, [pc, #8]	@ (20004500 <stdio_usb_set_chars_available_callback+0x10>)
200044f6:	6019      	str	r1, [r3, #0]
200044f8:	4770      	bx	lr
200044fa:	46c0      	nop			@ (mov r8, r8)
200044fc:	20008660 	.word	0x20008660
20004500:	20008664 	.word	0x20008664

20004504 <stdio_usb_out_flush>:
20004504:	b510      	push	{r4, lr}
20004506:	f7fd fafb 	bl	20001b00 <time_us_64>
2000450a:	4a0e      	ldr	r2, [pc, #56]	@ (20004544 <stdio_usb_out_flush+0x40>)
2000450c:	2300      	movs	r3, #0
2000450e:	1812      	adds	r2, r2, r0
20004510:	414b      	adcs	r3, r1
20004512:	2b00      	cmp	r3, #0
20004514:	db12      	blt.n	2000453c <stdio_usb_out_flush+0x38>
20004516:	480c      	ldr	r0, [pc, #48]	@ (20004548 <stdio_usb_out_flush+0x44>)
20004518:	f7fb fec0 	bl	2000029c <mutex_try_enter_block_until>
2000451c:	2800      	cmp	r0, #0
2000451e:	d00c      	beq.n	2000453a <stdio_usb_out_flush+0x36>
20004520:	2001      	movs	r0, #1
20004522:	2100      	movs	r1, #0
20004524:	4240      	negs	r0, r0
20004526:	f001 f951 	bl	200057cc <tud_task_ext>
2000452a:	2000      	movs	r0, #0
2000452c:	f001 fbb6 	bl	20005c9c <tud_cdc_n_write_flush>
20004530:	2800      	cmp	r0, #0
20004532:	d1f5      	bne.n	20004520 <stdio_usb_out_flush+0x1c>
20004534:	4804      	ldr	r0, [pc, #16]	@ (20004548 <stdio_usb_out_flush+0x44>)
20004536:	f7fb fee9 	bl	2000030c <mutex_exit>
2000453a:	bd10      	pop	{r4, pc}
2000453c:	2201      	movs	r2, #1
2000453e:	4252      	negs	r2, r2
20004540:	4b02      	ldr	r3, [pc, #8]	@ (2000454c <stdio_usb_out_flush+0x48>)
20004542:	e7e8      	b.n	20004516 <stdio_usb_out_flush+0x12>
20004544:	000f4240 	.word	0x000f4240
20004548:	20008cfc 	.word	0x20008cfc
2000454c:	7fffffff 	.word	0x7fffffff

20004550 <usb_irq>:
20004550:	b510      	push	{r4, lr}
20004552:	4b02      	ldr	r3, [pc, #8]	@ (2000455c <usb_irq+0xc>)
20004554:	7818      	ldrb	r0, [r3, #0]
20004556:	f7fc fc6f 	bl	20000e38 <irq_set_pending>
2000455a:	bd10      	pop	{r4, pc}
2000455c:	20008d1a 	.word	0x20008d1a

20004560 <timer_task>:
20004560:	b570      	push	{r4, r5, r6, lr}
20004562:	4b1a      	ldr	r3, [pc, #104]	@ (200045cc <timer_task+0x6c>)
20004564:	681b      	ldr	r3, [r3, #0]
20004566:	2b00      	cmp	r3, #0
20004568:	d024      	beq.n	200045b4 <timer_task+0x54>
2000456a:	f3ef 8210 	mrs	r2, PRIMASK
2000456e:	b672      	cpsid	i
20004570:	0010      	movs	r0, r2
20004572:	6819      	ldr	r1, [r3, #0]
20004574:	2900      	cmp	r1, #0
20004576:	d0fc      	beq.n	20004572 <timer_task+0x12>
20004578:	f3bf 8f5f 	dmb	sy
2000457c:	4913      	ldr	r1, [pc, #76]	@ (200045cc <timer_task+0x6c>)
2000457e:	604a      	str	r2, [r1, #4]
20004580:	4b13      	ldr	r3, [pc, #76]	@ (200045d0 <timer_task+0x70>)
20004582:	2200      	movs	r2, #0
20004584:	701a      	strb	r2, [r3, #0]
20004586:	680b      	ldr	r3, [r1, #0]
20004588:	f3bf 8f5f 	dmb	sy
2000458c:	601a      	str	r2, [r3, #0]
2000458e:	f380 8810 	msr	PRIMASK, r0
20004592:	2200      	movs	r2, #0
20004594:	2300      	movs	r3, #0
20004596:	0014      	movs	r4, r2
20004598:	001d      	movs	r5, r3
2000459a:	4b0e      	ldr	r3, [pc, #56]	@ (200045d4 <timer_task+0x74>)
2000459c:	7818      	ldrb	r0, [r3, #0]
2000459e:	f7fc fc27 	bl	20000df0 <irq_is_enabled>
200045a2:	2800      	cmp	r0, #0
200045a4:	d10c      	bne.n	200045c0 <timer_task+0x60>
200045a6:	2200      	movs	r2, #0
200045a8:	2300      	movs	r3, #0
200045aa:	0014      	movs	r4, r2
200045ac:	001d      	movs	r5, r3
200045ae:	0020      	movs	r0, r4
200045b0:	0029      	movs	r1, r5
200045b2:	bd70      	pop	{r4, r5, r6, pc}
200045b4:	22fa      	movs	r2, #250	@ 0xfa
200045b6:	0092      	lsls	r2, r2, #2
200045b8:	2300      	movs	r3, #0
200045ba:	0014      	movs	r4, r2
200045bc:	001d      	movs	r5, r3
200045be:	e7ec      	b.n	2000459a <timer_task+0x3a>
200045c0:	4b04      	ldr	r3, [pc, #16]	@ (200045d4 <timer_task+0x74>)
200045c2:	7818      	ldrb	r0, [r3, #0]
200045c4:	f7fc fc38 	bl	20000e38 <irq_set_pending>
200045c8:	e7f1      	b.n	200045ae <timer_task+0x4e>
200045ca:	46c0      	nop			@ (mov r8, r8)
200045cc:	20008ad4 	.word	0x20008ad4
200045d0:	20008d1b 	.word	0x20008d1b
200045d4:	20008d1a 	.word	0x20008d1a

200045d8 <alarm_pool_add_alarm_in_us>:
200045d8:	b5f0      	push	{r4, r5, r6, r7, lr}
200045da:	b085      	sub	sp, #20
200045dc:	0007      	movs	r7, r0
200045de:	0015      	movs	r5, r2
200045e0:	001e      	movs	r6, r3
200045e2:	ab0c      	add	r3, sp, #48	@ 0x30
200045e4:	781c      	ldrb	r4, [r3, #0]
200045e6:	f7fd fa8b 	bl	20001b00 <time_us_64>
200045ea:	002a      	movs	r2, r5
200045ec:	0033      	movs	r3, r6
200045ee:	1812      	adds	r2, r2, r0
200045f0:	414b      	adcs	r3, r1
200045f2:	2b00      	cmp	r3, #0
200045f4:	db09      	blt.n	2000460a <alarm_pool_add_alarm_in_us+0x32>
200045f6:	9402      	str	r4, [sp, #8]
200045f8:	990b      	ldr	r1, [sp, #44]	@ 0x2c
200045fa:	9101      	str	r1, [sp, #4]
200045fc:	990a      	ldr	r1, [sp, #40]	@ 0x28
200045fe:	9100      	str	r1, [sp, #0]
20004600:	0038      	movs	r0, r7
20004602:	f7fd f8b7 	bl	20001774 <alarm_pool_add_alarm_at>
20004606:	b005      	add	sp, #20
20004608:	bdf0      	pop	{r4, r5, r6, r7, pc}
2000460a:	2201      	movs	r2, #1
2000460c:	4252      	negs	r2, r2
2000460e:	4b01      	ldr	r3, [pc, #4]	@ (20004614 <alarm_pool_add_alarm_in_us+0x3c>)
20004610:	e7f1      	b.n	200045f6 <alarm_pool_add_alarm_in_us+0x1e>
20004612:	46c0      	nop			@ (mov r8, r8)
20004614:	7fffffff 	.word	0x7fffffff

20004618 <add_alarm_in_us>:
20004618:	b5f0      	push	{r4, r5, r6, r7, lr}
2000461a:	46c6      	mov	lr, r8
2000461c:	b500      	push	{lr}
2000461e:	b084      	sub	sp, #16
20004620:	4680      	mov	r8, r0
20004622:	000f      	movs	r7, r1
20004624:	0016      	movs	r6, r2
20004626:	001d      	movs	r5, r3
20004628:	ab0a      	add	r3, sp, #40	@ 0x28
2000462a:	781c      	ldrb	r4, [r3, #0]
2000462c:	f7fd f83a 	bl	200016a4 <alarm_pool_get_default>
20004630:	9402      	str	r4, [sp, #8]
20004632:	9501      	str	r5, [sp, #4]
20004634:	9600      	str	r6, [sp, #0]
20004636:	4642      	mov	r2, r8
20004638:	003b      	movs	r3, r7
2000463a:	f7ff ffcd 	bl	200045d8 <alarm_pool_add_alarm_in_us>
2000463e:	b004      	add	sp, #16
20004640:	bc80      	pop	{r7}
20004642:	46b8      	mov	r8, r7
20004644:	bdf0      	pop	{r4, r5, r6, r7, pc}
	...

20004648 <low_priority_worker_irq>:
20004648:	b510      	push	{r4, lr}
2000464a:	b082      	sub	sp, #8
2000464c:	4822      	ldr	r0, [pc, #136]	@ (200046d8 <low_priority_worker_irq+0x90>)
2000464e:	2100      	movs	r1, #0
20004650:	f7fb fdc0 	bl	200001d4 <mutex_try_enter>
20004654:	2800      	cmp	r0, #0
20004656:	d11e      	bne.n	20004696 <low_priority_worker_irq+0x4e>
20004658:	4b20      	ldr	r3, [pc, #128]	@ (200046dc <low_priority_worker_irq+0x94>)
2000465a:	681b      	ldr	r3, [r3, #0]
2000465c:	2b00      	cmp	r3, #0
2000465e:	d018      	beq.n	20004692 <low_priority_worker_irq+0x4a>
20004660:	f3ef 8110 	mrs	r1, PRIMASK
20004664:	b672      	cpsid	i
20004666:	0008      	movs	r0, r1
20004668:	681a      	ldr	r2, [r3, #0]
2000466a:	2a00      	cmp	r2, #0
2000466c:	d0fc      	beq.n	20004668 <low_priority_worker_irq+0x20>
2000466e:	f3bf 8f5f 	dmb	sy
20004672:	4a1a      	ldr	r2, [pc, #104]	@ (200046dc <low_priority_worker_irq+0x94>)
20004674:	6051      	str	r1, [r2, #4]
20004676:	491a      	ldr	r1, [pc, #104]	@ (200046e0 <low_priority_worker_irq+0x98>)
20004678:	780b      	ldrb	r3, [r1, #0]
2000467a:	b2db      	uxtb	r3, r3
2000467c:	2401      	movs	r4, #1
2000467e:	700c      	strb	r4, [r1, #0]
20004680:	6812      	ldr	r2, [r2, #0]
20004682:	f3bf 8f5f 	dmb	sy
20004686:	2100      	movs	r1, #0
20004688:	6011      	str	r1, [r2, #0]
2000468a:	f380 8810 	msr	PRIMASK, r0
2000468e:	2b00      	cmp	r3, #0
20004690:	d017      	beq.n	200046c2 <low_priority_worker_irq+0x7a>
20004692:	b002      	add	sp, #8
20004694:	bd10      	pop	{r4, pc}
20004696:	2001      	movs	r0, #1
20004698:	2100      	movs	r1, #0
2000469a:	4240      	negs	r0, r0
2000469c:	f001 f896 	bl	200057cc <tud_task_ext>
200046a0:	2000      	movs	r0, #0
200046a2:	f001 fad3 	bl	20005c4c <tud_cdc_n_available>
200046a6:	0004      	movs	r4, r0
200046a8:	480b      	ldr	r0, [pc, #44]	@ (200046d8 <low_priority_worker_irq+0x90>)
200046aa:	f7fb fe2f 	bl	2000030c <mutex_exit>
200046ae:	2c00      	cmp	r4, #0
200046b0:	d0ef      	beq.n	20004692 <low_priority_worker_irq+0x4a>
200046b2:	4b0c      	ldr	r3, [pc, #48]	@ (200046e4 <low_priority_worker_irq+0x9c>)
200046b4:	681b      	ldr	r3, [r3, #0]
200046b6:	2b00      	cmp	r3, #0
200046b8:	d0eb      	beq.n	20004692 <low_priority_worker_irq+0x4a>
200046ba:	4a0b      	ldr	r2, [pc, #44]	@ (200046e8 <low_priority_worker_irq+0xa0>)
200046bc:	6810      	ldr	r0, [r2, #0]
200046be:	4798      	blx	r3
200046c0:	e7e7      	b.n	20004692 <low_priority_worker_irq+0x4a>
200046c2:	4a0a      	ldr	r2, [pc, #40]	@ (200046ec <low_priority_worker_irq+0xa4>)
200046c4:	3301      	adds	r3, #1
200046c6:	9300      	str	r3, [sp, #0]
200046c8:	2300      	movs	r3, #0
200046ca:	20fa      	movs	r0, #250	@ 0xfa
200046cc:	0080      	lsls	r0, r0, #2
200046ce:	2100      	movs	r1, #0
200046d0:	f7ff ffa2 	bl	20004618 <add_alarm_in_us>
200046d4:	e7dd      	b.n	20004692 <low_priority_worker_irq+0x4a>
200046d6:	46c0      	nop			@ (mov r8, r8)
200046d8:	20008cfc 	.word	0x20008cfc
200046dc:	20008ad4 	.word	0x20008ad4
200046e0:	20008d1b 	.word	0x20008d1b
200046e4:	20008660 	.word	0x20008660
200046e8:	20008664 	.word	0x20008664
200046ec:	20004561 	.word	0x20004561

200046f0 <stdio_usb_init>:
200046f0:	b510      	push	{r4, lr}
200046f2:	b082      	sub	sp, #8
200046f4:	23d0      	movs	r3, #208	@ 0xd0
200046f6:	061b      	lsls	r3, r3, #24
200046f8:	681c      	ldr	r4, [r3, #0]
200046fa:	f7fc ffd3 	bl	200016a4 <alarm_pool_get_default>
200046fe:	f7fd f8b5 	bl	2000186c <alarm_pool_core_num>
20004702:	42a0      	cmp	r0, r4
20004704:	d130      	bne.n	20004768 <stdio_usb_init+0x78>
20004706:	4b27      	ldr	r3, [pc, #156]	@ (200047a4 <stdio_usb_init+0xb4>)
20004708:	781b      	ldrb	r3, [r3, #0]
2000470a:	2100      	movs	r1, #0
2000470c:	2000      	movs	r0, #0
2000470e:	f001 ff43 	bl	20006598 <tusb_rhport_init>
20004712:	4b25      	ldr	r3, [pc, #148]	@ (200047a8 <stdio_usb_init+0xb8>)
20004714:	681b      	ldr	r3, [r3, #0]
20004716:	2b00      	cmp	r3, #0
20004718:	d02c      	beq.n	20004774 <stdio_usb_init+0x84>
2000471a:	2001      	movs	r0, #1
2000471c:	f7fc fd5c 	bl	200011d8 <user_irq_claim_unused>
20004720:	4c22      	ldr	r4, [pc, #136]	@ (200047ac <stdio_usb_init+0xbc>)
20004722:	7020      	strb	r0, [r4, #0]
20004724:	4922      	ldr	r1, [pc, #136]	@ (200047b0 <stdio_usb_init+0xc0>)
20004726:	23ff      	movs	r3, #255	@ 0xff
20004728:	4018      	ands	r0, r3
2000472a:	f7fc fba3 	bl	20000e74 <irq_set_exclusive_handler>
2000472e:	7820      	ldrb	r0, [r4, #0]
20004730:	2101      	movs	r1, #1
20004732:	f7fc fb77 	bl	20000e24 <irq_set_enabled>
20004736:	2005      	movs	r0, #5
20004738:	f7fc fb8e 	bl	20000e58 <irq_has_shared_handler>
2000473c:	1e04      	subs	r4, r0, #0
2000473e:	d01d      	beq.n	2000477c <stdio_usb_init+0x8c>
20004740:	2001      	movs	r0, #1
20004742:	f7fc fad3 	bl	20000cec <spin_lock_claim_unused>
20004746:	0001      	movs	r1, r0
20004748:	4b1a      	ldr	r3, [pc, #104]	@ (200047b4 <stdio_usb_init+0xc4>)
2000474a:	0018      	movs	r0, r3
2000474c:	f7fc fda2 	bl	20001294 <critical_section_init_with_lock_num>
20004750:	4919      	ldr	r1, [pc, #100]	@ (200047b8 <stdio_usb_init+0xc8>)
20004752:	2200      	movs	r2, #0
20004754:	2005      	movs	r0, #5
20004756:	f7fc fbb7 	bl	20000ec8 <irq_add_shared_handler>
2000475a:	4818      	ldr	r0, [pc, #96]	@ (200047bc <stdio_usb_init+0xcc>)
2000475c:	2101      	movs	r1, #1
2000475e:	f7ff fdcd 	bl	200042fc <stdio_set_driver_enabled>
20004762:	0020      	movs	r0, r4
20004764:	b002      	add	sp, #8
20004766:	bd10      	pop	{r4, pc}
20004768:	4b15      	ldr	r3, [pc, #84]	@ (200047c0 <stdio_usb_init+0xd0>)
2000476a:	4a16      	ldr	r2, [pc, #88]	@ (200047c4 <stdio_usb_init+0xd4>)
2000476c:	4816      	ldr	r0, [pc, #88]	@ (200047c8 <stdio_usb_init+0xd8>)
2000476e:	21c6      	movs	r1, #198	@ 0xc6
20004770:	f7ff fcb2 	bl	200040d8 <__assert_func>
20004774:	480c      	ldr	r0, [pc, #48]	@ (200047a8 <stdio_usb_init+0xb8>)
20004776:	f7fc fd4b 	bl	20001210 <mutex_init>
2000477a:	e7ce      	b.n	2000471a <stdio_usb_init+0x2a>
2000477c:	480d      	ldr	r0, [pc, #52]	@ (200047b4 <stdio_usb_init+0xc4>)
2000477e:	2208      	movs	r2, #8
20004780:	2100      	movs	r1, #0
20004782:	f7fe fba3 	bl	20002ecc <__wrap_memset>
20004786:	4a11      	ldr	r2, [pc, #68]	@ (200047cc <stdio_usb_init+0xdc>)
20004788:	2301      	movs	r3, #1
2000478a:	9300      	str	r3, [sp, #0]
2000478c:	2300      	movs	r3, #0
2000478e:	20fa      	movs	r0, #250	@ 0xfa
20004790:	0080      	lsls	r0, r0, #2
20004792:	2100      	movs	r1, #0
20004794:	f7ff ff40 	bl	20004618 <add_alarm_in_us>
20004798:	43c0      	mvns	r0, r0
2000479a:	0fc4      	lsrs	r4, r0, #31
2000479c:	2800      	cmp	r0, #0
2000479e:	dae0      	bge.n	20004762 <stdio_usb_init+0x72>
200047a0:	e7db      	b.n	2000475a <stdio_usb_init+0x6a>
200047a2:	46c0      	nop			@ (mov r8, r8)
200047a4:	20007e20 	.word	0x20007e20
200047a8:	20008cfc 	.word	0x20008cfc
200047ac:	20008d1a 	.word	0x20008d1a
200047b0:	20004649 	.word	0x20004649
200047b4:	20008ad4 	.word	0x20008ad4
200047b8:	20004551 	.word	0x20004551
200047bc:	20007ec0 	.word	0x20007ec0
200047c0:	200077a8 	.word	0x200077a8
200047c4:	20007cbc 	.word	0x20007cbc
200047c8:	200077b0 	.word	0x200077b0
200047cc:	20004561 	.word	0x20004561

200047d0 <stdio_usb_connected>:
200047d0:	b510      	push	{r4, lr}
200047d2:	2000      	movs	r0, #0
200047d4:	f001 fa20 	bl	20005c18 <tud_cdc_n_connected>
200047d8:	bd10      	pop	{r4, pc}
	...

200047dc <stdio_usb_in_chars>:
200047dc:	b570      	push	{r4, r5, r6, lr}
200047de:	0004      	movs	r4, r0
200047e0:	000d      	movs	r5, r1
200047e2:	f7ff fff5 	bl	200047d0 <stdio_usb_connected>
200047e6:	2800      	cmp	r0, #0
200047e8:	d036      	beq.n	20004858 <stdio_usb_in_chars+0x7c>
200047ea:	2000      	movs	r0, #0
200047ec:	f001 fa2e 	bl	20005c4c <tud_cdc_n_available>
200047f0:	2800      	cmp	r0, #0
200047f2:	d035      	beq.n	20004860 <stdio_usb_in_chars+0x84>
200047f4:	f7fd f984 	bl	20001b00 <time_us_64>
200047f8:	4a1d      	ldr	r2, [pc, #116]	@ (20004870 <stdio_usb_in_chars+0x94>)
200047fa:	2300      	movs	r3, #0
200047fc:	1812      	adds	r2, r2, r0
200047fe:	414b      	adcs	r3, r1
20004800:	2b00      	cmp	r3, #0
20004802:	db1a      	blt.n	2000483a <stdio_usb_in_chars+0x5e>
20004804:	481b      	ldr	r0, [pc, #108]	@ (20004874 <stdio_usb_in_chars+0x98>)
20004806:	f7fb fd49 	bl	2000029c <mutex_try_enter_block_until>
2000480a:	2800      	cmp	r0, #0
2000480c:	d02c      	beq.n	20004868 <stdio_usb_in_chars+0x8c>
2000480e:	f7ff ffdf 	bl	200047d0 <stdio_usb_connected>
20004812:	2800      	cmp	r0, #0
20004814:	d004      	beq.n	20004820 <stdio_usb_in_chars+0x44>
20004816:	2000      	movs	r0, #0
20004818:	f001 fa18 	bl	20005c4c <tud_cdc_n_available>
2000481c:	2800      	cmp	r0, #0
2000481e:	d110      	bne.n	20004842 <stdio_usb_in_chars+0x66>
20004820:	2001      	movs	r0, #1
20004822:	2100      	movs	r1, #0
20004824:	4240      	negs	r0, r0
20004826:	f000 ffd1 	bl	200057cc <tud_task_ext>
2000482a:	2303      	movs	r3, #3
2000482c:	425b      	negs	r3, r3
2000482e:	001c      	movs	r4, r3
20004830:	4810      	ldr	r0, [pc, #64]	@ (20004874 <stdio_usb_in_chars+0x98>)
20004832:	f7fb fd6b 	bl	2000030c <mutex_exit>
20004836:	0020      	movs	r0, r4
20004838:	bd70      	pop	{r4, r5, r6, pc}
2000483a:	2201      	movs	r2, #1
2000483c:	4252      	negs	r2, r2
2000483e:	4b0e      	ldr	r3, [pc, #56]	@ (20004878 <stdio_usb_in_chars+0x9c>)
20004840:	e7e0      	b.n	20004804 <stdio_usb_in_chars+0x28>
20004842:	002a      	movs	r2, r5
20004844:	0021      	movs	r1, r4
20004846:	2000      	movs	r0, #0
20004848:	f001 fa0c 	bl	20005c64 <tud_cdc_n_read>
2000484c:	1e04      	subs	r4, r0, #0
2000484e:	d1ef      	bne.n	20004830 <stdio_usb_in_chars+0x54>
20004850:	2303      	movs	r3, #3
20004852:	425b      	negs	r3, r3
20004854:	001c      	movs	r4, r3
20004856:	e7eb      	b.n	20004830 <stdio_usb_in_chars+0x54>
20004858:	2303      	movs	r3, #3
2000485a:	425b      	negs	r3, r3
2000485c:	001c      	movs	r4, r3
2000485e:	e7ea      	b.n	20004836 <stdio_usb_in_chars+0x5a>
20004860:	2303      	movs	r3, #3
20004862:	425b      	negs	r3, r3
20004864:	001c      	movs	r4, r3
20004866:	e7e6      	b.n	20004836 <stdio_usb_in_chars+0x5a>
20004868:	2303      	movs	r3, #3
2000486a:	425b      	negs	r3, r3
2000486c:	001c      	movs	r4, r3
2000486e:	e7e2      	b.n	20004836 <stdio_usb_in_chars+0x5a>
20004870:	000f4240 	.word	0x000f4240
20004874:	20008cfc 	.word	0x20008cfc
20004878:	7fffffff 	.word	0x7fffffff

2000487c <stdio_usb_out_chars>:
2000487c:	b5f0      	push	{r4, r5, r6, r7, lr}
2000487e:	b083      	sub	sp, #12
20004880:	0005      	movs	r5, r0
20004882:	000c      	movs	r4, r1
20004884:	f7fd f93c 	bl	20001b00 <time_us_64>
20004888:	4a31      	ldr	r2, [pc, #196]	@ (20004950 <stdio_usb_out_chars+0xd4>)
2000488a:	2300      	movs	r3, #0
2000488c:	1812      	adds	r2, r2, r0
2000488e:	414b      	adcs	r3, r1
20004890:	2b00      	cmp	r3, #0
20004892:	db06      	blt.n	200048a2 <stdio_usb_out_chars+0x26>
20004894:	482f      	ldr	r0, [pc, #188]	@ (20004954 <stdio_usb_out_chars+0xd8>)
20004896:	f7fb fd01 	bl	2000029c <mutex_try_enter_block_until>
2000489a:	2800      	cmp	r0, #0
2000489c:	d105      	bne.n	200048aa <stdio_usb_out_chars+0x2e>
2000489e:	b003      	add	sp, #12
200048a0:	bdf0      	pop	{r4, r5, r6, r7, pc}
200048a2:	2201      	movs	r2, #1
200048a4:	4252      	negs	r2, r2
200048a6:	4b2c      	ldr	r3, [pc, #176]	@ (20004958 <stdio_usb_out_chars+0xdc>)
200048a8:	e7f4      	b.n	20004894 <stdio_usb_out_chars+0x18>
200048aa:	f7ff ff91 	bl	200047d0 <stdio_usb_connected>
200048ae:	2800      	cmp	r0, #0
200048b0:	d14b      	bne.n	2000494a <stdio_usb_out_chars+0xce>
200048b2:	4b2a      	ldr	r3, [pc, #168]	@ (2000495c <stdio_usb_out_chars+0xe0>)
200048b4:	2000      	movs	r0, #0
200048b6:	2100      	movs	r1, #0
200048b8:	6018      	str	r0, [r3, #0]
200048ba:	6059      	str	r1, [r3, #4]
200048bc:	4825      	ldr	r0, [pc, #148]	@ (20004954 <stdio_usb_out_chars+0xd8>)
200048be:	f7fb fd25 	bl	2000030c <mutex_exit>
200048c2:	e7ec      	b.n	2000489e <stdio_usb_out_chars+0x22>
200048c4:	2001      	movs	r0, #1
200048c6:	2100      	movs	r1, #0
200048c8:	4240      	negs	r0, r0
200048ca:	f000 ff7f 	bl	200057cc <tud_task_ext>
200048ce:	2000      	movs	r0, #0
200048d0:	f001 f9e4 	bl	20005c9c <tud_cdc_n_write_flush>
200048d4:	f7ff ff7c 	bl	200047d0 <stdio_usb_connected>
200048d8:	2800      	cmp	r0, #0
200048da:	d0ef      	beq.n	200048bc <stdio_usb_out_chars+0x40>
200048dc:	2000      	movs	r0, #0
200048de:	f001 fa4b 	bl	20005d78 <tud_cdc_n_write_available>
200048e2:	2800      	cmp	r0, #0
200048e4:	d01f      	beq.n	20004926 <stdio_usb_out_chars+0xaa>
200048e6:	42a6      	cmp	r6, r4
200048e8:	dae8      	bge.n	200048bc <stdio_usb_out_chars+0x40>
200048ea:	1ba7      	subs	r7, r4, r6
200048ec:	2000      	movs	r0, #0
200048ee:	f001 fa43 	bl	20005d78 <tud_cdc_n_write_available>
200048f2:	0002      	movs	r2, r0
200048f4:	4287      	cmp	r7, r0
200048f6:	dc00      	bgt.n	200048fa <stdio_usb_out_chars+0x7e>
200048f8:	003a      	movs	r2, r7
200048fa:	2a00      	cmp	r2, #0
200048fc:	d0e2      	beq.n	200048c4 <stdio_usb_out_chars+0x48>
200048fe:	19a9      	adds	r1, r5, r6
20004900:	2000      	movs	r0, #0
20004902:	f001 fa15 	bl	20005d30 <tud_cdc_n_write>
20004906:	0007      	movs	r7, r0
20004908:	2001      	movs	r0, #1
2000490a:	2100      	movs	r1, #0
2000490c:	4240      	negs	r0, r0
2000490e:	f000 ff5d 	bl	200057cc <tud_task_ext>
20004912:	2000      	movs	r0, #0
20004914:	f001 f9c2 	bl	20005c9c <tud_cdc_n_write_flush>
20004918:	19f6      	adds	r6, r6, r7
2000491a:	f7fd f8f1 	bl	20001b00 <time_us_64>
2000491e:	4b0f      	ldr	r3, [pc, #60]	@ (2000495c <stdio_usb_out_chars+0xe0>)
20004920:	6018      	str	r0, [r3, #0]
20004922:	6059      	str	r1, [r3, #4]
20004924:	e7df      	b.n	200048e6 <stdio_usb_out_chars+0x6a>
20004926:	f7fd f8eb 	bl	20001b00 <time_us_64>
2000492a:	9001      	str	r0, [sp, #4]
2000492c:	000f      	movs	r7, r1
2000492e:	4b0b      	ldr	r3, [pc, #44]	@ (2000495c <stdio_usb_out_chars+0xe0>)
20004930:	6818      	ldr	r0, [r3, #0]
20004932:	6859      	ldr	r1, [r3, #4]
20004934:	4a0a      	ldr	r2, [pc, #40]	@ (20004960 <stdio_usb_out_chars+0xe4>)
20004936:	2300      	movs	r3, #0
20004938:	1812      	adds	r2, r2, r0
2000493a:	414b      	adcs	r3, r1
2000493c:	429f      	cmp	r7, r3
2000493e:	d8bd      	bhi.n	200048bc <stdio_usb_out_chars+0x40>
20004940:	d1d1      	bne.n	200048e6 <stdio_usb_out_chars+0x6a>
20004942:	9901      	ldr	r1, [sp, #4]
20004944:	4291      	cmp	r1, r2
20004946:	d9ce      	bls.n	200048e6 <stdio_usb_out_chars+0x6a>
20004948:	e7b8      	b.n	200048bc <stdio_usb_out_chars+0x40>
2000494a:	2600      	movs	r6, #0
2000494c:	e7cb      	b.n	200048e6 <stdio_usb_out_chars+0x6a>
2000494e:	46c0      	nop			@ (mov r8, r8)
20004950:	000f4240 	.word	0x000f4240
20004954:	20008cfc 	.word	0x20008cfc
20004958:	7fffffff 	.word	0x7fffffff
2000495c:	200080c0 	.word	0x200080c0
20004960:	0007a120 	.word	0x0007a120

20004964 <tud_descriptor_device_cb>:
20004964:	4800      	ldr	r0, [pc, #0]	@ (20004968 <tud_descriptor_device_cb+0x4>)
20004966:	4770      	bx	lr
20004968:	20007d38 	.word	0x20007d38

2000496c <tud_descriptor_configuration_cb>:
2000496c:	4800      	ldr	r0, [pc, #0]	@ (20004970 <tud_descriptor_configuration_cb+0x4>)
2000496e:	4770      	bx	lr
20004970:	20007ce4 	.word	0x20007ce4

20004974 <tud_descriptor_string_cb>:
20004974:	b510      	push	{r4, lr}
20004976:	0004      	movs	r4, r0
20004978:	4b15      	ldr	r3, [pc, #84]	@ (200049d0 <tud_descriptor_string_cb+0x5c>)
2000497a:	781b      	ldrb	r3, [r3, #0]
2000497c:	2b00      	cmp	r3, #0
2000497e:	d00e      	beq.n	2000499e <tud_descriptor_string_cb+0x2a>
20004980:	2c00      	cmp	r4, #0
20004982:	d111      	bne.n	200049a8 <tud_descriptor_string_cb+0x34>
20004984:	4b13      	ldr	r3, [pc, #76]	@ (200049d4 <tud_descriptor_string_cb+0x60>)
20004986:	4a14      	ldr	r2, [pc, #80]	@ (200049d8 <tud_descriptor_string_cb+0x64>)
20004988:	805a      	strh	r2, [r3, #2]
2000498a:	2301      	movs	r3, #1
2000498c:	3301      	adds	r3, #1
2000498e:	005b      	lsls	r3, r3, #1
20004990:	b29b      	uxth	r3, r3
20004992:	4810      	ldr	r0, [pc, #64]	@ (200049d4 <tud_descriptor_string_cb+0x60>)
20004994:	22c0      	movs	r2, #192	@ 0xc0
20004996:	0092      	lsls	r2, r2, #2
20004998:	4313      	orrs	r3, r2
2000499a:	8003      	strh	r3, [r0, #0]
2000499c:	bd10      	pop	{r4, pc}
2000499e:	480c      	ldr	r0, [pc, #48]	@ (200049d0 <tud_descriptor_string_cb+0x5c>)
200049a0:	2111      	movs	r1, #17
200049a2:	f000 f829 	bl	200049f8 <pico_get_unique_board_id_string>
200049a6:	e7eb      	b.n	20004980 <tud_descriptor_string_cb+0xc>
200049a8:	2c05      	cmp	r4, #5
200049aa:	d80e      	bhi.n	200049ca <tud_descriptor_string_cb+0x56>
200049ac:	4b0b      	ldr	r3, [pc, #44]	@ (200049dc <tud_descriptor_string_cb+0x68>)
200049ae:	00a4      	lsls	r4, r4, #2
200049b0:	58e4      	ldr	r4, [r4, r3]
200049b2:	2300      	movs	r3, #0
200049b4:	2b12      	cmp	r3, #18
200049b6:	d8e9      	bhi.n	2000498c <tud_descriptor_string_cb+0x18>
200049b8:	5ce1      	ldrb	r1, [r4, r3]
200049ba:	2900      	cmp	r1, #0
200049bc:	d0e6      	beq.n	2000498c <tud_descriptor_string_cb+0x18>
200049be:	3301      	adds	r3, #1
200049c0:	4a04      	ldr	r2, [pc, #16]	@ (200049d4 <tud_descriptor_string_cb+0x60>)
200049c2:	0058      	lsls	r0, r3, #1
200049c4:	5281      	strh	r1, [r0, r2]
200049c6:	b2db      	uxtb	r3, r3
200049c8:	e7f4      	b.n	200049b4 <tud_descriptor_string_cb+0x40>
200049ca:	2000      	movs	r0, #0
200049cc:	e7e6      	b.n	2000499c <tud_descriptor_string_cb+0x28>
200049ce:	46c0      	nop			@ (mov r8, r8)
200049d0:	20008d04 	.word	0x20008d04
200049d4:	20008698 	.word	0x20008698
200049d8:	00000409 	.word	0x00000409
200049dc:	20007ccc 	.word	0x20007ccc

200049e0 <_retrieve_unique_id_on_boot>:
200049e0:	2300      	movs	r3, #0
200049e2:	e003      	b.n	200049ec <_retrieve_unique_id_on_boot+0xc>
200049e4:	4a03      	ldr	r2, [pc, #12]	@ (200049f4 <_retrieve_unique_id_on_boot+0x14>)
200049e6:	21ee      	movs	r1, #238	@ 0xee
200049e8:	54d1      	strb	r1, [r2, r3]
200049ea:	3301      	adds	r3, #1
200049ec:	2b07      	cmp	r3, #7
200049ee:	ddf9      	ble.n	200049e4 <_retrieve_unique_id_on_boot+0x4>
200049f0:	4770      	bx	lr
200049f2:	46c0      	nop			@ (mov r8, r8)
200049f4:	20008aec 	.word	0x20008aec

200049f8 <pico_get_unique_board_id_string>:
200049f8:	b510      	push	{r4, lr}
200049fa:	1e0c      	subs	r4, r1, #0
200049fc:	d001      	beq.n	20004a02 <pico_get_unique_board_id_string+0xa>
200049fe:	2300      	movs	r3, #0
20004a00:	e008      	b.n	20004a14 <pico_get_unique_board_id_string+0x1c>
20004a02:	4b0f      	ldr	r3, [pc, #60]	@ (20004a40 <pico_get_unique_board_id_string+0x48>)
20004a04:	4a0f      	ldr	r2, [pc, #60]	@ (20004a44 <pico_get_unique_board_id_string+0x4c>)
20004a06:	4810      	ldr	r0, [pc, #64]	@ (20004a48 <pico_get_unique_board_id_string+0x50>)
20004a08:	213b      	movs	r1, #59	@ 0x3b
20004a0a:	f7ff fb65 	bl	200040d8 <__assert_func>
20004a0e:	3237      	adds	r2, #55	@ 0x37
20004a10:	54c2      	strb	r2, [r0, r3]
20004a12:	3301      	adds	r3, #1
20004a14:	1e62      	subs	r2, r4, #1
20004a16:	429a      	cmp	r2, r3
20004a18:	d90e      	bls.n	20004a38 <pico_get_unique_board_id_string+0x40>
20004a1a:	2b0f      	cmp	r3, #15
20004a1c:	d80c      	bhi.n	20004a38 <pico_get_unique_board_id_string+0x40>
20004a1e:	085a      	lsrs	r2, r3, #1
20004a20:	490a      	ldr	r1, [pc, #40]	@ (20004a4c <pico_get_unique_board_id_string+0x54>)
20004a22:	5c89      	ldrb	r1, [r1, r2]
20004a24:	2201      	movs	r2, #1
20004a26:	439a      	bics	r2, r3
20004a28:	0092      	lsls	r2, r2, #2
20004a2a:	4111      	asrs	r1, r2
20004a2c:	220f      	movs	r2, #15
20004a2e:	400a      	ands	r2, r1
20004a30:	2a09      	cmp	r2, #9
20004a32:	dcec      	bgt.n	20004a0e <pico_get_unique_board_id_string+0x16>
20004a34:	3230      	adds	r2, #48	@ 0x30
20004a36:	e7eb      	b.n	20004a10 <pico_get_unique_board_id_string+0x18>
20004a38:	18c0      	adds	r0, r0, r3
20004a3a:	2300      	movs	r3, #0
20004a3c:	7003      	strb	r3, [r0, #0]
20004a3e:	bd10      	pop	{r4, pc}
20004a40:	20007840 	.word	0x20007840
20004a44:	20007d4c 	.word	0x20007d4c
20004a48:	20007848 	.word	0x20007848
20004a4c:	20008aec 	.word	0x20008aec

20004a50 <hw_endpoint_init>:
20004a50:	b530      	push	{r4, r5, lr}
20004a52:	b083      	sub	sp, #12
20004a54:	0004      	movs	r4, r0
20004a56:	000d      	movs	r5, r1
20004a58:	4694      	mov	ip, r2
20004a5a:	237f      	movs	r3, #127	@ 0x7f
20004a5c:	4003      	ands	r3, r0
20004a5e:	09c2      	lsrs	r2, r0, #7
20004a60:	4829      	ldr	r0, [pc, #164]	@ (20004b08 <hw_endpoint_init+0xb8>)
20004a62:	0059      	lsls	r1, r3, #1
20004a64:	1889      	adds	r1, r1, r2
20004a66:	0149      	lsls	r1, r1, #5
20004a68:	1840      	adds	r0, r0, r1
20004a6a:	7084      	strb	r4, [r0, #2]
20004a6c:	4251      	negs	r1, r2
20004a6e:	4151      	adcs	r1, r2
20004a70:	7041      	strb	r1, [r0, #1]
20004a72:	2100      	movs	r1, #0
20004a74:	70c1      	strb	r1, [r0, #3]
20004a76:	8305      	strh	r5, [r0, #24]
20004a78:	4661      	mov	r1, ip
20004a7a:	76c1      	strb	r1, [r0, #27]
20004a7c:	2a01      	cmp	r2, #1
20004a7e:	d01e      	beq.n	20004abe <hw_endpoint_init+0x6e>
20004a80:	00dc      	lsls	r4, r3, #3
20004a82:	4922      	ldr	r1, [pc, #136]	@ (20004b0c <hw_endpoint_init+0xbc>)
20004a84:	468c      	mov	ip, r1
20004a86:	4464      	add	r4, ip
20004a88:	491f      	ldr	r1, [pc, #124]	@ (20004b08 <hw_endpoint_init+0xb8>)
20004a8a:	0058      	lsls	r0, r3, #1
20004a8c:	1880      	adds	r0, r0, r2
20004a8e:	0140      	lsls	r0, r0, #5
20004a90:	1809      	adds	r1, r1, r0
20004a92:	608c      	str	r4, [r1, #8]
20004a94:	491c      	ldr	r1, [pc, #112]	@ (20004b08 <hw_endpoint_init+0xb8>)
20004a96:	0058      	lsls	r0, r3, #1
20004a98:	1880      	adds	r0, r0, r2
20004a9a:	0140      	lsls	r0, r0, #5
20004a9c:	1809      	adds	r1, r1, r0
20004a9e:	6889      	ldr	r1, [r1, #8]
20004aa0:	2000      	movs	r0, #0
20004aa2:	6008      	str	r0, [r1, #0]
20004aa4:	2b00      	cmp	r3, #0
20004aa6:	d115      	bne.n	20004ad4 <hw_endpoint_init+0x84>
20004aa8:	4917      	ldr	r1, [pc, #92]	@ (20004b08 <hw_endpoint_init+0xb8>)
20004aaa:	005b      	lsls	r3, r3, #1
20004aac:	189b      	adds	r3, r3, r2
20004aae:	015b      	lsls	r3, r3, #5
20004ab0:	18cb      	adds	r3, r1, r3
20004ab2:	2200      	movs	r2, #0
20004ab4:	605a      	str	r2, [r3, #4]
20004ab6:	4a16      	ldr	r2, [pc, #88]	@ (20004b10 <hw_endpoint_init+0xc0>)
20004ab8:	60da      	str	r2, [r3, #12]
20004aba:	b003      	add	sp, #12
20004abc:	bd30      	pop	{r4, r5, pc}
20004abe:	00dc      	lsls	r4, r3, #3
20004ac0:	4914      	ldr	r1, [pc, #80]	@ (20004b14 <hw_endpoint_init+0xc4>)
20004ac2:	468c      	mov	ip, r1
20004ac4:	4464      	add	r4, ip
20004ac6:	4910      	ldr	r1, [pc, #64]	@ (20004b08 <hw_endpoint_init+0xb8>)
20004ac8:	0058      	lsls	r0, r3, #1
20004aca:	1880      	adds	r0, r0, r2
20004acc:	0140      	lsls	r0, r0, #5
20004ace:	1809      	adds	r1, r1, r0
20004ad0:	608c      	str	r4, [r1, #8]
20004ad2:	e7df      	b.n	20004a94 <hw_endpoint_init+0x44>
20004ad4:	2a01      	cmp	r2, #1
20004ad6:	d00b      	beq.n	20004af0 <hw_endpoint_init+0xa0>
20004ad8:	1e58      	subs	r0, r3, #1
20004ada:	00c0      	lsls	r0, r0, #3
20004adc:	490e      	ldr	r1, [pc, #56]	@ (20004b18 <hw_endpoint_init+0xc8>)
20004ade:	468c      	mov	ip, r1
20004ae0:	4460      	add	r0, ip
20004ae2:	4909      	ldr	r1, [pc, #36]	@ (20004b08 <hw_endpoint_init+0xb8>)
20004ae4:	005b      	lsls	r3, r3, #1
20004ae6:	189b      	adds	r3, r3, r2
20004ae8:	015b      	lsls	r3, r3, #5
20004aea:	18c9      	adds	r1, r1, r3
20004aec:	6048      	str	r0, [r1, #4]
20004aee:	e7e4      	b.n	20004aba <hw_endpoint_init+0x6a>
20004af0:	1e58      	subs	r0, r3, #1
20004af2:	00c0      	lsls	r0, r0, #3
20004af4:	4909      	ldr	r1, [pc, #36]	@ (20004b1c <hw_endpoint_init+0xcc>)
20004af6:	468c      	mov	ip, r1
20004af8:	4460      	add	r0, ip
20004afa:	4903      	ldr	r1, [pc, #12]	@ (20004b08 <hw_endpoint_init+0xb8>)
20004afc:	005b      	lsls	r3, r3, #1
20004afe:	189b      	adds	r3, r3, r2
20004b00:	015b      	lsls	r3, r3, #5
20004b02:	18c9      	adds	r1, r1, r3
20004b04:	6048      	str	r0, [r1, #4]
20004b06:	e7d8      	b.n	20004aba <hw_endpoint_init+0x6a>
20004b08:	200086cc 	.word	0x200086cc
20004b0c:	50100084 	.word	0x50100084
20004b10:	50100100 	.word	0x50100100
20004b14:	50100080 	.word	0x50100080
20004b18:	5010000c 	.word	0x5010000c
20004b1c:	50100008 	.word	0x50100008

20004b20 <hw_endpoint_alloc>:
20004b20:	b510      	push	{r4, lr}
20004b22:	8b03      	ldrh	r3, [r0, #24]
20004b24:	333f      	adds	r3, #63	@ 0x3f
20004b26:	099b      	lsrs	r3, r3, #6
20004b28:	0199      	lsls	r1, r3, #6
20004b2a:	7ec2      	ldrb	r2, [r0, #27]
20004b2c:	2a02      	cmp	r2, #2
20004b2e:	d008      	beq.n	20004b42 <hw_endpoint_alloc+0x22>
20004b30:	4a08      	ldr	r2, [pc, #32]	@ (20004b54 <hw_endpoint_alloc+0x34>)
20004b32:	6813      	ldr	r3, [r2, #0]
20004b34:	60c3      	str	r3, [r0, #12]
20004b36:	185b      	adds	r3, r3, r1
20004b38:	6013      	str	r3, [r2, #0]
20004b3a:	4a07      	ldr	r2, [pc, #28]	@ (20004b58 <hw_endpoint_alloc+0x38>)
20004b3c:	4293      	cmp	r3, r2
20004b3e:	d802      	bhi.n	20004b46 <hw_endpoint_alloc+0x26>
20004b40:	bd10      	pop	{r4, pc}
20004b42:	01d9      	lsls	r1, r3, #7
20004b44:	e7f4      	b.n	20004b30 <hw_endpoint_alloc+0x10>
20004b46:	4b05      	ldr	r3, [pc, #20]	@ (20004b5c <hw_endpoint_alloc+0x3c>)
20004b48:	4a05      	ldr	r2, [pc, #20]	@ (20004b60 <hw_endpoint_alloc+0x40>)
20004b4a:	4806      	ldr	r0, [pc, #24]	@ (20004b64 <hw_endpoint_alloc+0x44>)
20004b4c:	2152      	movs	r1, #82	@ 0x52
20004b4e:	f7ff fac3 	bl	200040d8 <__assert_func>
20004b52:	46c0      	nop			@ (mov r8, r8)
20004b54:	20008ad0 	.word	0x20008ad0
20004b58:	50100fff 	.word	0x50100fff
20004b5c:	20007898 	.word	0x20007898
20004b60:	20007d9c 	.word	0x20007d9c
20004b64:	200078dc 	.word	0x200078dc

20004b68 <hw_endpoint_open>:
20004b68:	b5f8      	push	{r3, r4, r5, r6, r7, lr}
20004b6a:	247f      	movs	r4, #127	@ 0x7f
20004b6c:	4004      	ands	r4, r0
20004b6e:	09c5      	lsrs	r5, r0, #7
20004b70:	0063      	lsls	r3, r4, #1
20004b72:	195b      	adds	r3, r3, r5
20004b74:	015b      	lsls	r3, r3, #5
20004b76:	4e0f      	ldr	r6, [pc, #60]	@ (20004bb4 <hw_endpoint_open+0x4c>)
20004b78:	46b4      	mov	ip, r6
20004b7a:	4463      	add	r3, ip
20004b7c:	001e      	movs	r6, r3
20004b7e:	f7ff ff67 	bl	20004a50 <hw_endpoint_init>
20004b82:	2c00      	cmp	r4, #0
20004b84:	d100      	bne.n	20004b88 <hw_endpoint_open+0x20>
20004b86:	bdf8      	pop	{r3, r4, r5, r6, r7, pc}
20004b88:	4b0a      	ldr	r3, [pc, #40]	@ (20004bb4 <hw_endpoint_open+0x4c>)
20004b8a:	0064      	lsls	r4, r4, #1
20004b8c:	1964      	adds	r4, r4, r5
20004b8e:	0164      	lsls	r4, r4, #5
20004b90:	191c      	adds	r4, r3, r4
20004b92:	8b21      	ldrh	r1, [r4, #24]
20004b94:	0030      	movs	r0, r6
20004b96:	f7ff ffc3 	bl	20004b20 <hw_endpoint_alloc>
20004b9a:	7ee3      	ldrb	r3, [r4, #27]
20004b9c:	069b      	lsls	r3, r3, #26
20004b9e:	68e1      	ldr	r1, [r4, #12]
20004ba0:	4a05      	ldr	r2, [pc, #20]	@ (20004bb8 <hw_endpoint_open+0x50>)
20004ba2:	404a      	eors	r2, r1
20004ba4:	4313      	orrs	r3, r2
20004ba6:	2280      	movs	r2, #128	@ 0x80
20004ba8:	0612      	lsls	r2, r2, #24
20004baa:	4313      	orrs	r3, r2
20004bac:	6862      	ldr	r2, [r4, #4]
20004bae:	6013      	str	r3, [r2, #0]
20004bb0:	e7e9      	b.n	20004b86 <hw_endpoint_open+0x1e>
20004bb2:	46c0      	nop			@ (mov r8, r8)
20004bb4:	200086cc 	.word	0x200086cc
20004bb8:	50100000 	.word	0x50100000

20004bbc <hw_endpoint_xfer>:
20004bbc:	b510      	push	{r4, lr}
20004bbe:	0003      	movs	r3, r0
20004bc0:	207f      	movs	r0, #127	@ 0x7f
20004bc2:	4018      	ands	r0, r3
20004bc4:	09db      	lsrs	r3, r3, #7
20004bc6:	469c      	mov	ip, r3
20004bc8:	0040      	lsls	r0, r0, #1
20004bca:	4460      	add	r0, ip
20004bcc:	0140      	lsls	r0, r0, #5
20004bce:	4b02      	ldr	r3, [pc, #8]	@ (20004bd8 <hw_endpoint_xfer+0x1c>)
20004bd0:	18c0      	adds	r0, r0, r3
20004bd2:	f000 f92f 	bl	20004e34 <hw_endpoint_xfer_start>
20004bd6:	bd10      	pop	{r4, pc}
20004bd8:	200086cc 	.word	0x200086cc

20004bdc <dcd_int_enable>:
20004bdc:	b510      	push	{r4, lr}
20004bde:	2800      	cmp	r0, #0
20004be0:	d104      	bne.n	20004bec <dcd_int_enable+0x10>
20004be2:	2101      	movs	r1, #1
20004be4:	2005      	movs	r0, #5
20004be6:	f7fc f91d 	bl	20000e24 <irq_set_enabled>
20004bea:	bd10      	pop	{r4, pc}
20004bec:	4b03      	ldr	r3, [pc, #12]	@ (20004bfc <dcd_int_enable+0x20>)
20004bee:	4a04      	ldr	r2, [pc, #16]	@ (20004c00 <dcd_int_enable+0x24>)
20004bf0:	2198      	movs	r1, #152	@ 0x98
20004bf2:	4804      	ldr	r0, [pc, #16]	@ (20004c04 <dcd_int_enable+0x28>)
20004bf4:	31ff      	adds	r1, #255	@ 0xff
20004bf6:	f7ff fa6f 	bl	200040d8 <__assert_func>
20004bfa:	46c0      	nop			@ (mov r8, r8)
20004bfc:	2000794c 	.word	0x2000794c
20004c00:	20007d8c 	.word	0x20007d8c
20004c04:	200078dc 	.word	0x200078dc

20004c08 <dcd_set_address>:
20004c08:	b510      	push	{r4, lr}
20004c0a:	2800      	cmp	r0, #0
20004c0c:	d105      	bne.n	20004c1a <dcd_set_address+0x12>
20004c0e:	2200      	movs	r2, #0
20004c10:	2100      	movs	r1, #0
20004c12:	2080      	movs	r0, #128	@ 0x80
20004c14:	f7ff ffd2 	bl	20004bbc <hw_endpoint_xfer>
20004c18:	bd10      	pop	{r4, pc}
20004c1a:	4b03      	ldr	r3, [pc, #12]	@ (20004c28 <dcd_set_address+0x20>)
20004c1c:	4a03      	ldr	r2, [pc, #12]	@ (20004c2c <dcd_set_address+0x24>)
20004c1e:	21a2      	movs	r1, #162	@ 0xa2
20004c20:	4803      	ldr	r0, [pc, #12]	@ (20004c30 <dcd_set_address+0x28>)
20004c22:	31ff      	adds	r1, #255	@ 0xff
20004c24:	f7ff fa58 	bl	200040d8 <__assert_func>
20004c28:	2000794c 	.word	0x2000794c
20004c2c:	20007d7c 	.word	0x20007d7c
20004c30:	200078dc 	.word	0x200078dc

20004c34 <dcd_connect>:
20004c34:	4b02      	ldr	r3, [pc, #8]	@ (20004c40 <dcd_connect+0xc>)
20004c36:	2280      	movs	r2, #128	@ 0x80
20004c38:	0252      	lsls	r2, r2, #9
20004c3a:	64da      	str	r2, [r3, #76]	@ 0x4c
20004c3c:	4770      	bx	lr
20004c3e:	46c0      	nop			@ (mov r8, r8)
20004c40:	50112000 	.word	0x50112000

20004c44 <dcd_init>:
20004c44:	b570      	push	{r4, r5, r6, lr}
20004c46:	1e04      	subs	r4, r0, #0
20004c48:	d127      	bne.n	20004c9a <dcd_init+0x56>
20004c4a:	f000 f8d1 	bl	20004df0 <rp2040_usb_init>
20004c4e:	4d16      	ldr	r5, [pc, #88]	@ (20004ca8 <dcd_init+0x64>)
20004c50:	230c      	movs	r3, #12
20004c52:	67ab      	str	r3, [r5, #120]	@ 0x78
20004c54:	4915      	ldr	r1, [pc, #84]	@ (20004cac <dcd_init+0x68>)
20004c56:	22ff      	movs	r2, #255	@ 0xff
20004c58:	2005      	movs	r0, #5
20004c5a:	f7fc f935 	bl	20000ec8 <irq_add_shared_handler>
20004c5e:	4814      	ldr	r0, [pc, #80]	@ (20004cb0 <dcd_init+0x6c>)
20004c60:	2240      	movs	r2, #64	@ 0x40
20004c62:	2100      	movs	r1, #0
20004c64:	f7fe f932 	bl	20002ecc <__wrap_memset>
20004c68:	2200      	movs	r2, #0
20004c6a:	2140      	movs	r1, #64	@ 0x40
20004c6c:	2000      	movs	r0, #0
20004c6e:	f7ff ff7b 	bl	20004b68 <hw_endpoint_open>
20004c72:	2200      	movs	r2, #0
20004c74:	2140      	movs	r1, #64	@ 0x40
20004c76:	2080      	movs	r0, #128	@ 0x80
20004c78:	f7ff ff76 	bl	20004b68 <hw_endpoint_open>
20004c7c:	f7fb fb6c 	bl	20000358 <reset_non_control_endpoints>
20004c80:	2301      	movs	r3, #1
20004c82:	642b      	str	r3, [r5, #64]	@ 0x40
20004c84:	2380      	movs	r3, #128	@ 0x80
20004c86:	059b      	lsls	r3, r3, #22
20004c88:	64eb      	str	r3, [r5, #76]	@ 0x4c
20004c8a:	2390      	movs	r3, #144	@ 0x90
20004c8c:	4a09      	ldr	r2, [pc, #36]	@ (20004cb4 <dcd_init+0x70>)
20004c8e:	50ea      	str	r2, [r5, r3]
20004c90:	0020      	movs	r0, r4
20004c92:	f7ff ffcf 	bl	20004c34 <dcd_connect>
20004c96:	2001      	movs	r0, #1
20004c98:	bd70      	pop	{r4, r5, r6, pc}
20004c9a:	4b07      	ldr	r3, [pc, #28]	@ (20004cb8 <dcd_init+0x74>)
20004c9c:	4a07      	ldr	r2, [pc, #28]	@ (20004cbc <dcd_init+0x78>)
20004c9e:	2164      	movs	r1, #100	@ 0x64
20004ca0:	4807      	ldr	r0, [pc, #28]	@ (20004cc0 <dcd_init+0x7c>)
20004ca2:	31ff      	adds	r1, #255	@ 0xff
20004ca4:	f7ff fa18 	bl	200040d8 <__assert_func>
20004ca8:	50110000 	.word	0x50110000
20004cac:	20000435 	.word	0x20000435
20004cb0:	200086cc 	.word	0x200086cc
20004cb4:	0001d010 	.word	0x0001d010
20004cb8:	2000794c 	.word	0x2000794c
20004cbc:	20007db0 	.word	0x20007db0
20004cc0:	200078dc 	.word	0x200078dc

20004cc4 <dcd_sof_enable>:
20004cc4:	4b04      	ldr	r3, [pc, #16]	@ (20004cd8 <dcd_sof_enable+0x14>)
20004cc6:	7019      	strb	r1, [r3, #0]
20004cc8:	2900      	cmp	r1, #0
20004cca:	d004      	beq.n	20004cd6 <dcd_sof_enable+0x12>
20004ccc:	4a03      	ldr	r2, [pc, #12]	@ (20004cdc <dcd_sof_enable+0x18>)
20004cce:	2390      	movs	r3, #144	@ 0x90
20004cd0:	2180      	movs	r1, #128	@ 0x80
20004cd2:	0289      	lsls	r1, r1, #10
20004cd4:	50d1      	str	r1, [r2, r3]
20004cd6:	4770      	bx	lr
20004cd8:	20008d16 	.word	0x20008d16
20004cdc:	50112000 	.word	0x50112000

20004ce0 <dcd_edpt0_status_complete>:
20004ce0:	780b      	ldrb	r3, [r1, #0]
20004ce2:	06da      	lsls	r2, r3, #27
20004ce4:	d105      	bne.n	20004cf2 <dcd_edpt0_status_complete+0x12>
20004ce6:	2260      	movs	r2, #96	@ 0x60
20004ce8:	421a      	tst	r2, r3
20004cea:	d102      	bne.n	20004cf2 <dcd_edpt0_status_complete+0x12>
20004cec:	784b      	ldrb	r3, [r1, #1]
20004cee:	2b05      	cmp	r3, #5
20004cf0:	d000      	beq.n	20004cf4 <dcd_edpt0_status_complete+0x14>
20004cf2:	4770      	bx	lr
20004cf4:	788a      	ldrb	r2, [r1, #2]
20004cf6:	78cb      	ldrb	r3, [r1, #3]
20004cf8:	021b      	lsls	r3, r3, #8
20004cfa:	4313      	orrs	r3, r2
20004cfc:	22ff      	movs	r2, #255	@ 0xff
20004cfe:	4013      	ands	r3, r2
20004d00:	4a01      	ldr	r2, [pc, #4]	@ (20004d08 <dcd_edpt0_status_complete+0x28>)
20004d02:	6013      	str	r3, [r2, #0]
20004d04:	e7f5      	b.n	20004cf2 <dcd_edpt0_status_complete+0x12>
20004d06:	46c0      	nop			@ (mov r8, r8)
20004d08:	50110000 	.word	0x50110000

20004d0c <dcd_edpt_open>:
20004d0c:	b510      	push	{r4, lr}
20004d0e:	78ca      	ldrb	r2, [r1, #3]
20004d10:	0792      	lsls	r2, r2, #30
20004d12:	0f92      	lsrs	r2, r2, #30
20004d14:	2a01      	cmp	r2, #1
20004d16:	d00a      	beq.n	20004d2e <dcd_edpt_open+0x22>
20004d18:	7888      	ldrb	r0, [r1, #2]
20004d1a:	790b      	ldrb	r3, [r1, #4]
20004d1c:	7949      	ldrb	r1, [r1, #5]
20004d1e:	0209      	lsls	r1, r1, #8
20004d20:	4319      	orrs	r1, r3
20004d22:	0549      	lsls	r1, r1, #21
20004d24:	0d49      	lsrs	r1, r1, #21
20004d26:	f7ff ff1f 	bl	20004b68 <hw_endpoint_open>
20004d2a:	2001      	movs	r0, #1
20004d2c:	bd10      	pop	{r4, pc}
20004d2e:	2000      	movs	r0, #0
20004d30:	e7fc      	b.n	20004d2c <dcd_edpt_open+0x20>

20004d32 <dcd_edpt_close_all>:
20004d32:	b510      	push	{r4, lr}
20004d34:	f7fb fb10 	bl	20000358 <reset_non_control_endpoints>
20004d38:	bd10      	pop	{r4, pc}
	...

20004d3c <dcd_edpt_xfer>:
20004d3c:	b510      	push	{r4, lr}
20004d3e:	4684      	mov	ip, r0
20004d40:	0008      	movs	r0, r1
20004d42:	0011      	movs	r1, r2
20004d44:	001a      	movs	r2, r3
20004d46:	4663      	mov	r3, ip
20004d48:	2b00      	cmp	r3, #0
20004d4a:	d103      	bne.n	20004d54 <dcd_edpt_xfer+0x18>
20004d4c:	f7ff ff36 	bl	20004bbc <hw_endpoint_xfer>
20004d50:	2001      	movs	r0, #1
20004d52:	bd10      	pop	{r4, pc}
20004d54:	4b03      	ldr	r3, [pc, #12]	@ (20004d64 <dcd_edpt_xfer+0x28>)
20004d56:	4a04      	ldr	r2, [pc, #16]	@ (20004d68 <dcd_edpt_xfer+0x2c>)
20004d58:	2181      	movs	r1, #129	@ 0x81
20004d5a:	4804      	ldr	r0, [pc, #16]	@ (20004d6c <dcd_edpt_xfer+0x30>)
20004d5c:	0089      	lsls	r1, r1, #2
20004d5e:	f7ff f9bb 	bl	200040d8 <__assert_func>
20004d62:	46c0      	nop			@ (mov r8, r8)
20004d64:	2000794c 	.word	0x2000794c
20004d68:	20007d6c 	.word	0x20007d6c
20004d6c:	200078dc 	.word	0x200078dc

20004d70 <dcd_edpt_stall>:
20004d70:	b510      	push	{r4, lr}
20004d72:	237f      	movs	r3, #127	@ 0x7f
20004d74:	0018      	movs	r0, r3
20004d76:	4008      	ands	r0, r1
20004d78:	420b      	tst	r3, r1
20004d7a:	d105      	bne.n	20004d88 <dcd_edpt_stall+0x18>
20004d7c:	09cb      	lsrs	r3, r1, #7
20004d7e:	2b01      	cmp	r3, #1
20004d80:	d00e      	beq.n	20004da0 <dcd_edpt_stall+0x30>
20004d82:	2202      	movs	r2, #2
20004d84:	4b07      	ldr	r3, [pc, #28]	@ (20004da4 <dcd_edpt_stall+0x34>)
20004d86:	669a      	str	r2, [r3, #104]	@ 0x68
20004d88:	09c9      	lsrs	r1, r1, #7
20004d8a:	0040      	lsls	r0, r0, #1
20004d8c:	1840      	adds	r0, r0, r1
20004d8e:	0140      	lsls	r0, r0, #5
20004d90:	4b05      	ldr	r3, [pc, #20]	@ (20004da8 <dcd_edpt_stall+0x38>)
20004d92:	18c0      	adds	r0, r0, r3
20004d94:	2280      	movs	r2, #128	@ 0x80
20004d96:	0112      	lsls	r2, r2, #4
20004d98:	2100      	movs	r1, #0
20004d9a:	f7fb fd03 	bl	200007a4 <_hw_endpoint_buffer_control_update32>
20004d9e:	bd10      	pop	{r4, pc}
20004da0:	2201      	movs	r2, #1
20004da2:	e7ef      	b.n	20004d84 <dcd_edpt_stall+0x14>
20004da4:	50112000 	.word	0x50112000
20004da8:	200086cc 	.word	0x200086cc

20004dac <dcd_edpt_clear_stall>:
20004dac:	b510      	push	{r4, lr}
20004dae:	227f      	movs	r2, #127	@ 0x7f
20004db0:	0010      	movs	r0, r2
20004db2:	4008      	ands	r0, r1
20004db4:	420a      	tst	r2, r1
20004db6:	d100      	bne.n	20004dba <dcd_edpt_clear_stall+0xe>
20004db8:	bd10      	pop	{r4, pc}
20004dba:	09c9      	lsrs	r1, r1, #7
20004dbc:	0040      	lsls	r0, r0, #1
20004dbe:	1840      	adds	r0, r0, r1
20004dc0:	0140      	lsls	r0, r0, #5
20004dc2:	4b04      	ldr	r3, [pc, #16]	@ (20004dd4 <dcd_edpt_clear_stall+0x28>)
20004dc4:	18c0      	adds	r0, r0, r3
20004dc6:	2300      	movs	r3, #0
20004dc8:	70c3      	strb	r3, [r0, #3]
20004dca:	2200      	movs	r2, #0
20004dcc:	4902      	ldr	r1, [pc, #8]	@ (20004dd8 <dcd_edpt_clear_stall+0x2c>)
20004dce:	f7fb fce9 	bl	200007a4 <_hw_endpoint_buffer_control_update32>
20004dd2:	e7f1      	b.n	20004db8 <dcd_edpt_clear_stall+0xc>
20004dd4:	200086cc 	.word	0x200086cc
20004dd8:	fffff7ff 	.word	0xfffff7ff

20004ddc <unaligned_memcpy>:
20004ddc:	e004      	b.n	20004de8 <unaligned_memcpy+0xc>
20004dde:	780a      	ldrb	r2, [r1, #0]
20004de0:	7002      	strb	r2, [r0, #0]
20004de2:	3101      	adds	r1, #1
20004de4:	3001      	adds	r0, #1
20004de6:	001a      	movs	r2, r3
20004de8:	1e53      	subs	r3, r2, #1
20004dea:	2a00      	cmp	r2, #0
20004dec:	d1f7      	bne.n	20004dde <unaligned_memcpy+0x2>
20004dee:	4770      	bx	lr

20004df0 <rp2040_usb_init>:
20004df0:	b510      	push	{r4, lr}
20004df2:	2380      	movs	r3, #128	@ 0x80
20004df4:	045b      	lsls	r3, r3, #17
20004df6:	4a0a      	ldr	r2, [pc, #40]	@ (20004e20 <rp2040_usb_init+0x30>)
20004df8:	6013      	str	r3, [r2, #0]
20004dfa:	4a0a      	ldr	r2, [pc, #40]	@ (20004e24 <rp2040_usb_init+0x34>)
20004dfc:	6013      	str	r3, [r2, #0]
20004dfe:	4b0a      	ldr	r3, [pc, #40]	@ (20004e28 <rp2040_usb_init+0x38>)
20004e00:	681a      	ldr	r2, [r3, #0]
20004e02:	2380      	movs	r3, #128	@ 0x80
20004e04:	045b      	lsls	r3, r3, #17
20004e06:	4393      	bics	r3, r2
20004e08:	d1f9      	bne.n	20004dfe <rp2040_usb_init+0xe>
20004e0a:	2280      	movs	r2, #128	@ 0x80
20004e0c:	0152      	lsls	r2, r2, #5
20004e0e:	2100      	movs	r1, #0
20004e10:	4806      	ldr	r0, [pc, #24]	@ (20004e2c <rp2040_usb_init+0x3c>)
20004e12:	f7fe f85b 	bl	20002ecc <__wrap_memset>
20004e16:	4b06      	ldr	r3, [pc, #24]	@ (20004e30 <rp2040_usb_init+0x40>)
20004e18:	2209      	movs	r2, #9
20004e1a:	675a      	str	r2, [r3, #116]	@ 0x74
20004e1c:	bd10      	pop	{r4, pc}
20004e1e:	46c0      	nop			@ (mov r8, r8)
20004e20:	4000e000 	.word	0x4000e000
20004e24:	4000f000 	.word	0x4000f000
20004e28:	4000c008 	.word	0x4000c008
20004e2c:	50100000 	.word	0x50100000
20004e30:	50110000 	.word	0x50110000

20004e34 <hw_endpoint_xfer_start>:
20004e34:	b570      	push	{r4, r5, r6, lr}
20004e36:	0004      	movs	r4, r0
20004e38:	000d      	movs	r5, r1
20004e3a:	0016      	movs	r6, r2
20004e3c:	7e83      	ldrb	r3, [r0, #26]
20004e3e:	2b00      	cmp	r3, #0
20004e40:	d117      	bne.n	20004e72 <hw_endpoint_xfer_start+0x3e>
20004e42:	82a6      	strh	r6, [r4, #20]
20004e44:	2300      	movs	r3, #0
20004e46:	82e3      	strh	r3, [r4, #22]
20004e48:	3301      	adds	r3, #1
20004e4a:	76a3      	strb	r3, [r4, #26]
20004e4c:	6125      	str	r5, [r4, #16]
20004e4e:	0020      	movs	r0, r4
20004e50:	f7fb fc24 	bl	2000069c <e15_is_bulkin_ep>
20004e54:	2800      	cmp	r0, #0
20004e56:	d004      	beq.n	20004e62 <hw_endpoint_xfer_start+0x2e>
20004e58:	4a09      	ldr	r2, [pc, #36]	@ (20004e80 <hw_endpoint_xfer_start+0x4c>)
20004e5a:	2390      	movs	r3, #144	@ 0x90
20004e5c:	2180      	movs	r1, #128	@ 0x80
20004e5e:	0289      	lsls	r1, r1, #10
20004e60:	50d1      	str	r1, [r2, r3]
20004e62:	0020      	movs	r0, r4
20004e64:	f7fb fc30 	bl	200006c8 <e15_is_critical_frame_period>
20004e68:	2800      	cmp	r0, #0
20004e6a:	d005      	beq.n	20004e78 <hw_endpoint_xfer_start+0x44>
20004e6c:	2301      	movs	r3, #1
20004e6e:	7723      	strb	r3, [r4, #28]
20004e70:	bd70      	pop	{r4, r5, r6, pc}
20004e72:	f7fb fc91 	bl	20000798 <hw_endpoint_reset_transfer>
20004e76:	e7e4      	b.n	20004e42 <hw_endpoint_xfer_start+0xe>
20004e78:	0020      	movs	r0, r4
20004e7a:	f7fb fcb9 	bl	200007f0 <hw_endpoint_start_next_buffer>
20004e7e:	e7f7      	b.n	20004e70 <hw_endpoint_xfer_start+0x3c>
20004e80:	50112000 	.word	0x50112000

20004e84 <configuration_reset>:
20004e84:	b570      	push	{r4, r5, r6, lr}
20004e86:	0005      	movs	r5, r0
20004e88:	2400      	movs	r4, #0
20004e8a:	e008      	b.n	20004e9e <configuration_reset+0x1a>
20004e8c:	1a9b      	subs	r3, r3, r2
20004e8e:	015b      	lsls	r3, r3, #5
20004e90:	4a13      	ldr	r2, [pc, #76]	@ (20004ee0 <configuration_reset+0x5c>)
20004e92:	189b      	adds	r3, r3, r2
20004e94:	68db      	ldr	r3, [r3, #12]
20004e96:	0028      	movs	r0, r5
20004e98:	4798      	blx	r3
20004e9a:	3401      	adds	r4, #1
20004e9c:	b2e4      	uxtb	r4, r4
20004e9e:	4b11      	ldr	r3, [pc, #68]	@ (20004ee4 <configuration_reset+0x60>)
20004ea0:	781a      	ldrb	r2, [r3, #0]
20004ea2:	0023      	movs	r3, r4
20004ea4:	1c51      	adds	r1, r2, #1
20004ea6:	42a1      	cmp	r1, r4
20004ea8:	db08      	blt.n	20004ebc <configuration_reset+0x38>
20004eaa:	42a2      	cmp	r2, r4
20004eac:	d9ee      	bls.n	20004e8c <configuration_reset+0x8>
20004eae:	4b0e      	ldr	r3, [pc, #56]	@ (20004ee8 <configuration_reset+0x64>)
20004eb0:	681b      	ldr	r3, [r3, #0]
20004eb2:	0162      	lsls	r2, r4, #5
20004eb4:	189b      	adds	r3, r3, r2
20004eb6:	2b00      	cmp	r3, #0
20004eb8:	d1ec      	bne.n	20004e94 <configuration_reset+0x10>
20004eba:	e010      	b.n	20004ede <configuration_reset+0x5a>
20004ebc:	4c0b      	ldr	r4, [pc, #44]	@ (20004eec <configuration_reset+0x68>)
20004ebe:	2254      	movs	r2, #84	@ 0x54
20004ec0:	2100      	movs	r1, #0
20004ec2:	0020      	movs	r0, r4
20004ec4:	f7fe f802 	bl	20002ecc <__wrap_memset>
20004ec8:	1d20      	adds	r0, r4, #4
20004eca:	2210      	movs	r2, #16
20004ecc:	21ff      	movs	r1, #255	@ 0xff
20004ece:	f7fd fffd 	bl	20002ecc <__wrap_memset>
20004ed2:	0020      	movs	r0, r4
20004ed4:	3014      	adds	r0, #20
20004ed6:	2220      	movs	r2, #32
20004ed8:	21ff      	movs	r1, #255	@ 0xff
20004eda:	f7fd fff7 	bl	20002ecc <__wrap_memset>
20004ede:	bd70      	pop	{r4, r5, r6, pc}
20004ee0:	20007dcc 	.word	0x20007dcc
20004ee4:	20008d15 	.word	0x20008d15
20004ee8:	200080c8 	.word	0x200080c8
20004eec:	20008278 	.word	0x20008278

20004ef0 <usbd_reset>:
20004ef0:	b510      	push	{r4, lr}
20004ef2:	f7ff ffc7 	bl	20004e84 <configuration_reset>
20004ef6:	f000 fdcd 	bl	20005a94 <usbd_control_reset>
20004efa:	bd10      	pop	{r4, pc}

20004efc <invoke_class_control>:
20004efc:	b570      	push	{r4, r5, r6, lr}
20004efe:	0006      	movs	r6, r0
20004f00:	000c      	movs	r4, r1
20004f02:	0015      	movs	r5, r2
20004f04:	6948      	ldr	r0, [r1, #20]
20004f06:	f000 fdcf 	bl	20005aa8 <usbd_control_set_complete_callback>
20004f0a:	6963      	ldr	r3, [r4, #20]
20004f0c:	002a      	movs	r2, r5
20004f0e:	2101      	movs	r1, #1
20004f10:	0030      	movs	r0, r6
20004f12:	4798      	blx	r3
20004f14:	bd70      	pop	{r4, r5, r6, pc}
	...

20004f18 <process_set_config>:
20004f18:	b5f0      	push	{r4, r5, r6, r7, lr}
20004f1a:	46de      	mov	lr, fp
20004f1c:	4657      	mov	r7, sl
20004f1e:	464e      	mov	r6, r9
20004f20:	4645      	mov	r5, r8
20004f22:	b5e0      	push	{r5, r6, r7, lr}
20004f24:	b083      	sub	sp, #12
20004f26:	4682      	mov	sl, r0
20004f28:	3901      	subs	r1, #1
20004f2a:	b2c8      	uxtb	r0, r1
20004f2c:	f7ff fd1e 	bl	2000496c <tud_descriptor_configuration_cb>
20004f30:	2800      	cmp	r0, #0
20004f32:	d100      	bne.n	20004f36 <process_set_config+0x1e>
20004f34:	e089      	b.n	2000504a <process_set_config+0x132>
20004f36:	7843      	ldrb	r3, [r0, #1]
20004f38:	4699      	mov	r9, r3
20004f3a:	2b02      	cmp	r3, #2
20004f3c:	d000      	beq.n	20004f40 <process_set_config+0x28>
20004f3e:	e083      	b.n	20005048 <process_set_config+0x130>
20004f40:	79c5      	ldrb	r5, [r0, #7]
20004f42:	116c      	asrs	r4, r5, #5
20004f44:	2201      	movs	r2, #1
20004f46:	4b47      	ldr	r3, [pc, #284]	@ (20005064 <process_set_config+0x14c>)
20004f48:	4014      	ands	r4, r2
20004f4a:	0124      	lsls	r4, r4, #4
20004f4c:	7819      	ldrb	r1, [r3, #0]
20004f4e:	2610      	movs	r6, #16
20004f50:	43b1      	bics	r1, r6
20004f52:	4321      	orrs	r1, r4
20004f54:	7019      	strb	r1, [r3, #0]
20004f56:	11ad      	asrs	r5, r5, #6
20004f58:	402a      	ands	r2, r5
20004f5a:	0152      	lsls	r2, r2, #5
20004f5c:	b2c9      	uxtb	r1, r1
20004f5e:	2420      	movs	r4, #32
20004f60:	43a1      	bics	r1, r4
20004f62:	430a      	orrs	r2, r1
20004f64:	701a      	strb	r2, [r3, #0]
20004f66:	0006      	movs	r6, r0
20004f68:	3609      	adds	r6, #9
20004f6a:	7882      	ldrb	r2, [r0, #2]
20004f6c:	78c3      	ldrb	r3, [r0, #3]
20004f6e:	021b      	lsls	r3, r3, #8
20004f70:	4313      	orrs	r3, r2
20004f72:	18c3      	adds	r3, r0, r3
20004f74:	469b      	mov	fp, r3
20004f76:	464b      	mov	r3, r9
20004f78:	9300      	str	r3, [sp, #0]
20004f7a:	0037      	movs	r7, r6
20004f7c:	e051      	b.n	20005022 <process_set_config+0x10a>
20004f7e:	78fb      	ldrb	r3, [r7, #3]
20004f80:	4699      	mov	r9, r3
20004f82:	783a      	ldrb	r2, [r7, #0]
20004f84:	18bf      	adds	r7, r7, r2
20004f86:	e053      	b.n	20005030 <process_set_config+0x118>
20004f88:	1b34      	subs	r4, r6, r4
20004f8a:	0164      	lsls	r4, r4, #5
20004f8c:	4b36      	ldr	r3, [pc, #216]	@ (20005068 <process_set_config+0x150>)
20004f8e:	18e4      	adds	r4, r4, r3
20004f90:	6923      	ldr	r3, [r4, #16]
20004f92:	003a      	movs	r2, r7
20004f94:	4641      	mov	r1, r8
20004f96:	4650      	mov	r0, sl
20004f98:	4798      	blx	r3
20004f9a:	2808      	cmp	r0, #8
20004f9c:	d901      	bls.n	20004fa2 <process_set_config+0x8a>
20004f9e:	4287      	cmp	r7, r0
20004fa0:	d211      	bcs.n	20004fc6 <process_set_config+0xae>
20004fa2:	3501      	adds	r5, #1
20004fa4:	b2ed      	uxtb	r5, r5
20004fa6:	4b31      	ldr	r3, [pc, #196]	@ (2000506c <process_set_config+0x154>)
20004fa8:	781c      	ldrb	r4, [r3, #0]
20004faa:	002e      	movs	r6, r5
20004fac:	1c62      	adds	r2, r4, #1
20004fae:	42aa      	cmp	r2, r5
20004fb0:	db31      	blt.n	20005016 <process_set_config+0xfe>
20004fb2:	42ac      	cmp	r4, r5
20004fb4:	d9e8      	bls.n	20004f88 <process_set_config+0x70>
20004fb6:	4b2e      	ldr	r3, [pc, #184]	@ (20005070 <process_set_config+0x158>)
20004fb8:	681c      	ldr	r4, [r3, #0]
20004fba:	016a      	lsls	r2, r5, #5
20004fbc:	18a4      	adds	r4, r4, r2
20004fbe:	2c00      	cmp	r4, #0
20004fc0:	d1e6      	bne.n	20004f90 <process_set_config+0x78>
20004fc2:	2000      	movs	r0, #0
20004fc4:	e041      	b.n	2000504a <process_set_config+0x132>
20004fc6:	4647      	mov	r7, r8
20004fc8:	9001      	str	r0, [sp, #4]
20004fca:	464b      	mov	r3, r9
20004fcc:	2b01      	cmp	r3, #1
20004fce:	d011      	beq.n	20004ff4 <process_set_config+0xdc>
20004fd0:	2000      	movs	r0, #0
20004fd2:	4649      	mov	r1, r9
20004fd4:	4281      	cmp	r1, r0
20004fd6:	d914      	bls.n	20005002 <process_set_config+0xea>
20004fd8:	78bb      	ldrb	r3, [r7, #2]
20004fda:	181b      	adds	r3, r3, r0
20004fdc:	b2db      	uxtb	r3, r3
20004fde:	4a21      	ldr	r2, [pc, #132]	@ (20005064 <process_set_config+0x14c>)
20004fe0:	18d2      	adds	r2, r2, r3
20004fe2:	7912      	ldrb	r2, [r2, #4]
20004fe4:	2aff      	cmp	r2, #255	@ 0xff
20004fe6:	d139      	bne.n	2000505c <process_set_config+0x144>
20004fe8:	4a1e      	ldr	r2, [pc, #120]	@ (20005064 <process_set_config+0x14c>)
20004fea:	18d3      	adds	r3, r2, r3
20004fec:	711d      	strb	r5, [r3, #4]
20004fee:	3001      	adds	r0, #1
20004ff0:	b2c0      	uxtb	r0, r0
20004ff2:	e7ef      	b.n	20004fd4 <process_set_config+0xbc>
20004ff4:	6921      	ldr	r1, [r4, #16]
20004ff6:	4a1f      	ldr	r2, [pc, #124]	@ (20005074 <process_set_config+0x15c>)
20004ff8:	4291      	cmp	r1, r2
20004ffa:	d1e9      	bne.n	20004fd0 <process_set_config+0xb8>
20004ffc:	9b00      	ldr	r3, [sp, #0]
20004ffe:	4699      	mov	r9, r3
20005000:	e7e6      	b.n	20004fd0 <process_set_config+0xb8>
20005002:	481d      	ldr	r0, [pc, #116]	@ (20005078 <process_set_config+0x160>)
20005004:	002b      	movs	r3, r5
20005006:	9c01      	ldr	r4, [sp, #4]
20005008:	0022      	movs	r2, r4
2000500a:	0039      	movs	r1, r7
2000500c:	f001 fb74 	bl	200066f8 <tu_edpt_bind_driver>
20005010:	46a4      	mov	ip, r4
20005012:	4467      	add	r7, ip
20005014:	e000      	b.n	20005018 <process_set_config+0x100>
20005016:	4647      	mov	r7, r8
20005018:	4b14      	ldr	r3, [pc, #80]	@ (2000506c <process_set_config+0x154>)
2000501a:	781b      	ldrb	r3, [r3, #0]
2000501c:	3301      	adds	r3, #1
2000501e:	429e      	cmp	r6, r3
20005020:	dc1e      	bgt.n	20005060 <process_set_config+0x148>
20005022:	455f      	cmp	r7, fp
20005024:	d20e      	bcs.n	20005044 <process_set_config+0x12c>
20005026:	787b      	ldrb	r3, [r7, #1]
20005028:	2b0b      	cmp	r3, #11
2000502a:	d0a8      	beq.n	20004f7e <process_set_config+0x66>
2000502c:	2301      	movs	r3, #1
2000502e:	4699      	mov	r9, r3
20005030:	787a      	ldrb	r2, [r7, #1]
20005032:	2a04      	cmp	r2, #4
20005034:	d110      	bne.n	20005058 <process_set_config+0x140>
20005036:	465b      	mov	r3, fp
20005038:	1bda      	subs	r2, r3, r7
2000503a:	b293      	uxth	r3, r2
2000503c:	2500      	movs	r5, #0
2000503e:	46b8      	mov	r8, r7
20005040:	001f      	movs	r7, r3
20005042:	e7b0      	b.n	20004fa6 <process_set_config+0x8e>
20005044:	2001      	movs	r0, #1
20005046:	e000      	b.n	2000504a <process_set_config+0x132>
20005048:	2000      	movs	r0, #0
2000504a:	b003      	add	sp, #12
2000504c:	bcf0      	pop	{r4, r5, r6, r7}
2000504e:	46bb      	mov	fp, r7
20005050:	46b2      	mov	sl, r6
20005052:	46a9      	mov	r9, r5
20005054:	46a0      	mov	r8, r4
20005056:	bdf0      	pop	{r4, r5, r6, r7, pc}
20005058:	2000      	movs	r0, #0
2000505a:	e7f6      	b.n	2000504a <process_set_config+0x132>
2000505c:	2000      	movs	r0, #0
2000505e:	e7f4      	b.n	2000504a <process_set_config+0x132>
20005060:	2000      	movs	r0, #0
20005062:	e7f2      	b.n	2000504a <process_set_config+0x132>
20005064:	20008278 	.word	0x20008278
20005068:	20007dcc 	.word	0x20007dcc
2000506c:	20008d15 	.word	0x20008d15
20005070:	200080c8 	.word	0x200080c8
20005074:	20005ef1 	.word	0x20005ef1
20005078:	2000828c 	.word	0x2000828c

2000507c <tud_event_hook_cb>:
2000507c:	4770      	bx	lr

2000507e <tud_sof_cb>:
2000507e:	4770      	bx	lr

20005080 <tud_descriptor_device_qualifier_cb>:
20005080:	2000      	movs	r0, #0
20005082:	4770      	bx	lr

20005084 <tud_descriptor_other_speed_configuration_cb>:
20005084:	2000      	movs	r0, #0
20005086:	4770      	bx	lr

20005088 <process_get_descriptor>:
20005088:	b570      	push	{r4, r5, r6, lr}
2000508a:	0005      	movs	r5, r0
2000508c:	000c      	movs	r4, r1
2000508e:	7888      	ldrb	r0, [r1, #2]
20005090:	78cb      	ldrb	r3, [r1, #3]
20005092:	021b      	lsls	r3, r3, #8
20005094:	0a1a      	lsrs	r2, r3, #8
20005096:	0013      	movs	r3, r2
20005098:	2a06      	cmp	r2, #6
2000509a:	d048      	beq.n	2000512e <process_get_descriptor+0xa6>
2000509c:	d811      	bhi.n	200050c2 <process_get_descriptor+0x3a>
2000509e:	2a02      	cmp	r2, #2
200050a0:	d022      	beq.n	200050e8 <process_get_descriptor+0x60>
200050a2:	2a03      	cmp	r2, #3
200050a4:	d035      	beq.n	20005112 <process_get_descriptor+0x8a>
200050a6:	2a01      	cmp	r2, #1
200050a8:	d109      	bne.n	200050be <process_get_descriptor+0x36>
200050aa:	f7ff fc5b 	bl	20004964 <tud_descriptor_device_cb>
200050ae:	1e02      	subs	r2, r0, #0
200050b0:	d047      	beq.n	20005142 <process_get_descriptor+0xba>
200050b2:	2312      	movs	r3, #18
200050b4:	0021      	movs	r1, r4
200050b6:	0028      	movs	r0, r5
200050b8:	f000 fcba 	bl	20005a30 <tud_control_xfer>
200050bc:	e022      	b.n	20005104 <process_get_descriptor+0x7c>
200050be:	2000      	movs	r0, #0
200050c0:	e020      	b.n	20005104 <process_get_descriptor+0x7c>
200050c2:	2a07      	cmp	r2, #7
200050c4:	d010      	beq.n	200050e8 <process_get_descriptor+0x60>
200050c6:	2a0f      	cmp	r2, #15
200050c8:	d10c      	bne.n	200050e4 <process_get_descriptor+0x5c>
200050ca:	f7ff f9d3 	bl	20004474 <tud_descriptor_bos_cb>
200050ce:	1e02      	subs	r2, r0, #0
200050d0:	d039      	beq.n	20005146 <process_get_descriptor+0xbe>
200050d2:	7881      	ldrb	r1, [r0, #2]
200050d4:	78c3      	ldrb	r3, [r0, #3]
200050d6:	021b      	lsls	r3, r3, #8
200050d8:	430b      	orrs	r3, r1
200050da:	0021      	movs	r1, r4
200050dc:	0028      	movs	r0, r5
200050de:	f000 fca7 	bl	20005a30 <tud_control_xfer>
200050e2:	e00f      	b.n	20005104 <process_get_descriptor+0x7c>
200050e4:	2000      	movs	r0, #0
200050e6:	e00d      	b.n	20005104 <process_get_descriptor+0x7c>
200050e8:	2b02      	cmp	r3, #2
200050ea:	d00c      	beq.n	20005106 <process_get_descriptor+0x7e>
200050ec:	f7ff ffca 	bl	20005084 <tud_descriptor_other_speed_configuration_cb>
200050f0:	1e02      	subs	r2, r0, #0
200050f2:	d02a      	beq.n	2000514a <process_get_descriptor+0xc2>
200050f4:	7891      	ldrb	r1, [r2, #2]
200050f6:	78d3      	ldrb	r3, [r2, #3]
200050f8:	021b      	lsls	r3, r3, #8
200050fa:	430b      	orrs	r3, r1
200050fc:	0021      	movs	r1, r4
200050fe:	0028      	movs	r0, r5
20005100:	f000 fc96 	bl	20005a30 <tud_control_xfer>
20005104:	bd70      	pop	{r4, r5, r6, pc}
20005106:	f7ff fc31 	bl	2000496c <tud_descriptor_configuration_cb>
2000510a:	1e02      	subs	r2, r0, #0
2000510c:	d1f2      	bne.n	200050f4 <process_get_descriptor+0x6c>
2000510e:	2000      	movs	r0, #0
20005110:	e7f8      	b.n	20005104 <process_get_descriptor+0x7c>
20005112:	790b      	ldrb	r3, [r1, #4]
20005114:	7949      	ldrb	r1, [r1, #5]
20005116:	0209      	lsls	r1, r1, #8
20005118:	4319      	orrs	r1, r3
2000511a:	f7ff fc2b 	bl	20004974 <tud_descriptor_string_cb>
2000511e:	1e02      	subs	r2, r0, #0
20005120:	d015      	beq.n	2000514e <process_get_descriptor+0xc6>
20005122:	7803      	ldrb	r3, [r0, #0]
20005124:	0021      	movs	r1, r4
20005126:	0028      	movs	r0, r5
20005128:	f000 fc82 	bl	20005a30 <tud_control_xfer>
2000512c:	e7ea      	b.n	20005104 <process_get_descriptor+0x7c>
2000512e:	f7ff ffa7 	bl	20005080 <tud_descriptor_device_qualifier_cb>
20005132:	1e02      	subs	r2, r0, #0
20005134:	d00d      	beq.n	20005152 <process_get_descriptor+0xca>
20005136:	7803      	ldrb	r3, [r0, #0]
20005138:	0021      	movs	r1, r4
2000513a:	0028      	movs	r0, r5
2000513c:	f000 fc78 	bl	20005a30 <tud_control_xfer>
20005140:	e7e0      	b.n	20005104 <process_get_descriptor+0x7c>
20005142:	2000      	movs	r0, #0
20005144:	e7de      	b.n	20005104 <process_get_descriptor+0x7c>
20005146:	2000      	movs	r0, #0
20005148:	e7dc      	b.n	20005104 <process_get_descriptor+0x7c>
2000514a:	2000      	movs	r0, #0
2000514c:	e7da      	b.n	20005104 <process_get_descriptor+0x7c>
2000514e:	2000      	movs	r0, #0
20005150:	e7d8      	b.n	20005104 <process_get_descriptor+0x7c>
20005152:	2000      	movs	r0, #0
20005154:	e7d6      	b.n	20005104 <process_get_descriptor+0x7c>

20005156 <tud_mount_cb>:
20005156:	4770      	bx	lr

20005158 <tud_umount_cb>:
20005158:	4770      	bx	lr

2000515a <tud_suspend_cb>:
2000515a:	4770      	bx	lr

2000515c <tud_resume_cb>:
2000515c:	4770      	bx	lr
	...

20005160 <tud_mounted>:
20005160:	4b02      	ldr	r3, [pc, #8]	@ (2000516c <tud_mounted+0xc>)
20005162:	7858      	ldrb	r0, [r3, #1]
20005164:	1e43      	subs	r3, r0, #1
20005166:	4198      	sbcs	r0, r3
20005168:	b2c0      	uxtb	r0, r0
2000516a:	4770      	bx	lr
2000516c:	20008278 	.word	0x20008278

20005170 <tud_suspended>:
20005170:	4b02      	ldr	r3, [pc, #8]	@ (2000517c <tud_suspended+0xc>)
20005172:	7818      	ldrb	r0, [r3, #0]
20005174:	0740      	lsls	r0, r0, #29
20005176:	0fc0      	lsrs	r0, r0, #31
20005178:	4770      	bx	lr
2000517a:	46c0      	nop			@ (mov r8, r8)
2000517c:	20008278 	.word	0x20008278

20005180 <tud_inited>:
20005180:	4b03      	ldr	r3, [pc, #12]	@ (20005190 <tud_inited+0x10>)
20005182:	7818      	ldrb	r0, [r3, #0]
20005184:	38ff      	subs	r0, #255	@ 0xff
20005186:	1e43      	subs	r3, r0, #1
20005188:	4198      	sbcs	r0, r3
2000518a:	b2c0      	uxtb	r0, r0
2000518c:	4770      	bx	lr
2000518e:	46c0      	nop			@ (mov r8, r8)
20005190:	20007ef4 	.word	0x20007ef4

20005194 <tud_rhport_init>:
20005194:	b5f8      	push	{r3, r4, r5, r6, r7, lr}
20005196:	0006      	movs	r6, r0
20005198:	000c      	movs	r4, r1
2000519a:	000f      	movs	r7, r1
2000519c:	f7ff fff0 	bl	20005180 <tud_inited>
200051a0:	1e05      	subs	r5, r0, #0
200051a2:	d144      	bne.n	2000522e <tud_rhport_init+0x9a>
200051a4:	2c00      	cmp	r4, #0
200051a6:	d042      	beq.n	2000522e <tud_rhport_init+0x9a>
200051a8:	4824      	ldr	r0, [pc, #144]	@ (2000523c <tud_rhport_init+0xa8>)
200051aa:	2254      	movs	r2, #84	@ 0x54
200051ac:	2100      	movs	r1, #0
200051ae:	f7fd fe8d 	bl	20002ecc <__wrap_memset>
200051b2:	4b23      	ldr	r3, [pc, #140]	@ (20005240 <tud_rhport_init+0xac>)
200051b4:	2200      	movs	r2, #0
200051b6:	701a      	strb	r2, [r3, #0]
200051b8:	4c22      	ldr	r4, [pc, #136]	@ (20005244 <tud_rhport_init+0xb0>)
200051ba:	0020      	movs	r0, r4
200051bc:	f7fc f828 	bl	20001210 <mutex_init>
200051c0:	4b21      	ldr	r3, [pc, #132]	@ (20005248 <tud_rhport_init+0xb4>)
200051c2:	601c      	str	r4, [r3, #0]
200051c4:	4c21      	ldr	r4, [pc, #132]	@ (2000524c <tud_rhport_init+0xb8>)
200051c6:	0020      	movs	r0, r4
200051c8:	f7fc f86e 	bl	200012a8 <critical_section_init>
200051cc:	3c14      	subs	r4, #20
200051ce:	0020      	movs	r0, r4
200051d0:	f001 fe22 	bl	20006e18 <tu_fifo_clear>
200051d4:	4b1e      	ldr	r3, [pc, #120]	@ (20005250 <tud_rhport_init+0xbc>)
200051d6:	601c      	str	r4, [r3, #0]
200051d8:	4b1e      	ldr	r3, [pc, #120]	@ (20005254 <tud_rhport_init+0xc0>)
200051da:	2b00      	cmp	r3, #0
200051dc:	d004      	beq.n	200051e8 <tud_rhport_init+0x54>
200051de:	481e      	ldr	r0, [pc, #120]	@ (20005258 <tud_rhport_init+0xc4>)
200051e0:	f7ff f96a 	bl	200044b8 <usbd_app_driver_get_cb>
200051e4:	4b1d      	ldr	r3, [pc, #116]	@ (2000525c <tud_rhport_init+0xc8>)
200051e6:	6018      	str	r0, [r3, #0]
200051e8:	2400      	movs	r4, #0
200051ea:	e009      	b.n	20005200 <tud_rhport_init+0x6c>
200051ec:	1a9b      	subs	r3, r3, r2
200051ee:	015b      	lsls	r3, r3, #5
200051f0:	4a1b      	ldr	r2, [pc, #108]	@ (20005260 <tud_rhport_init+0xcc>)
200051f2:	189b      	adds	r3, r3, r2
200051f4:	685b      	ldr	r3, [r3, #4]
200051f6:	2b00      	cmp	r3, #0
200051f8:	d019      	beq.n	2000522e <tud_rhport_init+0x9a>
200051fa:	4798      	blx	r3
200051fc:	3401      	adds	r4, #1
200051fe:	b2e4      	uxtb	r4, r4
20005200:	4b15      	ldr	r3, [pc, #84]	@ (20005258 <tud_rhport_init+0xc4>)
20005202:	781a      	ldrb	r2, [r3, #0]
20005204:	0023      	movs	r3, r4
20005206:	1c51      	adds	r1, r2, #1
20005208:	42a1      	cmp	r1, r4
2000520a:	db08      	blt.n	2000521e <tud_rhport_init+0x8a>
2000520c:	42a2      	cmp	r2, r4
2000520e:	d9ed      	bls.n	200051ec <tud_rhport_init+0x58>
20005210:	4b12      	ldr	r3, [pc, #72]	@ (2000525c <tud_rhport_init+0xc8>)
20005212:	681b      	ldr	r3, [r3, #0]
20005214:	0162      	lsls	r2, r4, #5
20005216:	189b      	adds	r3, r3, r2
20005218:	2b00      	cmp	r3, #0
2000521a:	d1eb      	bne.n	200051f4 <tud_rhport_init+0x60>
2000521c:	e007      	b.n	2000522e <tud_rhport_init+0x9a>
2000521e:	4b11      	ldr	r3, [pc, #68]	@ (20005264 <tud_rhport_init+0xd0>)
20005220:	701e      	strb	r6, [r3, #0]
20005222:	0039      	movs	r1, r7
20005224:	0030      	movs	r0, r6
20005226:	f7ff fd0d 	bl	20004c44 <dcd_init>
2000522a:	1e05      	subs	r5, r0, #0
2000522c:	d101      	bne.n	20005232 <tud_rhport_init+0x9e>
2000522e:	0028      	movs	r0, r5
20005230:	bdf8      	pop	{r3, r4, r5, r6, r7, pc}
20005232:	0030      	movs	r0, r6
20005234:	f7ff fcd2 	bl	20004bdc <dcd_int_enable>
20005238:	e7f9      	b.n	2000522e <tud_rhport_init+0x9a>
2000523a:	46c0      	nop			@ (mov r8, r8)
2000523c:	20008278 	.word	0x20008278
20005240:	20008d17 	.word	0x20008d17
20005244:	20008270 	.word	0x20008270
20005248:	200082cc 	.word	0x200082cc
2000524c:	20007eec 	.word	0x20007eec
20005250:	200082d0 	.word	0x200082d0
20005254:	200044b9 	.word	0x200044b9
20005258:	20008d15 	.word	0x20008d15
2000525c:	200080c8 	.word	0x200080c8
20005260:	20007dcc 	.word	0x20007dcc
20005264:	20007ef4 	.word	0x20007ef4

20005268 <usbd_edpt_open>:
20005268:	b570      	push	{r4, r5, r6, lr}
2000526a:	0008      	movs	r0, r1
2000526c:	4b09      	ldr	r3, [pc, #36]	@ (20005294 <usbd_edpt_open+0x2c>)
2000526e:	781c      	ldrb	r4, [r3, #0]
20005270:	000d      	movs	r5, r1
20005272:	788b      	ldrb	r3, [r1, #2]
20005274:	2270      	movs	r2, #112	@ 0x70
20005276:	421a      	tst	r2, r3
20005278:	d001      	beq.n	2000527e <usbd_edpt_open+0x16>
2000527a:	2000      	movs	r0, #0
2000527c:	bd70      	pop	{r4, r5, r6, pc}
2000527e:	4b06      	ldr	r3, [pc, #24]	@ (20005298 <usbd_edpt_open+0x30>)
20005280:	7899      	ldrb	r1, [r3, #2]
20005282:	f001 f9fd 	bl	20006680 <tu_edpt_validate>
20005286:	2800      	cmp	r0, #0
20005288:	d0f8      	beq.n	2000527c <usbd_edpt_open+0x14>
2000528a:	0029      	movs	r1, r5
2000528c:	0020      	movs	r0, r4
2000528e:	f7ff fd3d 	bl	20004d0c <dcd_edpt_open>
20005292:	e7f3      	b.n	2000527c <usbd_edpt_open+0x14>
20005294:	20007ef4 	.word	0x20007ef4
20005298:	20008278 	.word	0x20008278

2000529c <usbd_open_edpt_pair>:
2000529c:	b5f0      	push	{r4, r5, r6, r7, lr}
2000529e:	46c6      	mov	lr, r8
200052a0:	b500      	push	{lr}
200052a2:	4680      	mov	r8, r0
200052a4:	000c      	movs	r4, r1
200052a6:	0016      	movs	r6, r2
200052a8:	001f      	movs	r7, r3
200052aa:	2500      	movs	r5, #0
200052ac:	e004      	b.n	200052b8 <usbd_open_edpt_pair+0x1c>
200052ae:	9a07      	ldr	r2, [sp, #28]
200052b0:	7013      	strb	r3, [r2, #0]
200052b2:	7823      	ldrb	r3, [r4, #0]
200052b4:	18e4      	adds	r4, r4, r3
200052b6:	3501      	adds	r5, #1
200052b8:	42ae      	cmp	r6, r5
200052ba:	dd14      	ble.n	200052e6 <usbd_open_edpt_pair+0x4a>
200052bc:	7863      	ldrb	r3, [r4, #1]
200052be:	2b05      	cmp	r3, #5
200052c0:	d115      	bne.n	200052ee <usbd_open_edpt_pair+0x52>
200052c2:	78e1      	ldrb	r1, [r4, #3]
200052c4:	0789      	lsls	r1, r1, #30
200052c6:	0f89      	lsrs	r1, r1, #30
200052c8:	42b9      	cmp	r1, r7
200052ca:	d112      	bne.n	200052f2 <usbd_open_edpt_pair+0x56>
200052cc:	0021      	movs	r1, r4
200052ce:	4640      	mov	r0, r8
200052d0:	f7ff ffca 	bl	20005268 <usbd_edpt_open>
200052d4:	2800      	cmp	r0, #0
200052d6:	d007      	beq.n	200052e8 <usbd_open_edpt_pair+0x4c>
200052d8:	78a3      	ldrb	r3, [r4, #2]
200052da:	09da      	lsrs	r2, r3, #7
200052dc:	2a01      	cmp	r2, #1
200052de:	d0e6      	beq.n	200052ae <usbd_open_edpt_pair+0x12>
200052e0:	9a06      	ldr	r2, [sp, #24]
200052e2:	7013      	strb	r3, [r2, #0]
200052e4:	e7e5      	b.n	200052b2 <usbd_open_edpt_pair+0x16>
200052e6:	2001      	movs	r0, #1
200052e8:	bc80      	pop	{r7}
200052ea:	46b8      	mov	r8, r7
200052ec:	bdf0      	pop	{r4, r5, r6, r7, pc}
200052ee:	2000      	movs	r0, #0
200052f0:	e7fa      	b.n	200052e8 <usbd_open_edpt_pair+0x4c>
200052f2:	2000      	movs	r0, #0
200052f4:	e7f8      	b.n	200052e8 <usbd_open_edpt_pair+0x4c>
	...

200052f8 <usbd_edpt_claim>:
200052f8:	b510      	push	{r4, lr}
200052fa:	207f      	movs	r0, #127	@ 0x7f
200052fc:	4008      	ands	r0, r1
200052fe:	09c9      	lsrs	r1, r1, #7
20005300:	0040      	lsls	r0, r0, #1
20005302:	1840      	adds	r0, r0, r1
20005304:	3030      	adds	r0, #48	@ 0x30
20005306:	4b04      	ldr	r3, [pc, #16]	@ (20005318 <usbd_edpt_claim+0x20>)
20005308:	18c0      	adds	r0, r0, r3
2000530a:	3004      	adds	r0, #4
2000530c:	4b03      	ldr	r3, [pc, #12]	@ (2000531c <usbd_edpt_claim+0x24>)
2000530e:	6819      	ldr	r1, [r3, #0]
20005310:	f001 f96a 	bl	200065e8 <tu_edpt_claim>
20005314:	bd10      	pop	{r4, pc}
20005316:	46c0      	nop			@ (mov r8, r8)
20005318:	20008278 	.word	0x20008278
2000531c:	200082cc 	.word	0x200082cc

20005320 <usbd_edpt_release>:
20005320:	b510      	push	{r4, lr}
20005322:	207f      	movs	r0, #127	@ 0x7f
20005324:	4008      	ands	r0, r1
20005326:	09c9      	lsrs	r1, r1, #7
20005328:	0040      	lsls	r0, r0, #1
2000532a:	1840      	adds	r0, r0, r1
2000532c:	3030      	adds	r0, #48	@ 0x30
2000532e:	4b04      	ldr	r3, [pc, #16]	@ (20005340 <usbd_edpt_release+0x20>)
20005330:	18c0      	adds	r0, r0, r3
20005332:	3004      	adds	r0, #4
20005334:	4b03      	ldr	r3, [pc, #12]	@ (20005344 <usbd_edpt_release+0x24>)
20005336:	6819      	ldr	r1, [r3, #0]
20005338:	f001 f981 	bl	2000663e <tu_edpt_release>
2000533c:	bd10      	pop	{r4, pc}
2000533e:	46c0      	nop			@ (mov r8, r8)
20005340:	20008278 	.word	0x20008278
20005344:	200082cc 	.word	0x200082cc

20005348 <usbd_edpt_xfer>:
20005348:	b5f8      	push	{r3, r4, r5, r6, r7, lr}
2000534a:	46ce      	mov	lr, r9
2000534c:	4647      	mov	r7, r8
2000534e:	b580      	push	{r7, lr}
20005350:	001f      	movs	r7, r3
20005352:	4b1a      	ldr	r3, [pc, #104]	@ (200053bc <usbd_edpt_xfer+0x74>)
20005354:	7818      	ldrb	r0, [r3, #0]
20005356:	247f      	movs	r4, #127	@ 0x7f
20005358:	400c      	ands	r4, r1
2000535a:	09cd      	lsrs	r5, r1, #7
2000535c:	4b18      	ldr	r3, [pc, #96]	@ (200053c0 <usbd_edpt_xfer+0x78>)
2000535e:	0066      	lsls	r6, r4, #1
20005360:	199b      	adds	r3, r3, r6
20005362:	195b      	adds	r3, r3, r5
20005364:	3330      	adds	r3, #48	@ 0x30
20005366:	791b      	ldrb	r3, [r3, #4]
20005368:	07db      	lsls	r3, r3, #31
2000536a:	d504      	bpl.n	20005376 <usbd_edpt_xfer+0x2e>
2000536c:	2000      	movs	r0, #0
2000536e:	bcc0      	pop	{r6, r7}
20005370:	46b9      	mov	r9, r7
20005372:	46b0      	mov	r8, r6
20005374:	bdf8      	pop	{r3, r4, r5, r6, r7, pc}
20005376:	4b12      	ldr	r3, [pc, #72]	@ (200053c0 <usbd_edpt_xfer+0x78>)
20005378:	199b      	adds	r3, r3, r6
2000537a:	195b      	adds	r3, r3, r5
2000537c:	2630      	movs	r6, #48	@ 0x30
2000537e:	46b1      	mov	r9, r6
20005380:	4499      	add	r9, r3
20005382:	464b      	mov	r3, r9
20005384:	791b      	ldrb	r3, [r3, #4]
20005386:	2601      	movs	r6, #1
20005388:	46b4      	mov	ip, r6
2000538a:	4666      	mov	r6, ip
2000538c:	4333      	orrs	r3, r6
2000538e:	001e      	movs	r6, r3
20005390:	464b      	mov	r3, r9
20005392:	711e      	strb	r6, [r3, #4]
20005394:	003b      	movs	r3, r7
20005396:	f7ff fcd1 	bl	20004d3c <dcd_edpt_xfer>
2000539a:	2800      	cmp	r0, #0
2000539c:	d1e7      	bne.n	2000536e <usbd_edpt_xfer+0x26>
2000539e:	4b08      	ldr	r3, [pc, #32]	@ (200053c0 <usbd_edpt_xfer+0x78>)
200053a0:	0064      	lsls	r4, r4, #1
200053a2:	191b      	adds	r3, r3, r4
200053a4:	195b      	adds	r3, r3, r5
200053a6:	3330      	adds	r3, #48	@ 0x30
200053a8:	791a      	ldrb	r2, [r3, #4]
200053aa:	2101      	movs	r1, #1
200053ac:	438a      	bics	r2, r1
200053ae:	711a      	strb	r2, [r3, #4]
200053b0:	791a      	ldrb	r2, [r3, #4]
200053b2:	3103      	adds	r1, #3
200053b4:	438a      	bics	r2, r1
200053b6:	711a      	strb	r2, [r3, #4]
200053b8:	e7d9      	b.n	2000536e <usbd_edpt_xfer+0x26>
200053ba:	46c0      	nop			@ (mov r8, r8)
200053bc:	20007ef4 	.word	0x20007ef4
200053c0:	20008278 	.word	0x20008278

200053c4 <usbd_edpt_stall>:
200053c4:	b570      	push	{r4, r5, r6, lr}
200053c6:	4b0a      	ldr	r3, [pc, #40]	@ (200053f0 <usbd_edpt_stall+0x2c>)
200053c8:	7818      	ldrb	r0, [r3, #0]
200053ca:	247f      	movs	r4, #127	@ 0x7f
200053cc:	400c      	ands	r4, r1
200053ce:	09cd      	lsrs	r5, r1, #7
200053d0:	f7ff fcce 	bl	20004d70 <dcd_edpt_stall>
200053d4:	4a07      	ldr	r2, [pc, #28]	@ (200053f4 <usbd_edpt_stall+0x30>)
200053d6:	0064      	lsls	r4, r4, #1
200053d8:	1913      	adds	r3, r2, r4
200053da:	195b      	adds	r3, r3, r5
200053dc:	3330      	adds	r3, #48	@ 0x30
200053de:	791a      	ldrb	r2, [r3, #4]
200053e0:	2102      	movs	r1, #2
200053e2:	430a      	orrs	r2, r1
200053e4:	711a      	strb	r2, [r3, #4]
200053e6:	791a      	ldrb	r2, [r3, #4]
200053e8:	2101      	movs	r1, #1
200053ea:	430a      	orrs	r2, r1
200053ec:	711a      	strb	r2, [r3, #4]
200053ee:	bd70      	pop	{r4, r5, r6, pc}
200053f0:	20007ef4 	.word	0x20007ef4
200053f4:	20008278 	.word	0x20008278

200053f8 <usbd_edpt_clear_stall>:
200053f8:	b570      	push	{r4, r5, r6, lr}
200053fa:	4b0a      	ldr	r3, [pc, #40]	@ (20005424 <usbd_edpt_clear_stall+0x2c>)
200053fc:	7818      	ldrb	r0, [r3, #0]
200053fe:	247f      	movs	r4, #127	@ 0x7f
20005400:	400c      	ands	r4, r1
20005402:	09cd      	lsrs	r5, r1, #7
20005404:	f7ff fcd2 	bl	20004dac <dcd_edpt_clear_stall>
20005408:	4a07      	ldr	r2, [pc, #28]	@ (20005428 <usbd_edpt_clear_stall+0x30>)
2000540a:	0064      	lsls	r4, r4, #1
2000540c:	1913      	adds	r3, r2, r4
2000540e:	195b      	adds	r3, r3, r5
20005410:	3330      	adds	r3, #48	@ 0x30
20005412:	791a      	ldrb	r2, [r3, #4]
20005414:	2102      	movs	r1, #2
20005416:	438a      	bics	r2, r1
20005418:	711a      	strb	r2, [r3, #4]
2000541a:	791a      	ldrb	r2, [r3, #4]
2000541c:	3901      	subs	r1, #1
2000541e:	438a      	bics	r2, r1
20005420:	711a      	strb	r2, [r3, #4]
20005422:	bd70      	pop	{r4, r5, r6, pc}
20005424:	20007ef4 	.word	0x20007ef4
20005428:	20008278 	.word	0x20008278

2000542c <usbd_edpt_stalled>:
2000542c:	227f      	movs	r2, #127	@ 0x7f
2000542e:	400a      	ands	r2, r1
20005430:	09c9      	lsrs	r1, r1, #7
20005432:	4b04      	ldr	r3, [pc, #16]	@ (20005444 <usbd_edpt_stalled+0x18>)
20005434:	0052      	lsls	r2, r2, #1
20005436:	189b      	adds	r3, r3, r2
20005438:	185b      	adds	r3, r3, r1
2000543a:	3330      	adds	r3, #48	@ 0x30
2000543c:	7918      	ldrb	r0, [r3, #4]
2000543e:	0780      	lsls	r0, r0, #30
20005440:	0fc0      	lsrs	r0, r0, #31
20005442:	4770      	bx	lr
20005444:	20008278 	.word	0x20008278

20005448 <process_control_request>:
20005448:	b5f0      	push	{r4, r5, r6, r7, lr}
2000544a:	46c6      	mov	lr, r8
2000544c:	b500      	push	{lr}
2000544e:	b084      	sub	sp, #16
20005450:	9001      	str	r0, [sp, #4]
20005452:	000c      	movs	r4, r1
20005454:	2000      	movs	r0, #0
20005456:	f000 fb27 	bl	20005aa8 <usbd_control_set_complete_callback>
2000545a:	7822      	ldrb	r2, [r4, #0]
2000545c:	2360      	movs	r3, #96	@ 0x60
2000545e:	4013      	ands	r3, r2
20005460:	2b60      	cmp	r3, #96	@ 0x60
20005462:	d100      	bne.n	20005466 <process_control_request+0x1e>
20005464:	e18d      	b.n	20005782 <process_control_request+0x33a>
20005466:	2b40      	cmp	r3, #64	@ 0x40
20005468:	d02f      	beq.n	200054ca <process_control_request+0x82>
2000546a:	7822      	ldrb	r2, [r4, #0]
2000546c:	06d2      	lsls	r2, r2, #27
2000546e:	0ed2      	lsrs	r2, r2, #27
20005470:	2a01      	cmp	r2, #1
20005472:	d100      	bne.n	20005476 <process_control_request+0x2e>
20005474:	e0d8      	b.n	20005628 <process_control_request+0x1e0>
20005476:	2a02      	cmp	r2, #2
20005478:	d100      	bne.n	2000547c <process_control_request+0x34>
2000547a:	e11c      	b.n	200056b6 <process_control_request+0x26e>
2000547c:	2a00      	cmp	r2, #0
2000547e:	d000      	beq.n	20005482 <process_control_request+0x3a>
20005480:	e184      	b.n	2000578c <process_control_request+0x344>
20005482:	2b20      	cmp	r3, #32
20005484:	d02a      	beq.n	200054dc <process_control_request+0x94>
20005486:	2b00      	cmp	r3, #0
20005488:	d000      	beq.n	2000548c <process_control_request+0x44>
2000548a:	e185      	b.n	20005798 <process_control_request+0x350>
2000548c:	7863      	ldrb	r3, [r4, #1]
2000548e:	2b05      	cmp	r3, #5
20005490:	d058      	beq.n	20005544 <process_control_request+0xfc>
20005492:	d84a      	bhi.n	2000552a <process_control_request+0xe2>
20005494:	2b01      	cmp	r3, #1
20005496:	d100      	bne.n	2000549a <process_control_request+0x52>
20005498:	e0b3      	b.n	20005602 <process_control_request+0x1ba>
2000549a:	2b03      	cmp	r3, #3
2000549c:	d100      	bne.n	200054a0 <process_control_request+0x58>
2000549e:	e09d      	b.n	200055dc <process_control_request+0x194>
200054a0:	2b00      	cmp	r3, #0
200054a2:	d140      	bne.n	20005526 <process_control_request+0xde>
200054a4:	4bc3      	ldr	r3, [pc, #780]	@ (200057b4 <process_control_request+0x36c>)
200054a6:	781a      	ldrb	r2, [r3, #0]
200054a8:	0951      	lsrs	r1, r2, #5
200054aa:	0892      	lsrs	r2, r2, #2
200054ac:	2302      	movs	r3, #2
200054ae:	4013      	ands	r3, r2
200054b0:	2201      	movs	r2, #1
200054b2:	400a      	ands	r2, r1
200054b4:	4313      	orrs	r3, r2
200054b6:	aa02      	add	r2, sp, #8
200054b8:	3206      	adds	r2, #6
200054ba:	8013      	strh	r3, [r2, #0]
200054bc:	2302      	movs	r3, #2
200054be:	0021      	movs	r1, r4
200054c0:	9801      	ldr	r0, [sp, #4]
200054c2:	f000 fab5 	bl	20005a30 <tud_control_xfer>
200054c6:	2001      	movs	r0, #1
200054c8:	e15c      	b.n	20005784 <process_control_request+0x33c>
200054ca:	48bb      	ldr	r0, [pc, #748]	@ (200057b8 <process_control_request+0x370>)
200054cc:	f000 faec 	bl	20005aa8 <usbd_control_set_complete_callback>
200054d0:	0022      	movs	r2, r4
200054d2:	2101      	movs	r1, #1
200054d4:	9801      	ldr	r0, [sp, #4]
200054d6:	f7fe ffd1 	bl	2000447c <tud_vendor_control_xfer_cb>
200054da:	e153      	b.n	20005784 <process_control_request+0x33c>
200054dc:	7922      	ldrb	r2, [r4, #4]
200054de:	7963      	ldrb	r3, [r4, #5]
200054e0:	021b      	lsls	r3, r3, #8
200054e2:	4313      	orrs	r3, r2
200054e4:	2a0f      	cmp	r2, #15
200054e6:	d900      	bls.n	200054ea <process_control_request+0xa2>
200054e8:	e152      	b.n	20005790 <process_control_request+0x348>
200054ea:	4ab2      	ldr	r2, [pc, #712]	@ (200057b4 <process_control_request+0x36c>)
200054ec:	21ff      	movs	r1, #255	@ 0xff
200054ee:	400b      	ands	r3, r1
200054f0:	18d2      	adds	r2, r2, r3
200054f2:	7913      	ldrb	r3, [r2, #4]
200054f4:	4ab1      	ldr	r2, [pc, #708]	@ (200057bc <process_control_request+0x374>)
200054f6:	7812      	ldrb	r2, [r2, #0]
200054f8:	4293      	cmp	r3, r2
200054fa:	d207      	bcs.n	2000550c <process_control_request+0xc4>
200054fc:	4ab0      	ldr	r2, [pc, #704]	@ (200057c0 <process_control_request+0x378>)
200054fe:	6811      	ldr	r1, [r2, #0]
20005500:	015b      	lsls	r3, r3, #5
20005502:	18c9      	adds	r1, r1, r3
20005504:	2900      	cmp	r1, #0
20005506:	d109      	bne.n	2000551c <process_control_request+0xd4>
20005508:	2000      	movs	r0, #0
2000550a:	e13b      	b.n	20005784 <process_control_request+0x33c>
2000550c:	1c51      	adds	r1, r2, #1
2000550e:	4299      	cmp	r1, r3
20005510:	da00      	bge.n	20005514 <process_control_request+0xcc>
20005512:	e13f      	b.n	20005794 <process_control_request+0x34c>
20005514:	1a9b      	subs	r3, r3, r2
20005516:	015b      	lsls	r3, r3, #5
20005518:	49aa      	ldr	r1, [pc, #680]	@ (200057c4 <process_control_request+0x37c>)
2000551a:	1859      	adds	r1, r3, r1
2000551c:	0022      	movs	r2, r4
2000551e:	9801      	ldr	r0, [sp, #4]
20005520:	f7ff fcec 	bl	20004efc <invoke_class_control>
20005524:	e12e      	b.n	20005784 <process_control_request+0x33c>
20005526:	2000      	movs	r0, #0
20005528:	e12c      	b.n	20005784 <process_control_request+0x33c>
2000552a:	2b08      	cmp	r3, #8
2000552c:	d018      	beq.n	20005560 <process_control_request+0x118>
2000552e:	2b09      	cmp	r3, #9
20005530:	d022      	beq.n	20005578 <process_control_request+0x130>
20005532:	2b06      	cmp	r3, #6
20005534:	d104      	bne.n	20005540 <process_control_request+0xf8>
20005536:	0021      	movs	r1, r4
20005538:	9801      	ldr	r0, [sp, #4]
2000553a:	f7ff fda5 	bl	20005088 <process_get_descriptor>
2000553e:	e121      	b.n	20005784 <process_control_request+0x33c>
20005540:	2000      	movs	r0, #0
20005542:	e11f      	b.n	20005784 <process_control_request+0x33c>
20005544:	0020      	movs	r0, r4
20005546:	f000 fab5 	bl	20005ab4 <usbd_control_set_request>
2000554a:	78a1      	ldrb	r1, [r4, #2]
2000554c:	9801      	ldr	r0, [sp, #4]
2000554e:	f7ff fb5b 	bl	20004c08 <dcd_set_address>
20005552:	4a98      	ldr	r2, [pc, #608]	@ (200057b4 <process_control_request+0x36c>)
20005554:	7813      	ldrb	r3, [r2, #0]
20005556:	2102      	movs	r1, #2
20005558:	430b      	orrs	r3, r1
2000555a:	7013      	strb	r3, [r2, #0]
2000555c:	2001      	movs	r0, #1
2000555e:	e111      	b.n	20005784 <process_control_request+0x33c>
20005560:	4b94      	ldr	r3, [pc, #592]	@ (200057b4 <process_control_request+0x36c>)
20005562:	785b      	ldrb	r3, [r3, #1]
20005564:	aa02      	add	r2, sp, #8
20005566:	3206      	adds	r2, #6
20005568:	7013      	strb	r3, [r2, #0]
2000556a:	2301      	movs	r3, #1
2000556c:	0021      	movs	r1, r4
2000556e:	9801      	ldr	r0, [sp, #4]
20005570:	f000 fa5e 	bl	20005a30 <tud_control_xfer>
20005574:	2001      	movs	r0, #1
20005576:	e105      	b.n	20005784 <process_control_request+0x33c>
20005578:	78a2      	ldrb	r2, [r4, #2]
2000557a:	4690      	mov	r8, r2
2000557c:	4b8d      	ldr	r3, [pc, #564]	@ (200057b4 <process_control_request+0x36c>)
2000557e:	785b      	ldrb	r3, [r3, #1]
20005580:	4293      	cmp	r3, r2
20005582:	d025      	beq.n	200055d0 <process_control_request+0x188>
20005584:	4b8b      	ldr	r3, [pc, #556]	@ (200057b4 <process_control_request+0x36c>)
20005586:	785b      	ldrb	r3, [r3, #1]
20005588:	2b00      	cmp	r3, #0
2000558a:	d10d      	bne.n	200055a8 <process_control_request+0x160>
2000558c:	4b89      	ldr	r3, [pc, #548]	@ (200057b4 <process_control_request+0x36c>)
2000558e:	4641      	mov	r1, r8
20005590:	7059      	strb	r1, [r3, #1]
20005592:	2900      	cmp	r1, #0
20005594:	d01a      	beq.n	200055cc <process_control_request+0x184>
20005596:	9801      	ldr	r0, [sp, #4]
20005598:	f7ff fcbe 	bl	20004f18 <process_set_config>
2000559c:	2800      	cmp	r0, #0
2000559e:	d112      	bne.n	200055c6 <process_control_request+0x17e>
200055a0:	4b84      	ldr	r3, [pc, #528]	@ (200057b4 <process_control_request+0x36c>)
200055a2:	2200      	movs	r2, #0
200055a4:	705a      	strb	r2, [r3, #1]
200055a6:	e0ed      	b.n	20005784 <process_control_request+0x33c>
200055a8:	2100      	movs	r1, #0
200055aa:	9d01      	ldr	r5, [sp, #4]
200055ac:	0028      	movs	r0, r5
200055ae:	f7ff fb89 	bl	20004cc4 <dcd_sof_enable>
200055b2:	0028      	movs	r0, r5
200055b4:	f7ff fbbd 	bl	20004d32 <dcd_edpt_close_all>
200055b8:	4e7e      	ldr	r6, [pc, #504]	@ (200057b4 <process_control_request+0x36c>)
200055ba:	78b7      	ldrb	r7, [r6, #2]
200055bc:	0028      	movs	r0, r5
200055be:	f7ff fc61 	bl	20004e84 <configuration_reset>
200055c2:	70b7      	strb	r7, [r6, #2]
200055c4:	e7e2      	b.n	2000558c <process_control_request+0x144>
200055c6:	f7ff fdc6 	bl	20005156 <tud_mount_cb>
200055ca:	e001      	b.n	200055d0 <process_control_request+0x188>
200055cc:	f7ff fdc4 	bl	20005158 <tud_umount_cb>
200055d0:	0021      	movs	r1, r4
200055d2:	9801      	ldr	r0, [sp, #4]
200055d4:	f000 fa18 	bl	20005a08 <tud_control_status>
200055d8:	2001      	movs	r0, #1
200055da:	e0d3      	b.n	20005784 <process_control_request+0x33c>
200055dc:	78a2      	ldrb	r2, [r4, #2]
200055de:	78e3      	ldrb	r3, [r4, #3]
200055e0:	021b      	lsls	r3, r3, #8
200055e2:	4313      	orrs	r3, r2
200055e4:	2b01      	cmp	r3, #1
200055e6:	d001      	beq.n	200055ec <process_control_request+0x1a4>
200055e8:	2000      	movs	r0, #0
200055ea:	e0cb      	b.n	20005784 <process_control_request+0x33c>
200055ec:	4a71      	ldr	r2, [pc, #452]	@ (200057b4 <process_control_request+0x36c>)
200055ee:	7813      	ldrb	r3, [r2, #0]
200055f0:	2108      	movs	r1, #8
200055f2:	430b      	orrs	r3, r1
200055f4:	7013      	strb	r3, [r2, #0]
200055f6:	0021      	movs	r1, r4
200055f8:	9801      	ldr	r0, [sp, #4]
200055fa:	f000 fa05 	bl	20005a08 <tud_control_status>
200055fe:	2001      	movs	r0, #1
20005600:	e0c0      	b.n	20005784 <process_control_request+0x33c>
20005602:	78a2      	ldrb	r2, [r4, #2]
20005604:	78e3      	ldrb	r3, [r4, #3]
20005606:	021b      	lsls	r3, r3, #8
20005608:	4313      	orrs	r3, r2
2000560a:	2b01      	cmp	r3, #1
2000560c:	d001      	beq.n	20005612 <process_control_request+0x1ca>
2000560e:	2000      	movs	r0, #0
20005610:	e0b8      	b.n	20005784 <process_control_request+0x33c>
20005612:	4a68      	ldr	r2, [pc, #416]	@ (200057b4 <process_control_request+0x36c>)
20005614:	7813      	ldrb	r3, [r2, #0]
20005616:	2108      	movs	r1, #8
20005618:	438b      	bics	r3, r1
2000561a:	7013      	strb	r3, [r2, #0]
2000561c:	0021      	movs	r1, r4
2000561e:	9801      	ldr	r0, [sp, #4]
20005620:	f000 f9f2 	bl	20005a08 <tud_control_status>
20005624:	2001      	movs	r0, #1
20005626:	e0ad      	b.n	20005784 <process_control_request+0x33c>
20005628:	7922      	ldrb	r2, [r4, #4]
2000562a:	7963      	ldrb	r3, [r4, #5]
2000562c:	021b      	lsls	r3, r3, #8
2000562e:	4313      	orrs	r3, r2
20005630:	2a0f      	cmp	r2, #15
20005632:	d900      	bls.n	20005636 <process_control_request+0x1ee>
20005634:	e0b2      	b.n	2000579c <process_control_request+0x354>
20005636:	4a5f      	ldr	r2, [pc, #380]	@ (200057b4 <process_control_request+0x36c>)
20005638:	21ff      	movs	r1, #255	@ 0xff
2000563a:	400b      	ands	r3, r1
2000563c:	18d2      	adds	r2, r2, r3
2000563e:	7913      	ldrb	r3, [r2, #4]
20005640:	4a5e      	ldr	r2, [pc, #376]	@ (200057bc <process_control_request+0x374>)
20005642:	7812      	ldrb	r2, [r2, #0]
20005644:	4293      	cmp	r3, r2
20005646:	d222      	bcs.n	2000568e <process_control_request+0x246>
20005648:	4a5d      	ldr	r2, [pc, #372]	@ (200057c0 <process_control_request+0x378>)
2000564a:	6811      	ldr	r1, [r2, #0]
2000564c:	015b      	lsls	r3, r3, #5
2000564e:	18c9      	adds	r1, r1, r3
20005650:	2900      	cmp	r1, #0
20005652:	d100      	bne.n	20005656 <process_control_request+0x20e>
20005654:	e0a4      	b.n	200057a0 <process_control_request+0x358>
20005656:	0022      	movs	r2, r4
20005658:	9801      	ldr	r0, [sp, #4]
2000565a:	f7ff fc4f 	bl	20004efc <invoke_class_control>
2000565e:	2800      	cmp	r0, #0
20005660:	d000      	beq.n	20005664 <process_control_request+0x21c>
20005662:	e08f      	b.n	20005784 <process_control_request+0x33c>
20005664:	7823      	ldrb	r3, [r4, #0]
20005666:	2260      	movs	r2, #96	@ 0x60
20005668:	421a      	tst	r2, r3
2000566a:	d000      	beq.n	2000566e <process_control_request+0x226>
2000566c:	e08a      	b.n	20005784 <process_control_request+0x33c>
2000566e:	7863      	ldrb	r3, [r4, #1]
20005670:	3b0a      	subs	r3, #10
20005672:	2b01      	cmp	r3, #1
20005674:	d900      	bls.n	20005678 <process_control_request+0x230>
20005676:	e085      	b.n	20005784 <process_control_request+0x33c>
20005678:	f000 fa16 	bl	20005aa8 <usbd_control_set_complete_callback>
2000567c:	7863      	ldrb	r3, [r4, #1]
2000567e:	2b0a      	cmp	r3, #10
20005680:	d00e      	beq.n	200056a0 <process_control_request+0x258>
20005682:	0021      	movs	r1, r4
20005684:	9801      	ldr	r0, [sp, #4]
20005686:	f000 f9bf 	bl	20005a08 <tud_control_status>
2000568a:	2001      	movs	r0, #1
2000568c:	e07a      	b.n	20005784 <process_control_request+0x33c>
2000568e:	1c51      	adds	r1, r2, #1
20005690:	4299      	cmp	r1, r3
20005692:	da00      	bge.n	20005696 <process_control_request+0x24e>
20005694:	e086      	b.n	200057a4 <process_control_request+0x35c>
20005696:	1a9b      	subs	r3, r3, r2
20005698:	015b      	lsls	r3, r3, #5
2000569a:	494a      	ldr	r1, [pc, #296]	@ (200057c4 <process_control_request+0x37c>)
2000569c:	1859      	adds	r1, r3, r1
2000569e:	e7da      	b.n	20005656 <process_control_request+0x20e>
200056a0:	ab02      	add	r3, sp, #8
200056a2:	1d9a      	adds	r2, r3, #6
200056a4:	2300      	movs	r3, #0
200056a6:	7013      	strb	r3, [r2, #0]
200056a8:	3301      	adds	r3, #1
200056aa:	0021      	movs	r1, r4
200056ac:	9801      	ldr	r0, [sp, #4]
200056ae:	f000 f9bf 	bl	20005a30 <tud_control_xfer>
200056b2:	2001      	movs	r0, #1
200056b4:	e066      	b.n	20005784 <process_control_request+0x33c>
200056b6:	7921      	ldrb	r1, [r4, #4]
200056b8:	207f      	movs	r0, #127	@ 0x7f
200056ba:	4008      	ands	r0, r1
200056bc:	09ca      	lsrs	r2, r1, #7
200056be:	4694      	mov	ip, r2
200056c0:	2270      	movs	r2, #112	@ 0x70
200056c2:	420a      	tst	r2, r1
200056c4:	d000      	beq.n	200056c8 <process_control_request+0x280>
200056c6:	e06f      	b.n	200057a8 <process_control_request+0x360>
200056c8:	4a3a      	ldr	r2, [pc, #232]	@ (200057b4 <process_control_request+0x36c>)
200056ca:	0040      	lsls	r0, r0, #1
200056cc:	1812      	adds	r2, r2, r0
200056ce:	4462      	add	r2, ip
200056d0:	7d12      	ldrb	r2, [r2, #20]
200056d2:	483a      	ldr	r0, [pc, #232]	@ (200057bc <process_control_request+0x374>)
200056d4:	7800      	ldrb	r0, [r0, #0]
200056d6:	4282      	cmp	r2, r0
200056d8:	d20d      	bcs.n	200056f6 <process_control_request+0x2ae>
200056da:	4839      	ldr	r0, [pc, #228]	@ (200057c0 <process_control_request+0x378>)
200056dc:	6800      	ldr	r0, [r0, #0]
200056de:	0152      	lsls	r2, r2, #5
200056e0:	1882      	adds	r2, r0, r2
200056e2:	0015      	movs	r5, r2
200056e4:	2b00      	cmp	r3, #0
200056e6:	d012      	beq.n	2000570e <process_control_request+0x2c6>
200056e8:	1e29      	subs	r1, r5, #0
200056ea:	d05f      	beq.n	200057ac <process_control_request+0x364>
200056ec:	0022      	movs	r2, r4
200056ee:	9801      	ldr	r0, [sp, #4]
200056f0:	f7ff fc04 	bl	20004efc <invoke_class_control>
200056f4:	e046      	b.n	20005784 <process_control_request+0x33c>
200056f6:	1c45      	adds	r5, r0, #1
200056f8:	4295      	cmp	r5, r2
200056fa:	db05      	blt.n	20005708 <process_control_request+0x2c0>
200056fc:	1a12      	subs	r2, r2, r0
200056fe:	0152      	lsls	r2, r2, #5
20005700:	4830      	ldr	r0, [pc, #192]	@ (200057c4 <process_control_request+0x37c>)
20005702:	1812      	adds	r2, r2, r0
20005704:	0015      	movs	r5, r2
20005706:	e7ed      	b.n	200056e4 <process_control_request+0x29c>
20005708:	2200      	movs	r2, #0
2000570a:	0015      	movs	r5, r2
2000570c:	e7ea      	b.n	200056e4 <process_control_request+0x29c>
2000570e:	7863      	ldrb	r3, [r4, #1]
20005710:	2b01      	cmp	r3, #1
20005712:	d011      	beq.n	20005738 <process_control_request+0x2f0>
20005714:	2b03      	cmp	r3, #3
20005716:	d00f      	beq.n	20005738 <process_control_request+0x2f0>
20005718:	2b00      	cmp	r3, #0
2000571a:	d149      	bne.n	200057b0 <process_control_request+0x368>
2000571c:	9d01      	ldr	r5, [sp, #4]
2000571e:	0028      	movs	r0, r5
20005720:	f7ff fe84 	bl	2000542c <usbd_edpt_stalled>
20005724:	ab02      	add	r3, sp, #8
20005726:	1d9a      	adds	r2, r3, #6
20005728:	8010      	strh	r0, [r2, #0]
2000572a:	2302      	movs	r3, #2
2000572c:	0021      	movs	r1, r4
2000572e:	0028      	movs	r0, r5
20005730:	f000 f97e 	bl	20005a30 <tud_control_xfer>
20005734:	2001      	movs	r0, #1
20005736:	e025      	b.n	20005784 <process_control_request+0x33c>
20005738:	78a0      	ldrb	r0, [r4, #2]
2000573a:	78e2      	ldrb	r2, [r4, #3]
2000573c:	0212      	lsls	r2, r2, #8
2000573e:	4302      	orrs	r2, r0
20005740:	d104      	bne.n	2000574c <process_control_request+0x304>
20005742:	2b01      	cmp	r3, #1
20005744:	d019      	beq.n	2000577a <process_control_request+0x332>
20005746:	9801      	ldr	r0, [sp, #4]
20005748:	f7ff fe3c 	bl	200053c4 <usbd_edpt_stall>
2000574c:	2d00      	cmp	r5, #0
2000574e:	d03b      	beq.n	200057c8 <process_control_request+0x380>
20005750:	0022      	movs	r2, r4
20005752:	0029      	movs	r1, r5
20005754:	9801      	ldr	r0, [sp, #4]
20005756:	f7ff fbd1 	bl	20004efc <invoke_class_control>
2000575a:	2000      	movs	r0, #0
2000575c:	f000 f9a4 	bl	20005aa8 <usbd_control_set_complete_callback>
20005760:	4b14      	ldr	r3, [pc, #80]	@ (200057b4 <process_control_request+0x36c>)
20005762:	2235      	movs	r2, #53	@ 0x35
20005764:	5c9b      	ldrb	r3, [r3, r2]
20005766:	07db      	lsls	r3, r3, #31
20005768:	0fd8      	lsrs	r0, r3, #31
2000576a:	2b00      	cmp	r3, #0
2000576c:	d10a      	bne.n	20005784 <process_control_request+0x33c>
2000576e:	0021      	movs	r1, r4
20005770:	9801      	ldr	r0, [sp, #4]
20005772:	f000 f949 	bl	20005a08 <tud_control_status>
20005776:	2001      	movs	r0, #1
20005778:	e004      	b.n	20005784 <process_control_request+0x33c>
2000577a:	9801      	ldr	r0, [sp, #4]
2000577c:	f7ff fe3c 	bl	200053f8 <usbd_edpt_clear_stall>
20005780:	e7e4      	b.n	2000574c <process_control_request+0x304>
20005782:	2000      	movs	r0, #0
20005784:	b004      	add	sp, #16
20005786:	bc80      	pop	{r7}
20005788:	46b8      	mov	r8, r7
2000578a:	bdf0      	pop	{r4, r5, r6, r7, pc}
2000578c:	2000      	movs	r0, #0
2000578e:	e7f9      	b.n	20005784 <process_control_request+0x33c>
20005790:	2000      	movs	r0, #0
20005792:	e7f7      	b.n	20005784 <process_control_request+0x33c>
20005794:	2000      	movs	r0, #0
20005796:	e7f5      	b.n	20005784 <process_control_request+0x33c>
20005798:	2000      	movs	r0, #0
2000579a:	e7f3      	b.n	20005784 <process_control_request+0x33c>
2000579c:	2000      	movs	r0, #0
2000579e:	e7f1      	b.n	20005784 <process_control_request+0x33c>
200057a0:	2000      	movs	r0, #0
200057a2:	e7ef      	b.n	20005784 <process_control_request+0x33c>
200057a4:	2000      	movs	r0, #0
200057a6:	e7ed      	b.n	20005784 <process_control_request+0x33c>
200057a8:	2000      	movs	r0, #0
200057aa:	e7eb      	b.n	20005784 <process_control_request+0x33c>
200057ac:	2000      	movs	r0, #0
200057ae:	e7e9      	b.n	20005784 <process_control_request+0x33c>
200057b0:	2000      	movs	r0, #0
200057b2:	e7e7      	b.n	20005784 <process_control_request+0x33c>
200057b4:	20008278 	.word	0x20008278
200057b8:	2000447d 	.word	0x2000447d
200057bc:	20008d15 	.word	0x20008d15
200057c0:	200080c8 	.word	0x200080c8
200057c4:	20007dcc 	.word	0x20007dcc
200057c8:	2001      	movs	r0, #1
200057ca:	e7db      	b.n	20005784 <process_control_request+0x33c>

200057cc <tud_task_ext>:
200057cc:	b530      	push	{r4, r5, lr}
200057ce:	b085      	sub	sp, #20
200057d0:	f7ff fcd6 	bl	20005180 <tud_inited>
200057d4:	2800      	cmp	r0, #0
200057d6:	d14e      	bne.n	20005876 <tud_task_ext+0xaa>
200057d8:	b005      	add	sp, #20
200057da:	bd30      	pop	{r4, r5, pc}
200057dc:	2b04      	cmp	r3, #4
200057de:	d14a      	bne.n	20005876 <tud_task_ext+0xaa>
200057e0:	4b64      	ldr	r3, [pc, #400]	@ (20005974 <tud_task_ext+0x1a8>)
200057e2:	781b      	ldrb	r3, [r3, #0]
200057e4:	07db      	lsls	r3, r3, #31
200057e6:	d546      	bpl.n	20005876 <tud_task_ext+0xaa>
200057e8:	4b62      	ldr	r3, [pc, #392]	@ (20005974 <tud_task_ext+0x1a8>)
200057ea:	7818      	ldrb	r0, [r3, #0]
200057ec:	0700      	lsls	r0, r0, #28
200057ee:	0fc0      	lsrs	r0, r0, #31
200057f0:	f7ff fcb3 	bl	2000515a <tud_suspend_cb>
200057f4:	e03f      	b.n	20005876 <tud_task_ext+0xaa>
200057f6:	2b07      	cmp	r3, #7
200057f8:	d06b      	beq.n	200058d2 <tud_task_ext+0x106>
200057fa:	2b08      	cmp	r3, #8
200057fc:	d100      	bne.n	20005800 <tud_task_ext+0x34>
200057fe:	e0aa      	b.n	20005956 <tud_task_ext+0x18a>
20005800:	2b06      	cmp	r3, #6
20005802:	d138      	bne.n	20005876 <tud_task_ext+0xaa>
20005804:	4b5c      	ldr	r3, [pc, #368]	@ (20005978 <tud_task_ext+0x1ac>)
20005806:	781b      	ldrb	r3, [r3, #0]
20005808:	2b00      	cmp	r3, #0
2000580a:	d0e5      	beq.n	200057d8 <tud_task_ext+0xc>
2000580c:	4a5a      	ldr	r2, [pc, #360]	@ (20005978 <tud_task_ext+0x1ac>)
2000580e:	7813      	ldrb	r3, [r2, #0]
20005810:	3b01      	subs	r3, #1
20005812:	b2db      	uxtb	r3, r3
20005814:	7013      	strb	r3, [r2, #0]
20005816:	7813      	ldrb	r3, [r2, #0]
20005818:	2b00      	cmp	r3, #0
2000581a:	d12c      	bne.n	20005876 <tud_task_ext+0xaa>
2000581c:	4b55      	ldr	r3, [pc, #340]	@ (20005974 <tud_task_ext+0x1a8>)
2000581e:	781a      	ldrb	r2, [r3, #0]
20005820:	2401      	movs	r4, #1
20005822:	2101      	movs	r1, #1
20005824:	430a      	orrs	r2, r1
20005826:	701a      	strb	r2, [r3, #0]
20005828:	2234      	movs	r2, #52	@ 0x34
2000582a:	5c99      	ldrb	r1, [r3, r2]
2000582c:	43a1      	bics	r1, r4
2000582e:	5499      	strb	r1, [r3, r2]
20005830:	5c99      	ldrb	r1, [r3, r2]
20005832:	2004      	movs	r0, #4
20005834:	4381      	bics	r1, r0
20005836:	5499      	strb	r1, [r3, r2]
20005838:	3201      	adds	r2, #1
2000583a:	5c99      	ldrb	r1, [r3, r2]
2000583c:	43a1      	bics	r1, r4
2000583e:	5499      	strb	r1, [r3, r2]
20005840:	5c99      	ldrb	r1, [r3, r2]
20005842:	4381      	bics	r1, r0
20005844:	5499      	strb	r1, [r3, r2]
20005846:	ab01      	add	r3, sp, #4
20005848:	7818      	ldrb	r0, [r3, #0]
2000584a:	a902      	add	r1, sp, #8
2000584c:	f7ff fdfc 	bl	20005448 <process_control_request>
20005850:	2800      	cmp	r0, #0
20005852:	d110      	bne.n	20005876 <tud_task_ext+0xaa>
20005854:	ac01      	add	r4, sp, #4
20005856:	7820      	ldrb	r0, [r4, #0]
20005858:	2100      	movs	r1, #0
2000585a:	f7ff fa89 	bl	20004d70 <dcd_edpt_stall>
2000585e:	7820      	ldrb	r0, [r4, #0]
20005860:	2180      	movs	r1, #128	@ 0x80
20005862:	f7ff fa85 	bl	20004d70 <dcd_edpt_stall>
20005866:	e006      	b.n	20005876 <tud_task_ext+0xaa>
20005868:	ac01      	add	r4, sp, #4
2000586a:	7820      	ldrb	r0, [r4, #0]
2000586c:	f7ff fb40 	bl	20004ef0 <usbd_reset>
20005870:	7922      	ldrb	r2, [r4, #4]
20005872:	4b40      	ldr	r3, [pc, #256]	@ (20005974 <tud_task_ext+0x1a8>)
20005874:	709a      	strb	r2, [r3, #2]
20005876:	4b41      	ldr	r3, [pc, #260]	@ (2000597c <tud_task_ext+0x1b0>)
20005878:	681c      	ldr	r4, [r3, #0]
2000587a:	6962      	ldr	r2, [r4, #20]
2000587c:	f3ef 8110 	mrs	r1, PRIMASK
20005880:	b672      	cpsid	i
20005882:	6813      	ldr	r3, [r2, #0]
20005884:	2b00      	cmp	r3, #0
20005886:	d0fc      	beq.n	20005882 <tud_task_ext+0xb6>
20005888:	f3bf 8f5f 	dmb	sy
2000588c:	61a1      	str	r1, [r4, #24]
2000588e:	a901      	add	r1, sp, #4
20005890:	0020      	movs	r0, r4
20005892:	f001 fa63 	bl	20006d5c <tu_fifo_read>
20005896:	6962      	ldr	r2, [r4, #20]
20005898:	69a3      	ldr	r3, [r4, #24]
2000589a:	f3bf 8f5f 	dmb	sy
2000589e:	2100      	movs	r1, #0
200058a0:	6011      	str	r1, [r2, #0]
200058a2:	f383 8810 	msr	PRIMASK, r3
200058a6:	2800      	cmp	r0, #0
200058a8:	d100      	bne.n	200058ac <tud_task_ext+0xe0>
200058aa:	e795      	b.n	200057d8 <tud_task_ext+0xc>
200058ac:	ab01      	add	r3, sp, #4
200058ae:	785b      	ldrb	r3, [r3, #1]
200058b0:	2b05      	cmp	r3, #5
200058b2:	d049      	beq.n	20005948 <tud_task_ext+0x17c>
200058b4:	d89f      	bhi.n	200057f6 <tud_task_ext+0x2a>
200058b6:	2b03      	cmp	r3, #3
200058b8:	d053      	beq.n	20005962 <tud_task_ext+0x196>
200058ba:	d88f      	bhi.n	200057dc <tud_task_ext+0x10>
200058bc:	2b01      	cmp	r3, #1
200058be:	d0d3      	beq.n	20005868 <tud_task_ext+0x9c>
200058c0:	2b02      	cmp	r3, #2
200058c2:	d1d8      	bne.n	20005876 <tud_task_ext+0xaa>
200058c4:	ab01      	add	r3, sp, #4
200058c6:	7818      	ldrb	r0, [r3, #0]
200058c8:	f7ff fb12 	bl	20004ef0 <usbd_reset>
200058cc:	f7ff fc44 	bl	20005158 <tud_umount_cb>
200058d0:	e7d1      	b.n	20005876 <tud_task_ext+0xaa>
200058d2:	ab01      	add	r3, sp, #4
200058d4:	7919      	ldrb	r1, [r3, #4]
200058d6:	227f      	movs	r2, #127	@ 0x7f
200058d8:	400a      	ands	r2, r1
200058da:	09cc      	lsrs	r4, r1, #7
200058dc:	4b25      	ldr	r3, [pc, #148]	@ (20005974 <tud_task_ext+0x1a8>)
200058de:	0050      	lsls	r0, r2, #1
200058e0:	181b      	adds	r3, r3, r0
200058e2:	191b      	adds	r3, r3, r4
200058e4:	3330      	adds	r3, #48	@ 0x30
200058e6:	7918      	ldrb	r0, [r3, #4]
200058e8:	2501      	movs	r5, #1
200058ea:	43a8      	bics	r0, r5
200058ec:	7118      	strb	r0, [r3, #4]
200058ee:	7918      	ldrb	r0, [r3, #4]
200058f0:	3503      	adds	r5, #3
200058f2:	43a8      	bics	r0, r5
200058f4:	7118      	strb	r0, [r3, #4]
200058f6:	2a00      	cmp	r2, #0
200058f8:	d016      	beq.n	20005928 <tud_task_ext+0x15c>
200058fa:	4b1e      	ldr	r3, [pc, #120]	@ (20005974 <tud_task_ext+0x1a8>)
200058fc:	0052      	lsls	r2, r2, #1
200058fe:	189b      	adds	r3, r3, r2
20005900:	191b      	adds	r3, r3, r4
20005902:	7d1b      	ldrb	r3, [r3, #20]
20005904:	4a1e      	ldr	r2, [pc, #120]	@ (20005980 <tud_task_ext+0x1b4>)
20005906:	7812      	ldrb	r2, [r2, #0]
20005908:	4293      	cmp	r3, r2
2000590a:	d214      	bcs.n	20005936 <tud_task_ext+0x16a>
2000590c:	4a1d      	ldr	r2, [pc, #116]	@ (20005984 <tud_task_ext+0x1b8>)
2000590e:	6812      	ldr	r2, [r2, #0]
20005910:	015b      	lsls	r3, r3, #5
20005912:	18d3      	adds	r3, r2, r3
20005914:	2b00      	cmp	r3, #0
20005916:	d100      	bne.n	2000591a <tud_task_ext+0x14e>
20005918:	e75e      	b.n	200057d8 <tud_task_ext+0xc>
2000591a:	699c      	ldr	r4, [r3, #24]
2000591c:	a801      	add	r0, sp, #4
2000591e:	7942      	ldrb	r2, [r0, #5]
20005920:	9b03      	ldr	r3, [sp, #12]
20005922:	7800      	ldrb	r0, [r0, #0]
20005924:	47a0      	blx	r4
20005926:	e7a6      	b.n	20005876 <tud_task_ext+0xaa>
20005928:	a801      	add	r0, sp, #4
2000592a:	7942      	ldrb	r2, [r0, #5]
2000592c:	9b03      	ldr	r3, [sp, #12]
2000592e:	7800      	ldrb	r0, [r0, #0]
20005930:	f000 f8ce 	bl	20005ad0 <usbd_control_xfer_cb>
20005934:	e79f      	b.n	20005876 <tud_task_ext+0xaa>
20005936:	1c50      	adds	r0, r2, #1
20005938:	4298      	cmp	r0, r3
2000593a:	da00      	bge.n	2000593e <tud_task_ext+0x172>
2000593c:	e74c      	b.n	200057d8 <tud_task_ext+0xc>
2000593e:	1a9b      	subs	r3, r3, r2
20005940:	015b      	lsls	r3, r3, #5
20005942:	4a11      	ldr	r2, [pc, #68]	@ (20005988 <tud_task_ext+0x1bc>)
20005944:	189b      	adds	r3, r3, r2
20005946:	e7e8      	b.n	2000591a <tud_task_ext+0x14e>
20005948:	4b0a      	ldr	r3, [pc, #40]	@ (20005974 <tud_task_ext+0x1a8>)
2000594a:	781b      	ldrb	r3, [r3, #0]
2000594c:	07db      	lsls	r3, r3, #31
2000594e:	d592      	bpl.n	20005876 <tud_task_ext+0xaa>
20005950:	f7ff fc04 	bl	2000515c <tud_resume_cb>
20005954:	e78f      	b.n	20005876 <tud_task_ext+0xaa>
20005956:	9b02      	ldr	r3, [sp, #8]
20005958:	2b00      	cmp	r3, #0
2000595a:	d08c      	beq.n	20005876 <tud_task_ext+0xaa>
2000595c:	9803      	ldr	r0, [sp, #12]
2000595e:	4798      	blx	r3
20005960:	e789      	b.n	20005876 <tud_task_ext+0xaa>
20005962:	4b04      	ldr	r3, [pc, #16]	@ (20005974 <tud_task_ext+0x1a8>)
20005964:	78db      	ldrb	r3, [r3, #3]
20005966:	07db      	lsls	r3, r3, #31
20005968:	d400      	bmi.n	2000596c <tud_task_ext+0x1a0>
2000596a:	e784      	b.n	20005876 <tud_task_ext+0xaa>
2000596c:	9802      	ldr	r0, [sp, #8]
2000596e:	f7ff fb86 	bl	2000507e <tud_sof_cb>
20005972:	e780      	b.n	20005876 <tud_task_ext+0xaa>
20005974:	20008278 	.word	0x20008278
20005978:	20008d17 	.word	0x20008d17
2000597c:	200082d0 	.word	0x200082d0
20005980:	20008d15 	.word	0x20008d15
20005984:	200080c8 	.word	0x200080c8
20005988:	20007dcc 	.word	0x20007dcc

2000598c <status_stage_xact>:
2000598c:	b510      	push	{r4, lr}
2000598e:	2300      	movs	r3, #0
20005990:	56cb      	ldrsb	r3, [r1, r3]
20005992:	2b00      	cmp	r3, #0
20005994:	db05      	blt.n	200059a2 <status_stage_xact+0x16>
20005996:	2180      	movs	r1, #128	@ 0x80
20005998:	2300      	movs	r3, #0
2000599a:	2200      	movs	r2, #0
2000599c:	f7ff fcd4 	bl	20005348 <usbd_edpt_xfer>
200059a0:	bd10      	pop	{r4, pc}
200059a2:	2100      	movs	r1, #0
200059a4:	e7f8      	b.n	20005998 <status_stage_xact+0xc>
	...

200059a8 <data_stage_xact>:
200059a8:	b5f8      	push	{r3, r4, r5, r6, r7, lr}
200059aa:	0007      	movs	r7, r0
200059ac:	4b14      	ldr	r3, [pc, #80]	@ (20005a00 <data_stage_xact+0x58>)
200059ae:	899e      	ldrh	r6, [r3, #12]
200059b0:	89dd      	ldrh	r5, [r3, #14]
200059b2:	1b73      	subs	r3, r6, r5
200059b4:	b29b      	uxth	r3, r3
200059b6:	1c1c      	adds	r4, r3, #0
200059b8:	2b40      	cmp	r3, #64	@ 0x40
200059ba:	d900      	bls.n	200059be <data_stage_xact+0x16>
200059bc:	2440      	movs	r4, #64	@ 0x40
200059be:	b2a4      	uxth	r4, r4
200059c0:	4b0f      	ldr	r3, [pc, #60]	@ (20005a00 <data_stage_xact+0x58>)
200059c2:	781b      	ldrb	r3, [r3, #0]
200059c4:	b25b      	sxtb	r3, r3
200059c6:	2b00      	cmp	r3, #0
200059c8:	db08      	blt.n	200059dc <data_stage_xact+0x34>
200059ca:	2100      	movs	r1, #0
200059cc:	42ae      	cmp	r6, r5
200059ce:	d013      	beq.n	200059f8 <data_stage_xact+0x50>
200059d0:	4a0c      	ldr	r2, [pc, #48]	@ (20005a04 <data_stage_xact+0x5c>)
200059d2:	0023      	movs	r3, r4
200059d4:	0038      	movs	r0, r7
200059d6:	f7ff fcb7 	bl	20005348 <usbd_edpt_xfer>
200059da:	bdf8      	pop	{r3, r4, r5, r6, r7, pc}
200059dc:	42ae      	cmp	r6, r5
200059de:	d009      	beq.n	200059f4 <data_stage_xact+0x4c>
200059e0:	4b07      	ldr	r3, [pc, #28]	@ (20005a00 <data_stage_xact+0x58>)
200059e2:	6899      	ldr	r1, [r3, #8]
200059e4:	2c40      	cmp	r4, #64	@ 0x40
200059e6:	d809      	bhi.n	200059fc <data_stage_xact+0x54>
200059e8:	4806      	ldr	r0, [pc, #24]	@ (20005a04 <data_stage_xact+0x5c>)
200059ea:	0022      	movs	r2, r4
200059ec:	f7fd fa74 	bl	20002ed8 <__wrap___aeabi_memcpy>
200059f0:	2180      	movs	r1, #128	@ 0x80
200059f2:	e7eb      	b.n	200059cc <data_stage_xact+0x24>
200059f4:	2180      	movs	r1, #128	@ 0x80
200059f6:	e7e9      	b.n	200059cc <data_stage_xact+0x24>
200059f8:	2200      	movs	r2, #0
200059fa:	e7ea      	b.n	200059d2 <data_stage_xact+0x2a>
200059fc:	2000      	movs	r0, #0
200059fe:	e7ec      	b.n	200059da <data_stage_xact+0x32>
20005a00:	20008258 	.word	0x20008258
20005a04:	20008218 	.word	0x20008218

20005a08 <tud_control_status>:
20005a08:	b570      	push	{r4, r5, r6, lr}
20005a0a:	0006      	movs	r6, r0
20005a0c:	000d      	movs	r5, r1
20005a0e:	4c07      	ldr	r4, [pc, #28]	@ (20005a2c <tud_control_status+0x24>)
20005a10:	2208      	movs	r2, #8
20005a12:	0020      	movs	r0, r4
20005a14:	f7fd fa60 	bl	20002ed8 <__wrap___aeabi_memcpy>
20005a18:	2300      	movs	r3, #0
20005a1a:	60a3      	str	r3, [r4, #8]
20005a1c:	81e3      	strh	r3, [r4, #14]
20005a1e:	81a3      	strh	r3, [r4, #12]
20005a20:	0029      	movs	r1, r5
20005a22:	0030      	movs	r0, r6
20005a24:	f7ff ffb2 	bl	2000598c <status_stage_xact>
20005a28:	bd70      	pop	{r4, r5, r6, pc}
20005a2a:	46c0      	nop			@ (mov r8, r8)
20005a2c:	20008258 	.word	0x20008258

20005a30 <tud_control_xfer>:
20005a30:	b5f0      	push	{r4, r5, r6, r7, lr}
20005a32:	46c6      	mov	lr, r8
20005a34:	b500      	push	{lr}
20005a36:	4680      	mov	r8, r0
20005a38:	000c      	movs	r4, r1
20005a3a:	0017      	movs	r7, r2
20005a3c:	001e      	movs	r6, r3
20005a3e:	4d14      	ldr	r5, [pc, #80]	@ (20005a90 <tud_control_xfer+0x60>)
20005a40:	2208      	movs	r2, #8
20005a42:	0028      	movs	r0, r5
20005a44:	f7fd fa48 	bl	20002ed8 <__wrap___aeabi_memcpy>
20005a48:	60af      	str	r7, [r5, #8]
20005a4a:	2300      	movs	r3, #0
20005a4c:	81eb      	strh	r3, [r5, #14]
20005a4e:	79a3      	ldrb	r3, [r4, #6]
20005a50:	79e1      	ldrb	r1, [r4, #7]
20005a52:	0209      	lsls	r1, r1, #8
20005a54:	4319      	orrs	r1, r3
20005a56:	1c0b      	adds	r3, r1, #0
20005a58:	42b1      	cmp	r1, r6
20005a5a:	d900      	bls.n	20005a5e <tud_control_xfer+0x2e>
20005a5c:	1c33      	adds	r3, r6, #0
20005a5e:	b299      	uxth	r1, r3
20005a60:	4a0b      	ldr	r2, [pc, #44]	@ (20005a90 <tud_control_xfer+0x60>)
20005a62:	8193      	strh	r3, [r2, #12]
20005a64:	79a2      	ldrb	r2, [r4, #6]
20005a66:	79e3      	ldrb	r3, [r4, #7]
20005a68:	021b      	lsls	r3, r3, #8
20005a6a:	4313      	orrs	r3, r2
20005a6c:	d009      	beq.n	20005a82 <tud_control_xfer+0x52>
20005a6e:	2900      	cmp	r1, #0
20005a70:	d001      	beq.n	20005a76 <tud_control_xfer+0x46>
20005a72:	2f00      	cmp	r7, #0
20005a74:	d00a      	beq.n	20005a8c <tud_control_xfer+0x5c>
20005a76:	4640      	mov	r0, r8
20005a78:	f7ff ff96 	bl	200059a8 <data_stage_xact>
20005a7c:	bc80      	pop	{r7}
20005a7e:	46b8      	mov	r8, r7
20005a80:	bdf0      	pop	{r4, r5, r6, r7, pc}
20005a82:	0021      	movs	r1, r4
20005a84:	4640      	mov	r0, r8
20005a86:	f7ff ff81 	bl	2000598c <status_stage_xact>
20005a8a:	e7f7      	b.n	20005a7c <tud_control_xfer+0x4c>
20005a8c:	2000      	movs	r0, #0
20005a8e:	e7f5      	b.n	20005a7c <tud_control_xfer+0x4c>
20005a90:	20008258 	.word	0x20008258

20005a94 <usbd_control_reset>:
20005a94:	b510      	push	{r4, lr}
20005a96:	4803      	ldr	r0, [pc, #12]	@ (20005aa4 <usbd_control_reset+0x10>)
20005a98:	2214      	movs	r2, #20
20005a9a:	2100      	movs	r1, #0
20005a9c:	f7fd fa16 	bl	20002ecc <__wrap_memset>
20005aa0:	bd10      	pop	{r4, pc}
20005aa2:	46c0      	nop			@ (mov r8, r8)
20005aa4:	20008258 	.word	0x20008258

20005aa8 <usbd_control_set_complete_callback>:
20005aa8:	4b01      	ldr	r3, [pc, #4]	@ (20005ab0 <usbd_control_set_complete_callback+0x8>)
20005aaa:	6118      	str	r0, [r3, #16]
20005aac:	4770      	bx	lr
20005aae:	46c0      	nop			@ (mov r8, r8)
20005ab0:	20008258 	.word	0x20008258

20005ab4 <usbd_control_set_request>:
20005ab4:	b510      	push	{r4, lr}
20005ab6:	0001      	movs	r1, r0
20005ab8:	4c04      	ldr	r4, [pc, #16]	@ (20005acc <usbd_control_set_request+0x18>)
20005aba:	2208      	movs	r2, #8
20005abc:	0020      	movs	r0, r4
20005abe:	f7fd fa0b 	bl	20002ed8 <__wrap___aeabi_memcpy>
20005ac2:	2300      	movs	r3, #0
20005ac4:	60a3      	str	r3, [r4, #8]
20005ac6:	81e3      	strh	r3, [r4, #14]
20005ac8:	81a3      	strh	r3, [r4, #12]
20005aca:	bd10      	pop	{r4, pc}
20005acc:	20008258 	.word	0x20008258

20005ad0 <usbd_control_xfer_cb>:
20005ad0:	b570      	push	{r4, r5, r6, lr}
20005ad2:	0005      	movs	r5, r0
20005ad4:	001a      	movs	r2, r3
20005ad6:	001c      	movs	r4, r3
20005ad8:	09c9      	lsrs	r1, r1, #7
20005ada:	4b27      	ldr	r3, [pc, #156]	@ (20005b78 <usbd_control_xfer_cb+0xa8>)
20005adc:	781b      	ldrb	r3, [r3, #0]
20005ade:	09db      	lsrs	r3, r3, #7
20005ae0:	428b      	cmp	r3, r1
20005ae2:	d011      	beq.n	20005b08 <usbd_control_xfer_cb+0x38>
20005ae4:	2a00      	cmp	r2, #0
20005ae6:	d001      	beq.n	20005aec <usbd_control_xfer_cb+0x1c>
20005ae8:	2000      	movs	r0, #0
20005aea:	bd70      	pop	{r4, r5, r6, pc}
20005aec:	4b22      	ldr	r3, [pc, #136]	@ (20005b78 <usbd_control_xfer_cb+0xa8>)
20005aee:	001c      	movs	r4, r3
20005af0:	0019      	movs	r1, r3
20005af2:	f7ff f8f5 	bl	20004ce0 <dcd_edpt0_status_complete>
20005af6:	6923      	ldr	r3, [r4, #16]
20005af8:	2b00      	cmp	r3, #0
20005afa:	d003      	beq.n	20005b04 <usbd_control_xfer_cb+0x34>
20005afc:	4a1e      	ldr	r2, [pc, #120]	@ (20005b78 <usbd_control_xfer_cb+0xa8>)
20005afe:	2103      	movs	r1, #3
20005b00:	0028      	movs	r0, r5
20005b02:	4798      	blx	r3
20005b04:	2001      	movs	r0, #1
20005b06:	e7f0      	b.n	20005aea <usbd_control_xfer_cb+0x1a>
20005b08:	4b1b      	ldr	r3, [pc, #108]	@ (20005b78 <usbd_control_xfer_cb+0xa8>)
20005b0a:	781b      	ldrb	r3, [r3, #0]
20005b0c:	b25b      	sxtb	r3, r3
20005b0e:	2b00      	cmp	r3, #0
20005b10:	db06      	blt.n	20005b20 <usbd_control_xfer_cb+0x50>
20005b12:	4b19      	ldr	r3, [pc, #100]	@ (20005b78 <usbd_control_xfer_cb+0xa8>)
20005b14:	6898      	ldr	r0, [r3, #8]
20005b16:	2800      	cmp	r0, #0
20005b18:	d0e7      	beq.n	20005aea <usbd_control_xfer_cb+0x1a>
20005b1a:	4918      	ldr	r1, [pc, #96]	@ (20005b7c <usbd_control_xfer_cb+0xac>)
20005b1c:	f7fd f9dc 	bl	20002ed8 <__wrap___aeabi_memcpy>
20005b20:	4a15      	ldr	r2, [pc, #84]	@ (20005b78 <usbd_control_xfer_cb+0xa8>)
20005b22:	89d3      	ldrh	r3, [r2, #14]
20005b24:	b2a1      	uxth	r1, r4
20005b26:	185b      	adds	r3, r3, r1
20005b28:	b29b      	uxth	r3, r3
20005b2a:	81d3      	strh	r3, [r2, #14]
20005b2c:	6891      	ldr	r1, [r2, #8]
20005b2e:	46a4      	mov	ip, r4
20005b30:	4461      	add	r1, ip
20005b32:	6091      	str	r1, [r2, #8]
20005b34:	88d2      	ldrh	r2, [r2, #6]
20005b36:	4293      	cmp	r3, r2
20005b38:	d001      	beq.n	20005b3e <usbd_control_xfer_cb+0x6e>
20005b3a:	2c3f      	cmp	r4, #63	@ 0x3f
20005b3c:	d818      	bhi.n	20005b70 <usbd_control_xfer_cb+0xa0>
20005b3e:	4b0e      	ldr	r3, [pc, #56]	@ (20005b78 <usbd_control_xfer_cb+0xa8>)
20005b40:	691b      	ldr	r3, [r3, #16]
20005b42:	2b00      	cmp	r3, #0
20005b44:	d005      	beq.n	20005b52 <usbd_control_xfer_cb+0x82>
20005b46:	4a0c      	ldr	r2, [pc, #48]	@ (20005b78 <usbd_control_xfer_cb+0xa8>)
20005b48:	2102      	movs	r1, #2
20005b4a:	0028      	movs	r0, r5
20005b4c:	4798      	blx	r3
20005b4e:	2800      	cmp	r0, #0
20005b50:	d004      	beq.n	20005b5c <usbd_control_xfer_cb+0x8c>
20005b52:	4909      	ldr	r1, [pc, #36]	@ (20005b78 <usbd_control_xfer_cb+0xa8>)
20005b54:	0028      	movs	r0, r5
20005b56:	f7ff ff19 	bl	2000598c <status_stage_xact>
20005b5a:	e7c6      	b.n	20005aea <usbd_control_xfer_cb+0x1a>
20005b5c:	2100      	movs	r1, #0
20005b5e:	0028      	movs	r0, r5
20005b60:	f7ff f906 	bl	20004d70 <dcd_edpt_stall>
20005b64:	2180      	movs	r1, #128	@ 0x80
20005b66:	0028      	movs	r0, r5
20005b68:	f7ff f902 	bl	20004d70 <dcd_edpt_stall>
20005b6c:	2001      	movs	r0, #1
20005b6e:	e7bc      	b.n	20005aea <usbd_control_xfer_cb+0x1a>
20005b70:	0028      	movs	r0, r5
20005b72:	f7ff ff19 	bl	200059a8 <data_stage_xact>
20005b76:	e7b8      	b.n	20005aea <usbd_control_xfer_cb+0x1a>
20005b78:	20008258 	.word	0x20008258
20005b7c:	20008218 	.word	0x20008218

20005b80 <_prep_out_transaction>:
20005b80:	b570      	push	{r4, r5, r6, lr}
20005b82:	0004      	movs	r4, r0
20005b84:	f7ff faec 	bl	20005160 <tud_mounted>
20005b88:	2800      	cmp	r0, #0
20005b8a:	d103      	bne.n	20005b94 <_prep_out_transaction+0x14>
20005b8c:	2300      	movs	r3, #0
20005b8e:	001e      	movs	r6, r3
20005b90:	0030      	movs	r0, r6
20005b92:	bd70      	pop	{r4, r5, r6, pc}
20005b94:	f7ff faec 	bl	20005170 <tud_suspended>
20005b98:	1e06      	subs	r6, r0, #0
20005b9a:	d1f7      	bne.n	20005b8c <_prep_out_transaction+0xc>
20005b9c:	4b1c      	ldr	r3, [pc, #112]	@ (20005c10 <_prep_out_transaction+0x90>)
20005b9e:	22c8      	movs	r2, #200	@ 0xc8
20005ba0:	4362      	muls	r2, r4
20005ba2:	189b      	adds	r3, r3, r2
20005ba4:	78db      	ldrb	r3, [r3, #3]
20005ba6:	2b00      	cmp	r3, #0
20005ba8:	d0f0      	beq.n	20005b8c <_prep_out_transaction+0xc>
20005baa:	23c8      	movs	r3, #200	@ 0xc8
20005bac:	4363      	muls	r3, r4
20005bae:	3310      	adds	r3, #16
20005bb0:	4a17      	ldr	r2, [pc, #92]	@ (20005c10 <_prep_out_transaction+0x90>)
20005bb2:	189b      	adds	r3, r3, r2
20005bb4:	001d      	movs	r5, r3
20005bb6:	0018      	movs	r0, r3
20005bb8:	f001 f8b9 	bl	20006d2e <tu_fifo_remaining>
20005bbc:	283f      	cmp	r0, #63	@ 0x3f
20005bbe:	d9e7      	bls.n	20005b90 <_prep_out_transaction+0x10>
20005bc0:	4b13      	ldr	r3, [pc, #76]	@ (20005c10 <_prep_out_transaction+0x90>)
20005bc2:	22c8      	movs	r2, #200	@ 0xc8
20005bc4:	4362      	muls	r2, r4
20005bc6:	189b      	adds	r3, r3, r2
20005bc8:	78d9      	ldrb	r1, [r3, #3]
20005bca:	2000      	movs	r0, #0
20005bcc:	f7ff fb94 	bl	200052f8 <usbd_edpt_claim>
20005bd0:	2800      	cmp	r0, #0
20005bd2:	d101      	bne.n	20005bd8 <_prep_out_transaction+0x58>
20005bd4:	0006      	movs	r6, r0
20005bd6:	e7db      	b.n	20005b90 <_prep_out_transaction+0x10>
20005bd8:	0028      	movs	r0, r5
20005bda:	f001 f8a8 	bl	20006d2e <tu_fifo_remaining>
20005bde:	283f      	cmp	r0, #63	@ 0x3f
20005be0:	d90d      	bls.n	20005bfe <_prep_out_transaction+0x7e>
20005be2:	01e2      	lsls	r2, r4, #7
20005be4:	4b0b      	ldr	r3, [pc, #44]	@ (20005c14 <_prep_out_transaction+0x94>)
20005be6:	18d2      	adds	r2, r2, r3
20005be8:	4b09      	ldr	r3, [pc, #36]	@ (20005c10 <_prep_out_transaction+0x90>)
20005bea:	21c8      	movs	r1, #200	@ 0xc8
20005bec:	4361      	muls	r1, r4
20005bee:	185b      	adds	r3, r3, r1
20005bf0:	78d9      	ldrb	r1, [r3, #3]
20005bf2:	2340      	movs	r3, #64	@ 0x40
20005bf4:	2000      	movs	r0, #0
20005bf6:	f7ff fba7 	bl	20005348 <usbd_edpt_xfer>
20005bfa:	0006      	movs	r6, r0
20005bfc:	e7c8      	b.n	20005b90 <_prep_out_transaction+0x10>
20005bfe:	4b04      	ldr	r3, [pc, #16]	@ (20005c10 <_prep_out_transaction+0x90>)
20005c00:	22c8      	movs	r2, #200	@ 0xc8
20005c02:	4362      	muls	r2, r4
20005c04:	189b      	adds	r3, r3, r2
20005c06:	78d9      	ldrb	r1, [r3, #3]
20005c08:	2000      	movs	r0, #0
20005c0a:	f7ff fb89 	bl	20005320 <usbd_edpt_release>
20005c0e:	e7bf      	b.n	20005b90 <_prep_out_transaction+0x10>
20005c10:	20008150 	.word	0x20008150
20005c14:	200080cc 	.word	0x200080cc

20005c18 <tud_cdc_n_connected>:
20005c18:	b510      	push	{r4, lr}
20005c1a:	0004      	movs	r4, r0
20005c1c:	f7ff faa0 	bl	20005160 <tud_mounted>
20005c20:	2800      	cmp	r0, #0
20005c22:	d100      	bne.n	20005c26 <tud_cdc_n_connected+0xe>
20005c24:	bd10      	pop	{r4, pc}
20005c26:	f7ff faa3 	bl	20005170 <tud_suspended>
20005c2a:	2800      	cmp	r0, #0
20005c2c:	d108      	bne.n	20005c40 <tud_cdc_n_connected+0x28>
20005c2e:	4b06      	ldr	r3, [pc, #24]	@ (20005c48 <tud_cdc_n_connected+0x30>)
20005c30:	22c8      	movs	r2, #200	@ 0xc8
20005c32:	4362      	muls	r2, r4
20005c34:	189b      	adds	r3, r3, r2
20005c36:	791b      	ldrb	r3, [r3, #4]
20005c38:	07db      	lsls	r3, r3, #31
20005c3a:	d503      	bpl.n	20005c44 <tud_cdc_n_connected+0x2c>
20005c3c:	3001      	adds	r0, #1
20005c3e:	e7f1      	b.n	20005c24 <tud_cdc_n_connected+0xc>
20005c40:	2000      	movs	r0, #0
20005c42:	e7ef      	b.n	20005c24 <tud_cdc_n_connected+0xc>
20005c44:	2000      	movs	r0, #0
20005c46:	e7ed      	b.n	20005c24 <tud_cdc_n_connected+0xc>
20005c48:	20008150 	.word	0x20008150

20005c4c <tud_cdc_n_available>:
20005c4c:	b510      	push	{r4, lr}
20005c4e:	23c8      	movs	r3, #200	@ 0xc8
20005c50:	4343      	muls	r3, r0
20005c52:	3310      	adds	r3, #16
20005c54:	4802      	ldr	r0, [pc, #8]	@ (20005c60 <tud_cdc_n_available+0x14>)
20005c56:	1818      	adds	r0, r3, r0
20005c58:	f001 f835 	bl	20006cc6 <tu_fifo_count>
20005c5c:	bd10      	pop	{r4, pc}
20005c5e:	46c0      	nop			@ (mov r8, r8)
20005c60:	20008150 	.word	0x20008150

20005c64 <tud_cdc_n_read>:
20005c64:	b570      	push	{r4, r5, r6, lr}
20005c66:	0004      	movs	r4, r0
20005c68:	20c8      	movs	r0, #200	@ 0xc8
20005c6a:	4360      	muls	r0, r4
20005c6c:	0003      	movs	r3, r0
20005c6e:	3310      	adds	r3, #16
20005c70:	4807      	ldr	r0, [pc, #28]	@ (20005c90 <tud_cdc_n_read+0x2c>)
20005c72:	1818      	adds	r0, r3, r0
20005c74:	4b07      	ldr	r3, [pc, #28]	@ (20005c94 <tud_cdc_n_read+0x30>)
20005c76:	429a      	cmp	r2, r3
20005c78:	d808      	bhi.n	20005c8c <tud_cdc_n_read+0x28>
20005c7a:	b292      	uxth	r2, r2
20005c7c:	f001 f88f 	bl	20006d9e <tu_fifo_read_n>
20005c80:	0005      	movs	r5, r0
20005c82:	0020      	movs	r0, r4
20005c84:	f7ff ff7c 	bl	20005b80 <_prep_out_transaction>
20005c88:	0028      	movs	r0, r5
20005c8a:	bd70      	pop	{r4, r5, r6, pc}
20005c8c:	4a02      	ldr	r2, [pc, #8]	@ (20005c98 <tud_cdc_n_read+0x34>)
20005c8e:	e7f5      	b.n	20005c7c <tud_cdc_n_read+0x18>
20005c90:	20008150 	.word	0x20008150
20005c94:	0000fffe 	.word	0x0000fffe
20005c98:	0000ffff 	.word	0x0000ffff

20005c9c <tud_cdc_n_write_flush>:
20005c9c:	b570      	push	{r4, r5, r6, lr}
20005c9e:	0004      	movs	r4, r0
20005ca0:	f7ff fa5e 	bl	20005160 <tud_mounted>
20005ca4:	2800      	cmp	r0, #0
20005ca6:	d101      	bne.n	20005cac <tud_cdc_n_write_flush+0x10>
20005ca8:	2000      	movs	r0, #0
20005caa:	bd70      	pop	{r4, r5, r6, pc}
20005cac:	f7ff fa60 	bl	20005170 <tud_suspended>
20005cb0:	2800      	cmp	r0, #0
20005cb2:	d1f9      	bne.n	20005ca8 <tud_cdc_n_write_flush+0xc>
20005cb4:	23c8      	movs	r3, #200	@ 0xc8
20005cb6:	4363      	muls	r3, r4
20005cb8:	3320      	adds	r3, #32
20005cba:	4a1b      	ldr	r2, [pc, #108]	@ (20005d28 <tud_cdc_n_write_flush+0x8c>)
20005cbc:	189b      	adds	r3, r3, r2
20005cbe:	3304      	adds	r3, #4
20005cc0:	001e      	movs	r6, r3
20005cc2:	0018      	movs	r0, r3
20005cc4:	f000 ffff 	bl	20006cc6 <tu_fifo_count>
20005cc8:	2800      	cmp	r0, #0
20005cca:	d0ee      	beq.n	20005caa <tud_cdc_n_write_flush+0xe>
20005ccc:	4b16      	ldr	r3, [pc, #88]	@ (20005d28 <tud_cdc_n_write_flush+0x8c>)
20005cce:	22c8      	movs	r2, #200	@ 0xc8
20005cd0:	4362      	muls	r2, r4
20005cd2:	189b      	adds	r3, r3, r2
20005cd4:	7899      	ldrb	r1, [r3, #2]
20005cd6:	2000      	movs	r0, #0
20005cd8:	f7ff fb0e 	bl	200052f8 <usbd_edpt_claim>
20005cdc:	2800      	cmp	r0, #0
20005cde:	d0e4      	beq.n	20005caa <tud_cdc_n_write_flush+0xe>
20005ce0:	01e3      	lsls	r3, r4, #7
20005ce2:	3340      	adds	r3, #64	@ 0x40
20005ce4:	4a11      	ldr	r2, [pc, #68]	@ (20005d2c <tud_cdc_n_write_flush+0x90>)
20005ce6:	189b      	adds	r3, r3, r2
20005ce8:	001d      	movs	r5, r3
20005cea:	2240      	movs	r2, #64	@ 0x40
20005cec:	0019      	movs	r1, r3
20005cee:	0030      	movs	r0, r6
20005cf0:	f001 f855 	bl	20006d9e <tu_fifo_read_n>
20005cf4:	2800      	cmp	r0, #0
20005cf6:	d00e      	beq.n	20005d16 <tud_cdc_n_write_flush+0x7a>
20005cf8:	4b0b      	ldr	r3, [pc, #44]	@ (20005d28 <tud_cdc_n_write_flush+0x8c>)
20005cfa:	22c8      	movs	r2, #200	@ 0xc8
20005cfc:	4362      	muls	r2, r4
20005cfe:	189b      	adds	r3, r3, r2
20005d00:	7899      	ldrb	r1, [r3, #2]
20005d02:	0004      	movs	r4, r0
20005d04:	0003      	movs	r3, r0
20005d06:	002a      	movs	r2, r5
20005d08:	2000      	movs	r0, #0
20005d0a:	f7ff fb1d 	bl	20005348 <usbd_edpt_xfer>
20005d0e:	2800      	cmp	r0, #0
20005d10:	d0cb      	beq.n	20005caa <tud_cdc_n_write_flush+0xe>
20005d12:	0020      	movs	r0, r4
20005d14:	e7c9      	b.n	20005caa <tud_cdc_n_write_flush+0xe>
20005d16:	4b04      	ldr	r3, [pc, #16]	@ (20005d28 <tud_cdc_n_write_flush+0x8c>)
20005d18:	22c8      	movs	r2, #200	@ 0xc8
20005d1a:	4362      	muls	r2, r4
20005d1c:	189b      	adds	r3, r3, r2
20005d1e:	7899      	ldrb	r1, [r3, #2]
20005d20:	f7ff fafe 	bl	20005320 <usbd_edpt_release>
20005d24:	2000      	movs	r0, #0
20005d26:	e7c0      	b.n	20005caa <tud_cdc_n_write_flush+0xe>
20005d28:	20008150 	.word	0x20008150
20005d2c:	200080cc 	.word	0x200080cc

20005d30 <tud_cdc_n_write>:
20005d30:	b570      	push	{r4, r5, r6, lr}
20005d32:	0006      	movs	r6, r0
20005d34:	24c8      	movs	r4, #200	@ 0xc8
20005d36:	4344      	muls	r4, r0
20005d38:	3420      	adds	r4, #32
20005d3a:	4b0c      	ldr	r3, [pc, #48]	@ (20005d6c <tud_cdc_n_write+0x3c>)
20005d3c:	18e4      	adds	r4, r4, r3
20005d3e:	3404      	adds	r4, #4
20005d40:	4b0b      	ldr	r3, [pc, #44]	@ (20005d70 <tud_cdc_n_write+0x40>)
20005d42:	429a      	cmp	r2, r3
20005d44:	d80b      	bhi.n	20005d5e <tud_cdc_n_write+0x2e>
20005d46:	b292      	uxth	r2, r2
20005d48:	0020      	movs	r0, r4
20005d4a:	f001 f860 	bl	20006e0e <tu_fifo_write_n>
20005d4e:	0005      	movs	r5, r0
20005d50:	0020      	movs	r0, r4
20005d52:	f000 ffb8 	bl	20006cc6 <tu_fifo_count>
20005d56:	283f      	cmp	r0, #63	@ 0x3f
20005d58:	d803      	bhi.n	20005d62 <tud_cdc_n_write+0x32>
20005d5a:	0028      	movs	r0, r5
20005d5c:	bd70      	pop	{r4, r5, r6, pc}
20005d5e:	4a05      	ldr	r2, [pc, #20]	@ (20005d74 <tud_cdc_n_write+0x44>)
20005d60:	e7f2      	b.n	20005d48 <tud_cdc_n_write+0x18>
20005d62:	0030      	movs	r0, r6
20005d64:	f7ff ff9a 	bl	20005c9c <tud_cdc_n_write_flush>
20005d68:	e7f7      	b.n	20005d5a <tud_cdc_n_write+0x2a>
20005d6a:	46c0      	nop			@ (mov r8, r8)
20005d6c:	20008150 	.word	0x20008150
20005d70:	0000fffe 	.word	0x0000fffe
20005d74:	0000ffff 	.word	0x0000ffff

20005d78 <tud_cdc_n_write_available>:
20005d78:	b510      	push	{r4, lr}
20005d7a:	23c8      	movs	r3, #200	@ 0xc8
20005d7c:	4358      	muls	r0, r3
20005d7e:	3020      	adds	r0, #32
20005d80:	4b02      	ldr	r3, [pc, #8]	@ (20005d8c <tud_cdc_n_write_available+0x14>)
20005d82:	18c0      	adds	r0, r0, r3
20005d84:	3004      	adds	r0, #4
20005d86:	f000 ffd2 	bl	20006d2e <tu_fifo_remaining>
20005d8a:	bd10      	pop	{r4, pc}
20005d8c:	20008150 	.word	0x20008150

20005d90 <cdcd_init>:
20005d90:	b5f0      	push	{r4, r5, r6, r7, lr}
20005d92:	46c6      	mov	lr, r8
20005d94:	b500      	push	{lr}
20005d96:	b082      	sub	sp, #8
20005d98:	4824      	ldr	r0, [pc, #144]	@ (20005e2c <cdcd_init+0x9c>)
20005d9a:	22c8      	movs	r2, #200	@ 0xc8
20005d9c:	2100      	movs	r1, #0
20005d9e:	f7fd f895 	bl	20002ecc <__wrap_memset>
20005da2:	4b23      	ldr	r3, [pc, #140]	@ (20005e30 <cdcd_init+0xa0>)
20005da4:	2200      	movs	r2, #0
20005da6:	701a      	strb	r2, [r3, #0]
20005da8:	2700      	movs	r7, #0
20005daa:	2f00      	cmp	r7, #0
20005dac:	d003      	beq.n	20005db6 <cdcd_init+0x26>
20005dae:	b002      	add	sp, #8
20005db0:	bc80      	pop	{r7}
20005db2:	46b8      	mov	r8, r7
20005db4:	bdf0      	pop	{r4, r5, r6, r7, pc}
20005db6:	4e1d      	ldr	r6, [pc, #116]	@ (20005e2c <cdcd_init+0x9c>)
20005db8:	24c8      	movs	r4, #200	@ 0xc8
20005dba:	437c      	muls	r4, r7
20005dbc:	1935      	adds	r5, r6, r4
20005dbe:	23ff      	movs	r3, #255	@ 0xff
20005dc0:	716b      	strb	r3, [r5, #5]
20005dc2:	23e1      	movs	r3, #225	@ 0xe1
20005dc4:	025b      	lsls	r3, r3, #9
20005dc6:	60ab      	str	r3, [r5, #8]
20005dc8:	2200      	movs	r2, #0
20005dca:	732a      	strb	r2, [r5, #12]
20005dcc:	736a      	strb	r2, [r5, #13]
20005dce:	2308      	movs	r3, #8
20005dd0:	73ab      	strb	r3, [r5, #14]
20005dd2:	0021      	movs	r1, r4
20005dd4:	3138      	adds	r1, #56	@ 0x38
20005dd6:	1989      	adds	r1, r1, r6
20005dd8:	0020      	movs	r0, r4
20005dda:	3010      	adds	r0, #16
20005ddc:	1980      	adds	r0, r0, r6
20005dde:	9200      	str	r2, [sp, #0]
20005de0:	3b07      	subs	r3, #7
20005de2:	3240      	adds	r2, #64	@ 0x40
20005de4:	f000 ff2e 	bl	20006c44 <tu_fifo_config>
20005de8:	0021      	movs	r1, r4
20005dea:	3178      	adds	r1, #120	@ 0x78
20005dec:	1989      	adds	r1, r1, r6
20005dee:	0020      	movs	r0, r4
20005df0:	3020      	adds	r0, #32
20005df2:	1980      	adds	r0, r0, r6
20005df4:	3004      	adds	r0, #4
20005df6:	2301      	movs	r3, #1
20005df8:	9300      	str	r3, [sp, #0]
20005dfa:	2240      	movs	r2, #64	@ 0x40
20005dfc:	f000 ff22 	bl	20006c44 <tu_fifo_config>
20005e00:	0023      	movs	r3, r4
20005e02:	33b8      	adds	r3, #184	@ 0xb8
20005e04:	199b      	adds	r3, r3, r6
20005e06:	4698      	mov	r8, r3
20005e08:	0018      	movs	r0, r3
20005e0a:	f7fb fa01 	bl	20001210 <mutex_init>
20005e0e:	34c0      	adds	r4, #192	@ 0xc0
20005e10:	19a4      	adds	r4, r4, r6
20005e12:	0020      	movs	r0, r4
20005e14:	f7fb f9fc 	bl	20001210 <mutex_init>
20005e18:	2200      	movs	r2, #0
20005e1a:	61ea      	str	r2, [r5, #28]
20005e1c:	4643      	mov	r3, r8
20005e1e:	622b      	str	r3, [r5, #32]
20005e20:	632c      	str	r4, [r5, #48]	@ 0x30
20005e22:	636a      	str	r2, [r5, #52]	@ 0x34
20005e24:	3701      	adds	r7, #1
20005e26:	b2ff      	uxtb	r7, r7
20005e28:	e7bf      	b.n	20005daa <cdcd_init+0x1a>
20005e2a:	46c0      	nop			@ (mov r8, r8)
20005e2c:	20008150 	.word	0x20008150
20005e30:	2000814c 	.word	0x2000814c

20005e34 <cdcd_deinit>:
20005e34:	2300      	movs	r3, #0
20005e36:	2b00      	cmp	r3, #0
20005e38:	d001      	beq.n	20005e3e <cdcd_deinit+0xa>
20005e3a:	2001      	movs	r0, #1
20005e3c:	4770      	bx	lr
20005e3e:	0019      	movs	r1, r3
20005e40:	4a0e      	ldr	r2, [pc, #56]	@ (20005e7c <cdcd_deinit+0x48>)
20005e42:	20c8      	movs	r0, #200	@ 0xc8
20005e44:	4358      	muls	r0, r3
20005e46:	1812      	adds	r2, r2, r0
20005e48:	6a10      	ldr	r0, [r2, #32]
20005e4a:	6b12      	ldr	r2, [r2, #48]	@ 0x30
20005e4c:	4694      	mov	ip, r2
20005e4e:	2800      	cmp	r0, #0
20005e50:	d006      	beq.n	20005e60 <cdcd_deinit+0x2c>
20005e52:	4a0a      	ldr	r2, [pc, #40]	@ (20005e7c <cdcd_deinit+0x48>)
20005e54:	20c8      	movs	r0, #200	@ 0xc8
20005e56:	4358      	muls	r0, r3
20005e58:	1812      	adds	r2, r2, r0
20005e5a:	2000      	movs	r0, #0
20005e5c:	61d0      	str	r0, [r2, #28]
20005e5e:	6210      	str	r0, [r2, #32]
20005e60:	4662      	mov	r2, ip
20005e62:	2a00      	cmp	r2, #0
20005e64:	d006      	beq.n	20005e74 <cdcd_deinit+0x40>
20005e66:	4a05      	ldr	r2, [pc, #20]	@ (20005e7c <cdcd_deinit+0x48>)
20005e68:	20c8      	movs	r0, #200	@ 0xc8
20005e6a:	4341      	muls	r1, r0
20005e6c:	1852      	adds	r2, r2, r1
20005e6e:	2100      	movs	r1, #0
20005e70:	6311      	str	r1, [r2, #48]	@ 0x30
20005e72:	6351      	str	r1, [r2, #52]	@ 0x34
20005e74:	3301      	adds	r3, #1
20005e76:	b2db      	uxtb	r3, r3
20005e78:	e7dd      	b.n	20005e36 <cdcd_deinit+0x2>
20005e7a:	46c0      	nop			@ (mov r8, r8)
20005e7c:	20008150 	.word	0x20008150

20005e80 <cdcd_reset>:
20005e80:	b570      	push	{r4, r5, r6, lr}
20005e82:	2400      	movs	r4, #0
20005e84:	2c00      	cmp	r4, #0
20005e86:	d000      	beq.n	20005e8a <cdcd_reset+0xa>
20005e88:	bd70      	pop	{r4, r5, r6, pc}
20005e8a:	0025      	movs	r5, r4
20005e8c:	20c8      	movs	r0, #200	@ 0xc8
20005e8e:	4360      	muls	r0, r4
20005e90:	4b15      	ldr	r3, [pc, #84]	@ (20005ee8 <cdcd_reset+0x68>)
20005e92:	18c0      	adds	r0, r0, r3
20005e94:	2205      	movs	r2, #5
20005e96:	2100      	movs	r1, #0
20005e98:	f7fd f818 	bl	20002ecc <__wrap_memset>
20005e9c:	4b13      	ldr	r3, [pc, #76]	@ (20005eec <cdcd_reset+0x6c>)
20005e9e:	781b      	ldrb	r3, [r3, #0]
20005ea0:	07db      	lsls	r3, r3, #31
20005ea2:	d50f      	bpl.n	20005ec4 <cdcd_reset+0x44>
20005ea4:	4b11      	ldr	r3, [pc, #68]	@ (20005eec <cdcd_reset+0x6c>)
20005ea6:	781b      	ldrb	r3, [r3, #0]
20005ea8:	079b      	lsls	r3, r3, #30
20005eaa:	d513      	bpl.n	20005ed4 <cdcd_reset+0x54>
20005eac:	20c8      	movs	r0, #200	@ 0xc8
20005eae:	4368      	muls	r0, r5
20005eb0:	3020      	adds	r0, #32
20005eb2:	4b0d      	ldr	r3, [pc, #52]	@ (20005ee8 <cdcd_reset+0x68>)
20005eb4:	18c0      	adds	r0, r0, r3
20005eb6:	3004      	adds	r0, #4
20005eb8:	2101      	movs	r1, #1
20005eba:	f000 ffcc 	bl	20006e56 <tu_fifo_set_overwritable>
20005ebe:	3401      	adds	r4, #1
20005ec0:	b2e4      	uxtb	r4, r4
20005ec2:	e7df      	b.n	20005e84 <cdcd_reset+0x4>
20005ec4:	20c8      	movs	r0, #200	@ 0xc8
20005ec6:	4360      	muls	r0, r4
20005ec8:	3010      	adds	r0, #16
20005eca:	4b07      	ldr	r3, [pc, #28]	@ (20005ee8 <cdcd_reset+0x68>)
20005ecc:	18c0      	adds	r0, r0, r3
20005ece:	f000 ffa3 	bl	20006e18 <tu_fifo_clear>
20005ed2:	e7e7      	b.n	20005ea4 <cdcd_reset+0x24>
20005ed4:	20c8      	movs	r0, #200	@ 0xc8
20005ed6:	4368      	muls	r0, r5
20005ed8:	3020      	adds	r0, #32
20005eda:	4b03      	ldr	r3, [pc, #12]	@ (20005ee8 <cdcd_reset+0x68>)
20005edc:	18c0      	adds	r0, r0, r3
20005ede:	3004      	adds	r0, #4
20005ee0:	f000 ff9a 	bl	20006e18 <tu_fifo_clear>
20005ee4:	e7e2      	b.n	20005eac <cdcd_reset+0x2c>
20005ee6:	46c0      	nop			@ (mov r8, r8)
20005ee8:	20008150 	.word	0x20008150
20005eec:	2000814c 	.word	0x2000814c

20005ef0 <cdcd_open>:
20005ef0:	b5f0      	push	{r4, r5, r6, r7, lr}
20005ef2:	46c6      	mov	lr, r8
20005ef4:	b500      	push	{lr}
20005ef6:	b082      	sub	sp, #8
20005ef8:	0007      	movs	r7, r0
20005efa:	794b      	ldrb	r3, [r1, #5]
20005efc:	2b02      	cmp	r3, #2
20005efe:	d152      	bne.n	20005fa6 <cdcd_open+0xb6>
20005f00:	798b      	ldrb	r3, [r1, #6]
20005f02:	2b02      	cmp	r3, #2
20005f04:	d155      	bne.n	20005fb2 <cdcd_open+0xc2>
20005f06:	2300      	movs	r3, #0
20005f08:	001e      	movs	r6, r3
20005f0a:	2e00      	cmp	r6, #0
20005f0c:	d011      	beq.n	20005f32 <cdcd_open+0x42>
20005f0e:	2e00      	cmp	r6, #0
20005f10:	d151      	bne.n	20005fb6 <cdcd_open+0xc6>
20005f12:	788b      	ldrb	r3, [r1, #2]
20005f14:	4640      	mov	r0, r8
20005f16:	7003      	strb	r3, [r0, #0]
20005f18:	780c      	ldrb	r4, [r1, #0]
20005f1a:	190c      	adds	r4, r1, r4
20005f1c:	2509      	movs	r5, #9
20005f1e:	7863      	ldrb	r3, [r4, #1]
20005f20:	2b24      	cmp	r3, #36	@ 0x24
20005f22:	d113      	bne.n	20005f4c <cdcd_open+0x5c>
20005f24:	4295      	cmp	r5, r2
20005f26:	d811      	bhi.n	20005f4c <cdcd_open+0x5c>
20005f28:	7823      	ldrb	r3, [r4, #0]
20005f2a:	195d      	adds	r5, r3, r5
20005f2c:	b2ad      	uxth	r5, r5
20005f2e:	18e4      	adds	r4, r4, r3
20005f30:	e7f5      	b.n	20005f1e <cdcd_open+0x2e>
20005f32:	23c8      	movs	r3, #200	@ 0xc8
20005f34:	4373      	muls	r3, r6
20005f36:	4823      	ldr	r0, [pc, #140]	@ (20005fc4 <cdcd_open+0xd4>)
20005f38:	181b      	adds	r3, r3, r0
20005f3a:	4698      	mov	r8, r3
20005f3c:	789b      	ldrb	r3, [r3, #2]
20005f3e:	2b00      	cmp	r3, #0
20005f40:	d0e5      	beq.n	20005f0e <cdcd_open+0x1e>
20005f42:	0033      	movs	r3, r6
20005f44:	3301      	adds	r3, #1
20005f46:	b2db      	uxtb	r3, r3
20005f48:	001e      	movs	r6, r3
20005f4a:	e7de      	b.n	20005f0a <cdcd_open+0x1a>
20005f4c:	2b05      	cmp	r3, #5
20005f4e:	d009      	beq.n	20005f64 <cdcd_open+0x74>
20005f50:	7863      	ldrb	r3, [r4, #1]
20005f52:	2b04      	cmp	r3, #4
20005f54:	d102      	bne.n	20005f5c <cdcd_open+0x6c>
20005f56:	7963      	ldrb	r3, [r4, #5]
20005f58:	2b0a      	cmp	r3, #10
20005f5a:	d011      	beq.n	20005f80 <cdcd_open+0x90>
20005f5c:	0030      	movs	r0, r6
20005f5e:	f7ff fe0f 	bl	20005b80 <_prep_out_transaction>
20005f62:	e021      	b.n	20005fa8 <cdcd_open+0xb8>
20005f64:	0021      	movs	r1, r4
20005f66:	0038      	movs	r0, r7
20005f68:	f7ff f97e 	bl	20005268 <usbd_edpt_open>
20005f6c:	2800      	cmp	r0, #0
20005f6e:	d024      	beq.n	20005fba <cdcd_open+0xca>
20005f70:	78a3      	ldrb	r3, [r4, #2]
20005f72:	4642      	mov	r2, r8
20005f74:	7053      	strb	r3, [r2, #1]
20005f76:	7823      	ldrb	r3, [r4, #0]
20005f78:	195d      	adds	r5, r3, r5
20005f7a:	b2ad      	uxth	r5, r5
20005f7c:	18e4      	adds	r4, r4, r3
20005f7e:	e7e7      	b.n	20005f50 <cdcd_open+0x60>
20005f80:	7821      	ldrb	r1, [r4, #0]
20005f82:	194d      	adds	r5, r1, r5
20005f84:	b2ad      	uxth	r5, r5
20005f86:	1861      	adds	r1, r4, r1
20005f88:	4642      	mov	r2, r8
20005f8a:	1c93      	adds	r3, r2, #2
20005f8c:	9301      	str	r3, [sp, #4]
20005f8e:	1cd3      	adds	r3, r2, #3
20005f90:	9300      	str	r3, [sp, #0]
20005f92:	2302      	movs	r3, #2
20005f94:	2202      	movs	r2, #2
20005f96:	0038      	movs	r0, r7
20005f98:	f7ff f980 	bl	2000529c <usbd_open_edpt_pair>
20005f9c:	2800      	cmp	r0, #0
20005f9e:	d00e      	beq.n	20005fbe <cdcd_open+0xce>
20005fa0:	350e      	adds	r5, #14
20005fa2:	b2ad      	uxth	r5, r5
20005fa4:	e7da      	b.n	20005f5c <cdcd_open+0x6c>
20005fa6:	2500      	movs	r5, #0
20005fa8:	0028      	movs	r0, r5
20005faa:	b002      	add	sp, #8
20005fac:	bc80      	pop	{r7}
20005fae:	46b8      	mov	r8, r7
20005fb0:	bdf0      	pop	{r4, r5, r6, r7, pc}
20005fb2:	2500      	movs	r5, #0
20005fb4:	e7f8      	b.n	20005fa8 <cdcd_open+0xb8>
20005fb6:	2500      	movs	r5, #0
20005fb8:	e7f6      	b.n	20005fa8 <cdcd_open+0xb8>
20005fba:	2500      	movs	r5, #0
20005fbc:	e7f4      	b.n	20005fa8 <cdcd_open+0xb8>
20005fbe:	2500      	movs	r5, #0
20005fc0:	e7f2      	b.n	20005fa8 <cdcd_open+0xb8>
20005fc2:	46c0      	nop			@ (mov r8, r8)
20005fc4:	20008150 	.word	0x20008150

20005fc8 <cdcd_control_xfer_cb>:
20005fc8:	b570      	push	{r4, r5, r6, lr}
20005fca:	0006      	movs	r6, r0
20005fcc:	000d      	movs	r5, r1
20005fce:	0011      	movs	r1, r2
20005fd0:	7812      	ldrb	r2, [r2, #0]
20005fd2:	2360      	movs	r3, #96	@ 0x60
20005fd4:	4013      	ands	r3, r2
20005fd6:	2b20      	cmp	r3, #32
20005fd8:	d000      	beq.n	20005fdc <cdcd_control_xfer_cb+0x14>
20005fda:	e087      	b.n	200060ec <cdcd_control_xfer_cb+0x124>
20005fdc:	2400      	movs	r4, #0
20005fde:	2c00      	cmp	r4, #0
20005fe0:	d00f      	beq.n	20006002 <cdcd_control_xfer_cb+0x3a>
20005fe2:	2c00      	cmp	r4, #0
20005fe4:	d000      	beq.n	20005fe8 <cdcd_control_xfer_cb+0x20>
20005fe6:	e083      	b.n	200060f0 <cdcd_control_xfer_cb+0x128>
20005fe8:	784b      	ldrb	r3, [r1, #1]
20005fea:	2b22      	cmp	r3, #34	@ 0x22
20005fec:	d045      	beq.n	2000607a <cdcd_control_xfer_cb+0xb2>
20005fee:	d819      	bhi.n	20006024 <cdcd_control_xfer_cb+0x5c>
20005ff0:	2b20      	cmp	r3, #32
20005ff2:	d021      	beq.n	20006038 <cdcd_control_xfer_cb+0x70>
20005ff4:	2b21      	cmp	r3, #33	@ 0x21
20005ff6:	d113      	bne.n	20006020 <cdcd_control_xfer_cb+0x58>
20005ff8:	002b      	movs	r3, r5
20005ffa:	2d01      	cmp	r5, #1
20005ffc:	d035      	beq.n	2000606a <cdcd_control_xfer_cb+0xa2>
20005ffe:	2001      	movs	r0, #1
20006000:	e075      	b.n	200060ee <cdcd_control_xfer_cb+0x126>
20006002:	23c8      	movs	r3, #200	@ 0xc8
20006004:	4363      	muls	r3, r4
20006006:	4a3e      	ldr	r2, [pc, #248]	@ (20006100 <cdcd_control_xfer_cb+0x138>)
20006008:	1898      	adds	r0, r3, r2
2000600a:	4684      	mov	ip, r0
2000600c:	5cd2      	ldrb	r2, [r2, r3]
2000600e:	7908      	ldrb	r0, [r1, #4]
20006010:	794b      	ldrb	r3, [r1, #5]
20006012:	021b      	lsls	r3, r3, #8
20006014:	4303      	orrs	r3, r0
20006016:	429a      	cmp	r2, r3
20006018:	d0e3      	beq.n	20005fe2 <cdcd_control_xfer_cb+0x1a>
2000601a:	3401      	adds	r4, #1
2000601c:	b2e4      	uxtb	r4, r4
2000601e:	e7de      	b.n	20005fde <cdcd_control_xfer_cb+0x16>
20006020:	2000      	movs	r0, #0
20006022:	e064      	b.n	200060ee <cdcd_control_xfer_cb+0x126>
20006024:	2b23      	cmp	r3, #35	@ 0x23
20006026:	d105      	bne.n	20006034 <cdcd_control_xfer_cb+0x6c>
20006028:	2d01      	cmp	r5, #1
2000602a:	d04e      	beq.n	200060ca <cdcd_control_xfer_cb+0x102>
2000602c:	2d03      	cmp	r5, #3
2000602e:	d051      	beq.n	200060d4 <cdcd_control_xfer_cb+0x10c>
20006030:	2001      	movs	r0, #1
20006032:	e05c      	b.n	200060ee <cdcd_control_xfer_cb+0x126>
20006034:	2000      	movs	r0, #0
20006036:	e05a      	b.n	200060ee <cdcd_control_xfer_cb+0x126>
20006038:	002b      	movs	r3, r5
2000603a:	2d01      	cmp	r5, #1
2000603c:	d003      	beq.n	20006046 <cdcd_control_xfer_cb+0x7e>
2000603e:	2d03      	cmp	r5, #3
20006040:	d009      	beq.n	20006056 <cdcd_control_xfer_cb+0x8e>
20006042:	2001      	movs	r0, #1
20006044:	e053      	b.n	200060ee <cdcd_control_xfer_cb+0x126>
20006046:	4662      	mov	r2, ip
20006048:	3208      	adds	r2, #8
2000604a:	3306      	adds	r3, #6
2000604c:	0030      	movs	r0, r6
2000604e:	f7ff fcef 	bl	20005a30 <tud_control_xfer>
20006052:	2001      	movs	r0, #1
20006054:	e04b      	b.n	200060ee <cdcd_control_xfer_cb+0x126>
20006056:	4b2b      	ldr	r3, [pc, #172]	@ (20006104 <cdcd_control_xfer_cb+0x13c>)
20006058:	2b00      	cmp	r3, #0
2000605a:	d04b      	beq.n	200060f4 <cdcd_control_xfer_cb+0x12c>
2000605c:	4661      	mov	r1, ip
2000605e:	3108      	adds	r1, #8
20006060:	0020      	movs	r0, r4
20006062:	f7fe fa2f 	bl	200044c4 <tud_cdc_line_coding_cb>
20006066:	2001      	movs	r0, #1
20006068:	e041      	b.n	200060ee <cdcd_control_xfer_cb+0x126>
2000606a:	4662      	mov	r2, ip
2000606c:	3208      	adds	r2, #8
2000606e:	3306      	adds	r3, #6
20006070:	0030      	movs	r0, r6
20006072:	f7ff fcdd 	bl	20005a30 <tud_control_xfer>
20006076:	2001      	movs	r0, #1
20006078:	e039      	b.n	200060ee <cdcd_control_xfer_cb+0x126>
2000607a:	2d01      	cmp	r5, #1
2000607c:	d003      	beq.n	20006086 <cdcd_control_xfer_cb+0xbe>
2000607e:	2d03      	cmp	r5, #3
20006080:	d006      	beq.n	20006090 <cdcd_control_xfer_cb+0xc8>
20006082:	2001      	movs	r0, #1
20006084:	e033      	b.n	200060ee <cdcd_control_xfer_cb+0x126>
20006086:	0030      	movs	r0, r6
20006088:	f7ff fcbe 	bl	20005a08 <tud_control_status>
2000608c:	2001      	movs	r0, #1
2000608e:	e02e      	b.n	200060ee <cdcd_control_xfer_cb+0x126>
20006090:	788a      	ldrb	r2, [r1, #2]
20006092:	78cb      	ldrb	r3, [r1, #3]
20006094:	021b      	lsls	r3, r3, #8
20006096:	4313      	orrs	r3, r2
20006098:	2201      	movs	r2, #1
2000609a:	0015      	movs	r5, r2
2000609c:	401d      	ands	r5, r3
2000609e:	0859      	lsrs	r1, r3, #1
200060a0:	400a      	ands	r2, r1
200060a2:	0016      	movs	r6, r2
200060a4:	4662      	mov	r2, ip
200060a6:	7113      	strb	r3, [r2, #4]
200060a8:	2101      	movs	r1, #1
200060aa:	4069      	eors	r1, r5
200060ac:	b2c9      	uxtb	r1, r1
200060ae:	4660      	mov	r0, ip
200060b0:	3024      	adds	r0, #36	@ 0x24
200060b2:	f000 fed0 	bl	20006e56 <tu_fifo_set_overwritable>
200060b6:	4b14      	ldr	r3, [pc, #80]	@ (20006108 <cdcd_control_xfer_cb+0x140>)
200060b8:	2b00      	cmp	r3, #0
200060ba:	d01d      	beq.n	200060f8 <cdcd_control_xfer_cb+0x130>
200060bc:	0032      	movs	r2, r6
200060be:	0029      	movs	r1, r5
200060c0:	0020      	movs	r0, r4
200060c2:	e000      	b.n	200060c6 <cdcd_control_xfer_cb+0xfe>
200060c4:	bf00      	nop
200060c6:	2001      	movs	r0, #1
200060c8:	e011      	b.n	200060ee <cdcd_control_xfer_cb+0x126>
200060ca:	0030      	movs	r0, r6
200060cc:	f7ff fc9c 	bl	20005a08 <tud_control_status>
200060d0:	2001      	movs	r0, #1
200060d2:	e00c      	b.n	200060ee <cdcd_control_xfer_cb+0x126>
200060d4:	4b0d      	ldr	r3, [pc, #52]	@ (2000610c <cdcd_control_xfer_cb+0x144>)
200060d6:	2b00      	cmp	r3, #0
200060d8:	d010      	beq.n	200060fc <cdcd_control_xfer_cb+0x134>
200060da:	788b      	ldrb	r3, [r1, #2]
200060dc:	78c9      	ldrb	r1, [r1, #3]
200060de:	0209      	lsls	r1, r1, #8
200060e0:	4319      	orrs	r1, r3
200060e2:	0020      	movs	r0, r4
200060e4:	e000      	b.n	200060e8 <cdcd_control_xfer_cb+0x120>
200060e6:	bf00      	nop
200060e8:	2001      	movs	r0, #1
200060ea:	e000      	b.n	200060ee <cdcd_control_xfer_cb+0x126>
200060ec:	2000      	movs	r0, #0
200060ee:	bd70      	pop	{r4, r5, r6, pc}
200060f0:	2000      	movs	r0, #0
200060f2:	e7fc      	b.n	200060ee <cdcd_control_xfer_cb+0x126>
200060f4:	2001      	movs	r0, #1
200060f6:	e7fa      	b.n	200060ee <cdcd_control_xfer_cb+0x126>
200060f8:	2001      	movs	r0, #1
200060fa:	e7f8      	b.n	200060ee <cdcd_control_xfer_cb+0x126>
200060fc:	2001      	movs	r0, #1
200060fe:	e7f6      	b.n	200060ee <cdcd_control_xfer_cb+0x126>
20006100:	20008150 	.word	0x20008150
20006104:	200044c5 	.word	0x200044c5
	...

20006110 <cdcd_xfer_cb>:
20006110:	b5f0      	push	{r4, r5, r6, r7, lr}
20006112:	46ce      	mov	lr, r9
20006114:	4647      	mov	r7, r8
20006116:	b580      	push	{r7, lr}
20006118:	b083      	sub	sp, #12
2000611a:	9001      	str	r0, [sp, #4]
2000611c:	000e      	movs	r6, r1
2000611e:	9300      	str	r3, [sp, #0]
20006120:	2400      	movs	r4, #0
20006122:	2c00      	cmp	r4, #0
20006124:	d010      	beq.n	20006148 <cdcd_xfer_cb+0x38>
20006126:	2c00      	cmp	r4, #0
20006128:	d000      	beq.n	2000612c <cdcd_xfer_cb+0x1c>
2000612a:	e07d      	b.n	20006228 <cdcd_xfer_cb+0x118>
2000612c:	46a0      	mov	r8, r4
2000612e:	78eb      	ldrb	r3, [r5, #3]
20006130:	42b3      	cmp	r3, r6
20006132:	d016      	beq.n	20006162 <cdcd_xfer_cb+0x52>
20006134:	78ab      	ldrb	r3, [r5, #2]
20006136:	42b3      	cmp	r3, r6
20006138:	d04d      	beq.n	200061d6 <cdcd_xfer_cb+0xc6>
2000613a:	2401      	movs	r4, #1
2000613c:	0020      	movs	r0, r4
2000613e:	b003      	add	sp, #12
20006140:	bcc0      	pop	{r6, r7}
20006142:	46b9      	mov	r9, r7
20006144:	46b0      	mov	r8, r6
20006146:	bdf0      	pop	{r4, r5, r6, r7, pc}
20006148:	25c8      	movs	r5, #200	@ 0xc8
2000614a:	4365      	muls	r5, r4
2000614c:	4b39      	ldr	r3, [pc, #228]	@ (20006234 <cdcd_xfer_cb+0x124>)
2000614e:	18ed      	adds	r5, r5, r3
20006150:	78eb      	ldrb	r3, [r5, #3]
20006152:	42b3      	cmp	r3, r6
20006154:	d0e7      	beq.n	20006126 <cdcd_xfer_cb+0x16>
20006156:	78ab      	ldrb	r3, [r5, #2]
20006158:	42b3      	cmp	r3, r6
2000615a:	d0e4      	beq.n	20006126 <cdcd_xfer_cb+0x16>
2000615c:	3401      	adds	r4, #1
2000615e:	b2e4      	uxtb	r4, r4
20006160:	e7df      	b.n	20006122 <cdcd_xfer_cb+0x12>
20006162:	2310      	movs	r3, #16
20006164:	469c      	mov	ip, r3
20006166:	44ac      	add	ip, r5
20006168:	4660      	mov	r0, ip
2000616a:	46e1      	mov	r9, ip
2000616c:	01e1      	lsls	r1, r4, #7
2000616e:	4b32      	ldr	r3, [pc, #200]	@ (20006238 <cdcd_xfer_cb+0x128>)
20006170:	18c9      	adds	r1, r1, r3
20006172:	466b      	mov	r3, sp
20006174:	881a      	ldrh	r2, [r3, #0]
20006176:	f000 fe4a 	bl	20006e0e <tu_fifo_write_n>
2000617a:	4b30      	ldr	r3, [pc, #192]	@ (2000623c <cdcd_xfer_cb+0x12c>)
2000617c:	2b00      	cmp	r3, #0
2000617e:	d01a      	beq.n	200061b6 <cdcd_xfer_cb+0xa6>
20006180:	796b      	ldrb	r3, [r5, #5]
20006182:	2bff      	cmp	r3, #255	@ 0xff
20006184:	d017      	beq.n	200061b6 <cdcd_xfer_cb+0xa6>
20006186:	2700      	movs	r7, #0
20006188:	e000      	b.n	2000618c <cdcd_xfer_cb+0x7c>
2000618a:	3701      	adds	r7, #1
2000618c:	9b00      	ldr	r3, [sp, #0]
2000618e:	429f      	cmp	r7, r3
20006190:	d211      	bcs.n	200061b6 <cdcd_xfer_cb+0xa6>
20006192:	796a      	ldrb	r2, [r5, #5]
20006194:	4b28      	ldr	r3, [pc, #160]	@ (20006238 <cdcd_xfer_cb+0x128>)
20006196:	4641      	mov	r1, r8
20006198:	01c9      	lsls	r1, r1, #7
2000619a:	185b      	adds	r3, r3, r1
2000619c:	5ddb      	ldrb	r3, [r3, r7]
2000619e:	429a      	cmp	r2, r3
200061a0:	d1f3      	bne.n	2000618a <cdcd_xfer_cb+0x7a>
200061a2:	4648      	mov	r0, r9
200061a4:	f000 fda5 	bl	20006cf2 <tu_fifo_empty>
200061a8:	2800      	cmp	r0, #0
200061aa:	d1ee      	bne.n	2000618a <cdcd_xfer_cb+0x7a>
200061ac:	7969      	ldrb	r1, [r5, #5]
200061ae:	0020      	movs	r0, r4
200061b0:	e000      	b.n	200061b4 <cdcd_xfer_cb+0xa4>
200061b2:	bf00      	nop
200061b4:	e7e9      	b.n	2000618a <cdcd_xfer_cb+0x7a>
200061b6:	4b22      	ldr	r3, [pc, #136]	@ (20006240 <cdcd_xfer_cb+0x130>)
200061b8:	2b00      	cmp	r3, #0
200061ba:	d004      	beq.n	200061c6 <cdcd_xfer_cb+0xb6>
200061bc:	4648      	mov	r0, r9
200061be:	f000 fd98 	bl	20006cf2 <tu_fifo_empty>
200061c2:	2800      	cmp	r0, #0
200061c4:	d003      	beq.n	200061ce <cdcd_xfer_cb+0xbe>
200061c6:	0020      	movs	r0, r4
200061c8:	f7ff fcda 	bl	20005b80 <_prep_out_transaction>
200061cc:	e7b2      	b.n	20006134 <cdcd_xfer_cb+0x24>
200061ce:	0020      	movs	r0, r4
200061d0:	e000      	b.n	200061d4 <cdcd_xfer_cb+0xc4>
200061d2:	bf00      	nop
200061d4:	e7f7      	b.n	200061c6 <cdcd_xfer_cb+0xb6>
200061d6:	4b1b      	ldr	r3, [pc, #108]	@ (20006244 <cdcd_xfer_cb+0x134>)
200061d8:	2b00      	cmp	r3, #0
200061da:	d002      	beq.n	200061e2 <cdcd_xfer_cb+0xd2>
200061dc:	0020      	movs	r0, r4
200061de:	e000      	b.n	200061e2 <cdcd_xfer_cb+0xd2>
200061e0:	bf00      	nop
200061e2:	0020      	movs	r0, r4
200061e4:	f7ff fd5a 	bl	20005c9c <tud_cdc_n_write_flush>
200061e8:	2800      	cmp	r0, #0
200061ea:	d001      	beq.n	200061f0 <cdcd_xfer_cb+0xe0>
200061ec:	2401      	movs	r4, #1
200061ee:	e7a5      	b.n	2000613c <cdcd_xfer_cb+0x2c>
200061f0:	0028      	movs	r0, r5
200061f2:	3024      	adds	r0, #36	@ 0x24
200061f4:	f000 fd67 	bl	20006cc6 <tu_fifo_count>
200061f8:	2800      	cmp	r0, #0
200061fa:	d117      	bne.n	2000622c <cdcd_xfer_cb+0x11c>
200061fc:	9b00      	ldr	r3, [sp, #0]
200061fe:	2b00      	cmp	r3, #0
20006200:	d016      	beq.n	20006230 <cdcd_xfer_cb+0x120>
20006202:	069b      	lsls	r3, r3, #26
20006204:	d001      	beq.n	2000620a <cdcd_xfer_cb+0xfa>
20006206:	2401      	movs	r4, #1
20006208:	e798      	b.n	2000613c <cdcd_xfer_cb+0x2c>
2000620a:	78a9      	ldrb	r1, [r5, #2]
2000620c:	9801      	ldr	r0, [sp, #4]
2000620e:	f7ff f873 	bl	200052f8 <usbd_edpt_claim>
20006212:	1e04      	subs	r4, r0, #0
20006214:	d101      	bne.n	2000621a <cdcd_xfer_cb+0x10a>
20006216:	2401      	movs	r4, #1
20006218:	e790      	b.n	2000613c <cdcd_xfer_cb+0x2c>
2000621a:	78a9      	ldrb	r1, [r5, #2]
2000621c:	2300      	movs	r3, #0
2000621e:	2200      	movs	r2, #0
20006220:	9801      	ldr	r0, [sp, #4]
20006222:	f7ff f891 	bl	20005348 <usbd_edpt_xfer>
20006226:	e789      	b.n	2000613c <cdcd_xfer_cb+0x2c>
20006228:	2400      	movs	r4, #0
2000622a:	e787      	b.n	2000613c <cdcd_xfer_cb+0x2c>
2000622c:	2401      	movs	r4, #1
2000622e:	e785      	b.n	2000613c <cdcd_xfer_cb+0x2c>
20006230:	2401      	movs	r4, #1
20006232:	e783      	b.n	2000613c <cdcd_xfer_cb+0x2c>
20006234:	20008150 	.word	0x20008150
20006238:	200080cc 	.word	0x200080cc
	...

20006248 <tud_vendor_n_mounted>:
20006248:	2800      	cmp	r0, #0
2000624a:	d117      	bne.n	2000627c <tud_vendor_n_mounted+0x34>
2000624c:	4b0c      	ldr	r3, [pc, #48]	@ (20006280 <tud_vendor_n_mounted+0x38>)
2000624e:	2293      	movs	r2, #147	@ 0x93
20006250:	0092      	lsls	r2, r2, #2
20006252:	4342      	muls	r2, r0
20006254:	189b      	adds	r3, r3, r2
20006256:	332a      	adds	r3, #42	@ 0x2a
20006258:	33ff      	adds	r3, #255	@ 0xff
2000625a:	781b      	ldrb	r3, [r3, #0]
2000625c:	2b00      	cmp	r3, #0
2000625e:	d109      	bne.n	20006274 <tud_vendor_n_mounted+0x2c>
20006260:	4b07      	ldr	r3, [pc, #28]	@ (20006280 <tud_vendor_n_mounted+0x38>)
20006262:	2293      	movs	r2, #147	@ 0x93
20006264:	0092      	lsls	r2, r2, #2
20006266:	4342      	muls	r2, r0
20006268:	189b      	adds	r3, r3, r2
2000626a:	795b      	ldrb	r3, [r3, #5]
2000626c:	2b00      	cmp	r3, #0
2000626e:	d003      	beq.n	20006278 <tud_vendor_n_mounted+0x30>
20006270:	3001      	adds	r0, #1
20006272:	e004      	b.n	2000627e <tud_vendor_n_mounted+0x36>
20006274:	2001      	movs	r0, #1
20006276:	e002      	b.n	2000627e <tud_vendor_n_mounted+0x36>
20006278:	2000      	movs	r0, #0
2000627a:	e000      	b.n	2000627e <tud_vendor_n_mounted+0x36>
2000627c:	2000      	movs	r0, #0
2000627e:	4770      	bx	lr
20006280:	20008414 	.word	0x20008414

20006284 <tud_vendor_n_write_flush>:
20006284:	b510      	push	{r4, lr}
20006286:	2800      	cmp	r0, #0
20006288:	d001      	beq.n	2000628e <tud_vendor_n_write_flush+0xa>
2000628a:	2000      	movs	r0, #0
2000628c:	bd10      	pop	{r4, pc}
2000628e:	2193      	movs	r1, #147	@ 0x93
20006290:	0089      	lsls	r1, r1, #2
20006292:	4341      	muls	r1, r0
20006294:	4b02      	ldr	r3, [pc, #8]	@ (200062a0 <tud_vendor_n_write_flush+0x1c>)
20006296:	18c9      	adds	r1, r1, r3
20006298:	3104      	adds	r1, #4
2000629a:	f000 faab 	bl	200067f4 <tu_edpt_stream_write_xfer>
2000629e:	e7f5      	b.n	2000628c <tud_vendor_n_write_flush+0x8>
200062a0:	20008414 	.word	0x20008414

200062a4 <vendord_init>:
200062a4:	b5f0      	push	{r4, r5, r6, r7, lr}
200062a6:	b087      	sub	sp, #28
200062a8:	481f      	ldr	r0, [pc, #124]	@ (20006328 <vendord_init+0x84>)
200062aa:	2293      	movs	r2, #147	@ 0x93
200062ac:	0092      	lsls	r2, r2, #2
200062ae:	2100      	movs	r1, #0
200062b0:	f7fc fe0c 	bl	20002ecc <__wrap_memset>
200062b4:	2500      	movs	r5, #0
200062b6:	2d00      	cmp	r5, #0
200062b8:	d001      	beq.n	200062be <vendord_init+0x1a>
200062ba:	b007      	add	sp, #28
200062bc:	bdf0      	pop	{r4, r5, r6, r7, pc}
200062be:	2493      	movs	r4, #147	@ 0x93
200062c0:	00a4      	lsls	r4, r4, #2
200062c2:	436c      	muls	r4, r5
200062c4:	0023      	movs	r3, r4
200062c6:	3349      	adds	r3, #73	@ 0x49
200062c8:	33ff      	adds	r3, #255	@ 0xff
200062ca:	4f17      	ldr	r7, [pc, #92]	@ (20006328 <vendord_init+0x84>)
200062cc:	19db      	adds	r3, r3, r7
200062ce:	3304      	adds	r3, #4
200062d0:	01ee      	lsls	r6, r5, #7
200062d2:	4a16      	ldr	r2, [pc, #88]	@ (2000632c <vendord_init+0x88>)
200062d4:	9205      	str	r2, [sp, #20]
200062d6:	18b2      	adds	r2, r6, r2
200062d8:	0020      	movs	r0, r4
200062da:	3029      	adds	r0, #41	@ 0x29
200062dc:	30ff      	adds	r0, #255	@ 0xff
200062de:	19c0      	adds	r0, r0, r7
200062e0:	2140      	movs	r1, #64	@ 0x40
200062e2:	9103      	str	r1, [sp, #12]
200062e4:	9202      	str	r2, [sp, #8]
200062e6:	31c0      	adds	r1, #192	@ 0xc0
200062e8:	9101      	str	r1, [sp, #4]
200062ea:	9300      	str	r3, [sp, #0]
200062ec:	2300      	movs	r3, #0
200062ee:	2200      	movs	r2, #0
200062f0:	2100      	movs	r1, #0
200062f2:	f000 fa16 	bl	20006722 <tu_edpt_stream_init>
200062f6:	0023      	movs	r3, r4
200062f8:	3320      	adds	r3, #32
200062fa:	19db      	adds	r3, r3, r7
200062fc:	3308      	adds	r3, #8
200062fe:	3640      	adds	r6, #64	@ 0x40
20006300:	9a05      	ldr	r2, [sp, #20]
20006302:	4694      	mov	ip, r2
20006304:	4466      	add	r6, ip
20006306:	19e0      	adds	r0, r4, r7
20006308:	3004      	adds	r0, #4
2000630a:	2140      	movs	r1, #64	@ 0x40
2000630c:	9103      	str	r1, [sp, #12]
2000630e:	9602      	str	r6, [sp, #8]
20006310:	31c0      	adds	r1, #192	@ 0xc0
20006312:	9101      	str	r1, [sp, #4]
20006314:	9300      	str	r3, [sp, #0]
20006316:	2300      	movs	r3, #0
20006318:	2201      	movs	r2, #1
2000631a:	2100      	movs	r1, #0
2000631c:	f000 fa01 	bl	20006722 <tu_edpt_stream_init>
20006320:	3501      	adds	r5, #1
20006322:	b2ed      	uxtb	r5, r5
20006324:	e7c7      	b.n	200062b6 <vendord_init+0x12>
20006326:	46c0      	nop			@ (mov r8, r8)
20006328:	20008414 	.word	0x20008414
2000632c:	20008394 	.word	0x20008394

20006330 <vendord_deinit>:
20006330:	b570      	push	{r4, r5, r6, lr}
20006332:	2500      	movs	r5, #0
20006334:	2d00      	cmp	r5, #0
20006336:	d001      	beq.n	2000633c <vendord_deinit+0xc>
20006338:	2001      	movs	r0, #1
2000633a:	bd70      	pop	{r4, r5, r6, pc}
2000633c:	2493      	movs	r4, #147	@ 0x93
2000633e:	00a4      	lsls	r4, r4, #2
20006340:	436c      	muls	r4, r5
20006342:	0020      	movs	r0, r4
20006344:	3029      	adds	r0, #41	@ 0x29
20006346:	30ff      	adds	r0, #255	@ 0xff
20006348:	4e05      	ldr	r6, [pc, #20]	@ (20006360 <vendord_deinit+0x30>)
2000634a:	1980      	adds	r0, r0, r6
2000634c:	f000 fa18 	bl	20006780 <tu_edpt_stream_deinit>
20006350:	19a0      	adds	r0, r4, r6
20006352:	3004      	adds	r0, #4
20006354:	f000 fa14 	bl	20006780 <tu_edpt_stream_deinit>
20006358:	3501      	adds	r5, #1
2000635a:	b2ed      	uxtb	r5, r5
2000635c:	e7ea      	b.n	20006334 <vendord_deinit+0x4>
2000635e:	46c0      	nop			@ (mov r8, r8)
20006360:	20008414 	.word	0x20008414

20006364 <vendord_reset>:
20006364:	b5f8      	push	{r3, r4, r5, r6, r7, lr}
20006366:	2500      	movs	r5, #0
20006368:	2d00      	cmp	r5, #0
2000636a:	d000      	beq.n	2000636e <vendord_reset+0xa>
2000636c:	bdf8      	pop	{r3, r4, r5, r6, r7, pc}
2000636e:	2493      	movs	r4, #147	@ 0x93
20006370:	00a4      	lsls	r4, r4, #2
20006372:	436c      	muls	r4, r5
20006374:	4f0b      	ldr	r7, [pc, #44]	@ (200063a4 <vendord_reset+0x40>)
20006376:	19e6      	adds	r6, r4, r7
20006378:	2200      	movs	r2, #0
2000637a:	7032      	strb	r2, [r6, #0]
2000637c:	0020      	movs	r0, r4
2000637e:	3031      	adds	r0, #49	@ 0x31
20006380:	30ff      	adds	r0, #255	@ 0xff
20006382:	19c0      	adds	r0, r0, r7
20006384:	f000 fd48 	bl	20006e18 <tu_fifo_clear>
20006388:	3408      	adds	r4, #8
2000638a:	19e0      	adds	r0, r4, r7
2000638c:	3004      	adds	r0, #4
2000638e:	f000 fd43 	bl	20006e18 <tu_fifo_clear>
20006392:	0033      	movs	r3, r6
20006394:	332a      	adds	r3, #42	@ 0x2a
20006396:	33ff      	adds	r3, #255	@ 0xff
20006398:	2200      	movs	r2, #0
2000639a:	701a      	strb	r2, [r3, #0]
2000639c:	7172      	strb	r2, [r6, #5]
2000639e:	3501      	adds	r5, #1
200063a0:	b2ed      	uxtb	r5, r5
200063a2:	e7e1      	b.n	20006368 <vendord_reset+0x4>
200063a4:	20008414 	.word	0x20008414

200063a8 <vendord_open>:
200063a8:	b5f0      	push	{r4, r5, r6, r7, lr}
200063aa:	b083      	sub	sp, #12
200063ac:	9000      	str	r0, [sp, #0]
200063ae:	000e      	movs	r6, r1
200063b0:	794b      	ldrb	r3, [r1, #5]
200063b2:	2bff      	cmp	r3, #255	@ 0xff
200063b4:	d17b      	bne.n	200064ae <vendord_open+0x106>
200063b6:	780c      	ldrb	r4, [r1, #0]
200063b8:	190c      	adds	r4, r1, r4
200063ba:	18a5      	adds	r5, r4, r2
200063bc:	2700      	movs	r7, #0
200063be:	2f00      	cmp	r7, #0
200063c0:	d001      	beq.n	200063c6 <vendord_open+0x1e>
200063c2:	2000      	movs	r0, #0
200063c4:	e074      	b.n	200064b0 <vendord_open+0x108>
200063c6:	0038      	movs	r0, r7
200063c8:	f7ff ff3e 	bl	20006248 <tud_vendor_n_mounted>
200063cc:	2800      	cmp	r0, #0
200063ce:	d002      	beq.n	200063d6 <vendord_open+0x2e>
200063d0:	3701      	adds	r7, #1
200063d2:	b2ff      	uxtb	r7, r7
200063d4:	e7f3      	b.n	200063be <vendord_open+0x16>
200063d6:	2393      	movs	r3, #147	@ 0x93
200063d8:	009b      	lsls	r3, r3, #2
200063da:	437b      	muls	r3, r7
200063dc:	4a35      	ldr	r2, [pc, #212]	@ (200064b4 <vendord_open+0x10c>)
200063de:	189b      	adds	r3, r3, r2
200063e0:	001a      	movs	r2, r3
200063e2:	9301      	str	r3, [sp, #4]
200063e4:	78b3      	ldrb	r3, [r6, #2]
200063e6:	7013      	strb	r3, [r2, #0]
200063e8:	e032      	b.n	20006450 <vendord_open+0xa8>
200063ea:	42ac      	cmp	r4, r5
200063ec:	d25c      	bcs.n	200064a8 <vendord_open+0x100>
200063ee:	0021      	movs	r1, r4
200063f0:	9800      	ldr	r0, [sp, #0]
200063f2:	f7fe ff39 	bl	20005268 <usbd_edpt_open>
200063f6:	2800      	cmp	r0, #0
200063f8:	d05a      	beq.n	200064b0 <vendord_open+0x108>
200063fa:	3701      	adds	r7, #1
200063fc:	b2ff      	uxtb	r7, r7
200063fe:	78a3      	ldrb	r3, [r4, #2]
20006400:	09db      	lsrs	r3, r3, #7
20006402:	2b01      	cmp	r3, #1
20006404:	d02f      	beq.n	20006466 <vendord_open+0xbe>
20006406:	9801      	ldr	r0, [sp, #4]
20006408:	3031      	adds	r0, #49	@ 0x31
2000640a:	30ff      	adds	r0, #255	@ 0xff
2000640c:	f000 fd04 	bl	20006e18 <tu_fifo_clear>
20006410:	78a1      	ldrb	r1, [r4, #2]
20006412:	2294      	movs	r2, #148	@ 0x94
20006414:	0052      	lsls	r2, r2, #1
20006416:	9801      	ldr	r0, [sp, #4]
20006418:	1883      	adds	r3, r0, r2
2000641a:	7059      	strb	r1, [r3, #1]
2000641c:	7921      	ldrb	r1, [r4, #4]
2000641e:	7963      	ldrb	r3, [r4, #5]
20006420:	021b      	lsls	r3, r3, #8
20006422:	430b      	orrs	r3, r1
20006424:	055b      	lsls	r3, r3, #21
20006426:	0d5b      	lsrs	r3, r3, #21
20006428:	4923      	ldr	r1, [pc, #140]	@ (200064b8 <vendord_open+0x110>)
2000642a:	468c      	mov	ip, r1
2000642c:	4463      	add	r3, ip
2000642e:	4259      	negs	r1, r3
20006430:	414b      	adcs	r3, r1
20006432:	005b      	lsls	r3, r3, #1
20006434:	5c81      	ldrb	r1, [r0, r2]
20006436:	2002      	movs	r0, #2
20006438:	4381      	bics	r1, r0
2000643a:	430b      	orrs	r3, r1
2000643c:	9801      	ldr	r0, [sp, #4]
2000643e:	5483      	strb	r3, [r0, r2]
20006440:	1881      	adds	r1, r0, r2
20006442:	9800      	ldr	r0, [sp, #0]
20006444:	f000 fa0e 	bl	20006864 <tu_edpt_stream_read_xfer>
20006448:	2800      	cmp	r0, #0
2000644a:	d031      	beq.n	200064b0 <vendord_open+0x108>
2000644c:	7823      	ldrb	r3, [r4, #0]
2000644e:	18e4      	adds	r4, r4, r3
20006450:	7933      	ldrb	r3, [r6, #4]
20006452:	42bb      	cmp	r3, r7
20006454:	d928      	bls.n	200064a8 <vendord_open+0x100>
20006456:	7863      	ldrb	r3, [r4, #1]
20006458:	2b05      	cmp	r3, #5
2000645a:	d0c6      	beq.n	200063ea <vendord_open+0x42>
2000645c:	42ac      	cmp	r4, r5
2000645e:	d2c4      	bcs.n	200063ea <vendord_open+0x42>
20006460:	7823      	ldrb	r3, [r4, #0]
20006462:	18e4      	adds	r4, r4, r3
20006464:	e7f7      	b.n	20006456 <vendord_open+0xae>
20006466:	9801      	ldr	r0, [sp, #4]
20006468:	300c      	adds	r0, #12
2000646a:	f000 fcd5 	bl	20006e18 <tu_fifo_clear>
2000646e:	78a3      	ldrb	r3, [r4, #2]
20006470:	9801      	ldr	r0, [sp, #4]
20006472:	7143      	strb	r3, [r0, #5]
20006474:	7922      	ldrb	r2, [r4, #4]
20006476:	7963      	ldrb	r3, [r4, #5]
20006478:	021b      	lsls	r3, r3, #8
2000647a:	4313      	orrs	r3, r2
2000647c:	055b      	lsls	r3, r3, #21
2000647e:	0d5b      	lsrs	r3, r3, #21
20006480:	4a0d      	ldr	r2, [pc, #52]	@ (200064b8 <vendord_open+0x110>)
20006482:	4694      	mov	ip, r2
20006484:	4463      	add	r3, ip
20006486:	425a      	negs	r2, r3
20006488:	4153      	adcs	r3, r2
2000648a:	005b      	lsls	r3, r3, #1
2000648c:	7902      	ldrb	r2, [r0, #4]
2000648e:	2102      	movs	r1, #2
20006490:	438a      	bics	r2, r1
20006492:	4313      	orrs	r3, r2
20006494:	7103      	strb	r3, [r0, #4]
20006496:	4b07      	ldr	r3, [pc, #28]	@ (200064b4 <vendord_open+0x10c>)
20006498:	1ac3      	subs	r3, r0, r3
2000649a:	109b      	asrs	r3, r3, #2
2000649c:	4807      	ldr	r0, [pc, #28]	@ (200064bc <vendord_open+0x114>)
2000649e:	4358      	muls	r0, r3
200064a0:	b2c0      	uxtb	r0, r0
200064a2:	f7ff feef 	bl	20006284 <tud_vendor_n_write_flush>
200064a6:	e7d1      	b.n	2000644c <vendord_open+0xa4>
200064a8:	1ba0      	subs	r0, r4, r6
200064aa:	b280      	uxth	r0, r0
200064ac:	e000      	b.n	200064b0 <vendord_open+0x108>
200064ae:	2000      	movs	r0, #0
200064b0:	b003      	add	sp, #12
200064b2:	bdf0      	pop	{r4, r5, r6, r7, pc}
200064b4:	20008414 	.word	0x20008414
200064b8:	fffffe00 	.word	0xfffffe00
200064bc:	08b51d9b 	.word	0x08b51d9b

200064c0 <vendord_xfer_cb>:
200064c0:	b5f0      	push	{r4, r5, r6, r7, lr}
200064c2:	b083      	sub	sp, #12
200064c4:	0006      	movs	r6, r0
200064c6:	001f      	movs	r7, r3
200064c8:	2400      	movs	r4, #0
200064ca:	2c00      	cmp	r4, #0
200064cc:	d00c      	beq.n	200064e8 <vendord_xfer_cb+0x28>
200064ce:	2c00      	cmp	r4, #0
200064d0:	d157      	bne.n	20006582 <vendord_xfer_cb+0xc2>
200064d2:	9401      	str	r4, [sp, #4]
200064d4:	232a      	movs	r3, #42	@ 0x2a
200064d6:	33ff      	adds	r3, #255	@ 0xff
200064d8:	5ceb      	ldrb	r3, [r5, r3]
200064da:	428b      	cmp	r3, r1
200064dc:	d015      	beq.n	2000650a <vendord_xfer_cb+0x4a>
200064de:	796b      	ldrb	r3, [r5, #5]
200064e0:	428b      	cmp	r3, r1
200064e2:	d036      	beq.n	20006552 <vendord_xfer_cb+0x92>
200064e4:	2001      	movs	r0, #1
200064e6:	e04d      	b.n	20006584 <vendord_xfer_cb+0xc4>
200064e8:	2593      	movs	r5, #147	@ 0x93
200064ea:	00ad      	lsls	r5, r5, #2
200064ec:	4365      	muls	r5, r4
200064ee:	4b26      	ldr	r3, [pc, #152]	@ (20006588 <vendord_xfer_cb+0xc8>)
200064f0:	18ed      	adds	r5, r5, r3
200064f2:	002b      	movs	r3, r5
200064f4:	332a      	adds	r3, #42	@ 0x2a
200064f6:	33ff      	adds	r3, #255	@ 0xff
200064f8:	781b      	ldrb	r3, [r3, #0]
200064fa:	428b      	cmp	r3, r1
200064fc:	d0e7      	beq.n	200064ce <vendord_xfer_cb+0xe>
200064fe:	796b      	ldrb	r3, [r5, #5]
20006500:	428b      	cmp	r3, r1
20006502:	d0e4      	beq.n	200064ce <vendord_xfer_cb+0xe>
20006504:	3401      	adds	r4, #1
20006506:	b2e4      	uxtb	r4, r4
20006508:	e7df      	b.n	200064ca <vendord_xfer_cb+0xa>
2000650a:	002b      	movs	r3, r5
2000650c:	3331      	adds	r3, #49	@ 0x31
2000650e:	33ff      	adds	r3, #255	@ 0xff
20006510:	889b      	ldrh	r3, [r3, #4]
20006512:	2b00      	cmp	r3, #0
20006514:	d112      	bne.n	2000653c <vendord_xfer_cb+0x7c>
20006516:	4b1d      	ldr	r3, [pc, #116]	@ (2000658c <vendord_xfer_cb+0xcc>)
20006518:	2b00      	cmp	r3, #0
2000651a:	d007      	beq.n	2000652c <vendord_xfer_cb+0x6c>
2000651c:	9b01      	ldr	r3, [sp, #4]
2000651e:	01d9      	lsls	r1, r3, #7
20006520:	4b1b      	ldr	r3, [pc, #108]	@ (20006590 <vendord_xfer_cb+0xd0>)
20006522:	18c9      	adds	r1, r1, r3
20006524:	b2ba      	uxth	r2, r7
20006526:	0020      	movs	r0, r4
20006528:	e000      	b.n	2000652c <vendord_xfer_cb+0x6c>
2000652a:	bf00      	nop
2000652c:	0029      	movs	r1, r5
2000652e:	3129      	adds	r1, #41	@ 0x29
20006530:	31ff      	adds	r1, #255	@ 0xff
20006532:	0030      	movs	r0, r6
20006534:	f000 f996 	bl	20006864 <tu_edpt_stream_read_xfer>
20006538:	2001      	movs	r0, #1
2000653a:	e023      	b.n	20006584 <vendord_xfer_cb+0xc4>
2000653c:	002b      	movs	r3, r5
2000653e:	3329      	adds	r3, #41	@ 0x29
20006540:	33ff      	adds	r3, #255	@ 0xff
20006542:	6859      	ldr	r1, [r3, #4]
20006544:	b2ba      	uxth	r2, r7
20006546:	0028      	movs	r0, r5
20006548:	3031      	adds	r0, #49	@ 0x31
2000654a:	30ff      	adds	r0, #255	@ 0xff
2000654c:	f000 fc5f 	bl	20006e0e <tu_fifo_write_n>
20006550:	e7e1      	b.n	20006516 <vendord_xfer_cb+0x56>
20006552:	4b10      	ldr	r3, [pc, #64]	@ (20006594 <vendord_xfer_cb+0xd4>)
20006554:	2b00      	cmp	r3, #0
20006556:	d004      	beq.n	20006562 <vendord_xfer_cb+0xa2>
20006558:	0439      	lsls	r1, r7, #16
2000655a:	0c09      	lsrs	r1, r1, #16
2000655c:	0020      	movs	r0, r4
2000655e:	e000      	b.n	20006562 <vendord_xfer_cb+0xa2>
20006560:	bf00      	nop
20006562:	3504      	adds	r5, #4
20006564:	0029      	movs	r1, r5
20006566:	0030      	movs	r0, r6
20006568:	f000 f944 	bl	200067f4 <tu_edpt_stream_write_xfer>
2000656c:	2800      	cmp	r0, #0
2000656e:	d001      	beq.n	20006574 <vendord_xfer_cb+0xb4>
20006570:	2001      	movs	r0, #1
20006572:	e007      	b.n	20006584 <vendord_xfer_cb+0xc4>
20006574:	003a      	movs	r2, r7
20006576:	0029      	movs	r1, r5
20006578:	0030      	movs	r0, r6
2000657a:	f000 f903 	bl	20006784 <tu_edpt_stream_write_zlp_if_needed>
2000657e:	2001      	movs	r0, #1
20006580:	e000      	b.n	20006584 <vendord_xfer_cb+0xc4>
20006582:	2000      	movs	r0, #0
20006584:	b003      	add	sp, #12
20006586:	bdf0      	pop	{r4, r5, r6, r7, pc}
20006588:	20008414 	.word	0x20008414
2000658c:	00000000 	.word	0x00000000
20006590:	20008394 	.word	0x20008394
20006594:	00000000 	.word	0x00000000

20006598 <tusb_rhport_init>:
20006598:	b500      	push	{lr}
2000659a:	b083      	sub	sp, #12
2000659c:	2900      	cmp	r1, #0
2000659e:	d00a      	beq.n	200065b6 <tusb_rhport_init+0x1e>
200065a0:	2801      	cmp	r0, #1
200065a2:	d819      	bhi.n	200065d8 <tusb_rhport_init+0x40>
200065a4:	780b      	ldrb	r3, [r1, #0]
200065a6:	2b00      	cmp	r3, #0
200065a8:	d019      	beq.n	200065de <tusb_rhport_init+0x46>
200065aa:	4a0e      	ldr	r2, [pc, #56]	@ (200065e4 <tusb_rhport_init+0x4c>)
200065ac:	5413      	strb	r3, [r2, r0]
200065ae:	2b01      	cmp	r3, #1
200065b0:	d00f      	beq.n	200065d2 <tusb_rhport_init+0x3a>
200065b2:	2001      	movs	r0, #1
200065b4:	e011      	b.n	200065da <tusb_rhport_init+0x42>
200065b6:	a901      	add	r1, sp, #4
200065b8:	2301      	movs	r3, #1
200065ba:	700b      	strb	r3, [r1, #0]
200065bc:	2300      	movs	r3, #0
200065be:	704b      	strb	r3, [r1, #1]
200065c0:	2000      	movs	r0, #0
200065c2:	f7fe fde7 	bl	20005194 <tud_rhport_init>
200065c6:	2800      	cmp	r0, #0
200065c8:	d007      	beq.n	200065da <tusb_rhport_init+0x42>
200065ca:	4b06      	ldr	r3, [pc, #24]	@ (200065e4 <tusb_rhport_init+0x4c>)
200065cc:	2201      	movs	r2, #1
200065ce:	701a      	strb	r2, [r3, #0]
200065d0:	e003      	b.n	200065da <tusb_rhport_init+0x42>
200065d2:	f7fe fddf 	bl	20005194 <tud_rhport_init>
200065d6:	e000      	b.n	200065da <tusb_rhport_init+0x42>
200065d8:	2000      	movs	r0, #0
200065da:	b003      	add	sp, #12
200065dc:	bd00      	pop	{pc}
200065de:	2000      	movs	r0, #0
200065e0:	e7fb      	b.n	200065da <tusb_rhport_init+0x42>
200065e2:	46c0      	nop			@ (mov r8, r8)
200065e4:	2000826c 	.word	0x2000826c

200065e8 <tu_edpt_claim>:
200065e8:	b570      	push	{r4, r5, r6, lr}
200065ea:	0004      	movs	r4, r0
200065ec:	000a      	movs	r2, r1
200065ee:	000d      	movs	r5, r1
200065f0:	7803      	ldrb	r3, [r0, #0]
200065f2:	07db      	lsls	r3, r3, #31
200065f4:	0fd8      	lsrs	r0, r3, #31
200065f6:	2b00      	cmp	r3, #0
200065f8:	d11f      	bne.n	2000663a <tu_edpt_claim+0x52>
200065fa:	7823      	ldrb	r3, [r4, #0]
200065fc:	075b      	lsls	r3, r3, #29
200065fe:	0fd9      	lsrs	r1, r3, #31
20006600:	000e      	movs	r6, r1
20006602:	2b00      	cmp	r3, #0
20006604:	db1a      	blt.n	2000663c <tu_edpt_claim+0x54>
20006606:	2101      	movs	r1, #1
20006608:	4249      	negs	r1, r1
2000660a:	0010      	movs	r0, r2
2000660c:	f7f9 fe60 	bl	200002d0 <mutex_enter_timeout_ms>
20006610:	7823      	ldrb	r3, [r4, #0]
20006612:	07db      	lsls	r3, r3, #31
20006614:	0fda      	lsrs	r2, r3, #31
20006616:	2b00      	cmp	r3, #0
20006618:	d108      	bne.n	2000662c <tu_edpt_claim+0x44>
2000661a:	7823      	ldrb	r3, [r4, #0]
2000661c:	075b      	lsls	r3, r3, #29
2000661e:	d40a      	bmi.n	20006636 <tu_edpt_claim+0x4e>
20006620:	7823      	ldrb	r3, [r4, #0]
20006622:	2204      	movs	r2, #4
20006624:	4313      	orrs	r3, r2
20006626:	7023      	strb	r3, [r4, #0]
20006628:	2301      	movs	r3, #1
2000662a:	001e      	movs	r6, r3
2000662c:	0028      	movs	r0, r5
2000662e:	f7f9 fe6d 	bl	2000030c <mutex_exit>
20006632:	0030      	movs	r0, r6
20006634:	e002      	b.n	2000663c <tu_edpt_claim+0x54>
20006636:	0016      	movs	r6, r2
20006638:	e7f8      	b.n	2000662c <tu_edpt_claim+0x44>
2000663a:	2000      	movs	r0, #0
2000663c:	bd70      	pop	{r4, r5, r6, pc}

2000663e <tu_edpt_release>:
2000663e:	b570      	push	{r4, r5, r6, lr}
20006640:	0004      	movs	r4, r0
20006642:	0006      	movs	r6, r0
20006644:	000a      	movs	r2, r1
20006646:	000d      	movs	r5, r1
20006648:	2101      	movs	r1, #1
2000664a:	4249      	negs	r1, r1
2000664c:	0010      	movs	r0, r2
2000664e:	f7f9 fe3f 	bl	200002d0 <mutex_enter_timeout_ms>
20006652:	7823      	ldrb	r3, [r4, #0]
20006654:	075b      	lsls	r3, r3, #29
20006656:	0fda      	lsrs	r2, r3, #31
20006658:	0014      	movs	r4, r2
2000665a:	2b00      	cmp	r3, #0
2000665c:	db04      	blt.n	20006668 <tu_edpt_release+0x2a>
2000665e:	0028      	movs	r0, r5
20006660:	f7f9 fe54 	bl	2000030c <mutex_exit>
20006664:	0020      	movs	r0, r4
20006666:	bd70      	pop	{r4, r5, r6, pc}
20006668:	7833      	ldrb	r3, [r6, #0]
2000666a:	07db      	lsls	r3, r3, #31
2000666c:	d404      	bmi.n	20006678 <tu_edpt_release+0x3a>
2000666e:	7833      	ldrb	r3, [r6, #0]
20006670:	2204      	movs	r2, #4
20006672:	4393      	bics	r3, r2
20006674:	7033      	strb	r3, [r6, #0]
20006676:	e7f2      	b.n	2000665e <tu_edpt_release+0x20>
20006678:	2300      	movs	r3, #0
2000667a:	001c      	movs	r4, r3
2000667c:	e7ef      	b.n	2000665e <tu_edpt_release+0x20>
	...

20006680 <tu_edpt_validate>:
20006680:	7902      	ldrb	r2, [r0, #4]
20006682:	7943      	ldrb	r3, [r0, #5]
20006684:	021b      	lsls	r3, r3, #8
20006686:	4313      	orrs	r3, r2
20006688:	055b      	lsls	r3, r3, #21
2000668a:	0d5b      	lsrs	r3, r3, #21
2000668c:	78c2      	ldrb	r2, [r0, #3]
2000668e:	0792      	lsls	r2, r2, #30
20006690:	0f92      	lsrs	r2, r2, #30
20006692:	2a02      	cmp	r2, #2
20006694:	d00d      	beq.n	200066b2 <tu_edpt_validate+0x32>
20006696:	2a03      	cmp	r2, #3
20006698:	d017      	beq.n	200066ca <tu_edpt_validate+0x4a>
2000669a:	2a01      	cmp	r2, #1
2000669c:	d11f      	bne.n	200066de <tu_edpt_validate+0x5e>
2000669e:	2902      	cmp	r1, #2
200066a0:	d004      	beq.n	200066ac <tu_edpt_validate+0x2c>
200066a2:	4a14      	ldr	r2, [pc, #80]	@ (200066f4 <tu_edpt_validate+0x74>)
200066a4:	429a      	cmp	r2, r3
200066a6:	d31c      	bcc.n	200066e2 <tu_edpt_validate+0x62>
200066a8:	2001      	movs	r0, #1
200066aa:	e019      	b.n	200066e0 <tu_edpt_validate+0x60>
200066ac:	2280      	movs	r2, #128	@ 0x80
200066ae:	00d2      	lsls	r2, r2, #3
200066b0:	e7f8      	b.n	200066a4 <tu_edpt_validate+0x24>
200066b2:	2902      	cmp	r1, #2
200066b4:	d003      	beq.n	200066be <tu_edpt_validate+0x3e>
200066b6:	2b40      	cmp	r3, #64	@ 0x40
200066b8:	d817      	bhi.n	200066ea <tu_edpt_validate+0x6a>
200066ba:	2001      	movs	r0, #1
200066bc:	e010      	b.n	200066e0 <tu_edpt_validate+0x60>
200066be:	2280      	movs	r2, #128	@ 0x80
200066c0:	0092      	lsls	r2, r2, #2
200066c2:	4293      	cmp	r3, r2
200066c4:	d10f      	bne.n	200066e6 <tu_edpt_validate+0x66>
200066c6:	2001      	movs	r0, #1
200066c8:	e00a      	b.n	200066e0 <tu_edpt_validate+0x60>
200066ca:	2902      	cmp	r1, #2
200066cc:	d004      	beq.n	200066d8 <tu_edpt_validate+0x58>
200066ce:	2240      	movs	r2, #64	@ 0x40
200066d0:	429a      	cmp	r2, r3
200066d2:	d30c      	bcc.n	200066ee <tu_edpt_validate+0x6e>
200066d4:	2001      	movs	r0, #1
200066d6:	e003      	b.n	200066e0 <tu_edpt_validate+0x60>
200066d8:	2280      	movs	r2, #128	@ 0x80
200066da:	00d2      	lsls	r2, r2, #3
200066dc:	e7f8      	b.n	200066d0 <tu_edpt_validate+0x50>
200066de:	2000      	movs	r0, #0
200066e0:	4770      	bx	lr
200066e2:	2000      	movs	r0, #0
200066e4:	e7fc      	b.n	200066e0 <tu_edpt_validate+0x60>
200066e6:	2000      	movs	r0, #0
200066e8:	e7fa      	b.n	200066e0 <tu_edpt_validate+0x60>
200066ea:	2000      	movs	r0, #0
200066ec:	e7f8      	b.n	200066e0 <tu_edpt_validate+0x60>
200066ee:	2000      	movs	r0, #0
200066f0:	e7f6      	b.n	200066e0 <tu_edpt_validate+0x60>
200066f2:	46c0      	nop			@ (mov r8, r8)
200066f4:	000003ff 	.word	0x000003ff

200066f8 <tu_edpt_bind_driver>:
200066f8:	b510      	push	{r4, lr}
200066fa:	4684      	mov	ip, r0
200066fc:	001c      	movs	r4, r3
200066fe:	188b      	adds	r3, r1, r2
20006700:	e001      	b.n	20006706 <tu_edpt_bind_driver+0xe>
20006702:	780a      	ldrb	r2, [r1, #0]
20006704:	1889      	adds	r1, r1, r2
20006706:	4299      	cmp	r1, r3
20006708:	d20a      	bcs.n	20006720 <tu_edpt_bind_driver+0x28>
2000670a:	784a      	ldrb	r2, [r1, #1]
2000670c:	2a05      	cmp	r2, #5
2000670e:	d1f8      	bne.n	20006702 <tu_edpt_bind_driver+0xa>
20006710:	7888      	ldrb	r0, [r1, #2]
20006712:	327a      	adds	r2, #122	@ 0x7a
20006714:	4002      	ands	r2, r0
20006716:	0052      	lsls	r2, r2, #1
20006718:	4462      	add	r2, ip
2000671a:	09c0      	lsrs	r0, r0, #7
2000671c:	5414      	strb	r4, [r2, r0]
2000671e:	e7f0      	b.n	20006702 <tu_edpt_bind_driver+0xa>
20006720:	bd10      	pop	{r4, pc}

20006722 <tu_edpt_stream_init>:
20006722:	b5f0      	push	{r4, r5, r6, r7, lr}
20006724:	b085      	sub	sp, #20
20006726:	0004      	movs	r4, r0
20006728:	9203      	str	r2, [sp, #12]
2000672a:	aa0a      	add	r2, sp, #40	@ 0x28
2000672c:	ca20      	ldmia	r2!, {r5}
2000672e:	8816      	ldrh	r6, [r2, #0]
20006730:	aa0d      	add	r2, sp, #52	@ 0x34
20006732:	8817      	ldrh	r7, [r2, #0]
20006734:	2201      	movs	r2, #1
20006736:	400a      	ands	r2, r1
20006738:	7801      	ldrb	r1, [r0, #0]
2000673a:	2001      	movs	r0, #1
2000673c:	4381      	bics	r1, r0
2000673e:	4311      	orrs	r1, r2
20006740:	7021      	strb	r1, [r4, #0]
20006742:	0020      	movs	r0, r4
20006744:	3008      	adds	r0, #8
20006746:	9300      	str	r3, [sp, #0]
20006748:	2301      	movs	r3, #1
2000674a:	0032      	movs	r2, r6
2000674c:	0029      	movs	r1, r5
2000674e:	f000 fa79 	bl	20006c44 <tu_fifo_config>
20006752:	2d00      	cmp	r5, #0
20006754:	d001      	beq.n	2000675a <tu_edpt_stream_init+0x38>
20006756:	2e00      	cmp	r6, #0
20006758:	d105      	bne.n	20006766 <tu_edpt_stream_init+0x44>
2000675a:	9b0c      	ldr	r3, [sp, #48]	@ 0x30
2000675c:	6063      	str	r3, [r4, #4]
2000675e:	8067      	strh	r7, [r4, #2]
20006760:	2001      	movs	r0, #1
20006762:	b005      	add	sp, #20
20006764:	bdf0      	pop	{r4, r5, r6, r7, pc}
20006766:	0025      	movs	r5, r4
20006768:	351c      	adds	r5, #28
2000676a:	0028      	movs	r0, r5
2000676c:	f7fa fd50 	bl	20001210 <mutex_init>
20006770:	9b03      	ldr	r3, [sp, #12]
20006772:	2b00      	cmp	r3, #0
20006774:	d001      	beq.n	2000677a <tu_edpt_stream_init+0x58>
20006776:	002b      	movs	r3, r5
20006778:	2500      	movs	r5, #0
2000677a:	6163      	str	r3, [r4, #20]
2000677c:	61a5      	str	r5, [r4, #24]
2000677e:	e7ec      	b.n	2000675a <tu_edpt_stream_init+0x38>

20006780 <tu_edpt_stream_deinit>:
20006780:	2001      	movs	r0, #1
20006782:	4770      	bx	lr

20006784 <tu_edpt_stream_write_zlp_if_needed>:
20006784:	b5f8      	push	{r3, r4, r5, r6, r7, lr}
20006786:	0007      	movs	r7, r0
20006788:	000c      	movs	r4, r1
2000678a:	0015      	movs	r5, r2
2000678c:	780b      	ldrb	r3, [r1, #0]
2000678e:	079b      	lsls	r3, r3, #30
20006790:	d513      	bpl.n	200067ba <tu_edpt_stream_write_zlp_if_needed+0x36>
20006792:	2380      	movs	r3, #128	@ 0x80
20006794:	009b      	lsls	r3, r3, #2
20006796:	001e      	movs	r6, r3
20006798:	0020      	movs	r0, r4
2000679a:	3008      	adds	r0, #8
2000679c:	f000 fa93 	bl	20006cc6 <tu_fifo_count>
200067a0:	2800      	cmp	r0, #0
200067a2:	d121      	bne.n	200067e8 <tu_edpt_stream_write_zlp_if_needed+0x64>
200067a4:	2d00      	cmp	r5, #0
200067a6:	d021      	beq.n	200067ec <tu_edpt_stream_write_zlp_if_needed+0x68>
200067a8:	0033      	movs	r3, r6
200067aa:	3b01      	subs	r3, #1
200067ac:	421d      	tst	r5, r3
200067ae:	d11f      	bne.n	200067f0 <tu_edpt_stream_write_zlp_if_needed+0x6c>
200067b0:	7823      	ldrb	r3, [r4, #0]
200067b2:	07db      	lsls	r3, r3, #31
200067b4:	d504      	bpl.n	200067c0 <tu_edpt_stream_write_zlp_if_needed+0x3c>
200067b6:	2000      	movs	r0, #0
200067b8:	e017      	b.n	200067ea <tu_edpt_stream_write_zlp_if_needed+0x66>
200067ba:	2340      	movs	r3, #64	@ 0x40
200067bc:	001e      	movs	r6, r3
200067be:	e7eb      	b.n	20006798 <tu_edpt_stream_write_zlp_if_needed+0x14>
200067c0:	7861      	ldrb	r1, [r4, #1]
200067c2:	0038      	movs	r0, r7
200067c4:	f7fe fd98 	bl	200052f8 <usbd_edpt_claim>
200067c8:	2800      	cmp	r0, #0
200067ca:	d0f4      	beq.n	200067b6 <tu_edpt_stream_write_zlp_if_needed+0x32>
200067cc:	7823      	ldrb	r3, [r4, #0]
200067ce:	07db      	lsls	r3, r3, #31
200067d0:	d501      	bpl.n	200067d6 <tu_edpt_stream_write_zlp_if_needed+0x52>
200067d2:	2000      	movs	r0, #0
200067d4:	e009      	b.n	200067ea <tu_edpt_stream_write_zlp_if_needed+0x66>
200067d6:	7861      	ldrb	r1, [r4, #1]
200067d8:	2300      	movs	r3, #0
200067da:	2200      	movs	r2, #0
200067dc:	0038      	movs	r0, r7
200067de:	f7fe fdb3 	bl	20005348 <usbd_edpt_xfer>
200067e2:	2800      	cmp	r0, #0
200067e4:	d101      	bne.n	200067ea <tu_edpt_stream_write_zlp_if_needed+0x66>
200067e6:	e7f4      	b.n	200067d2 <tu_edpt_stream_write_zlp_if_needed+0x4e>
200067e8:	2000      	movs	r0, #0
200067ea:	bdf8      	pop	{r3, r4, r5, r6, r7, pc}
200067ec:	2000      	movs	r0, #0
200067ee:	e7fc      	b.n	200067ea <tu_edpt_stream_write_zlp_if_needed+0x66>
200067f0:	2000      	movs	r0, #0
200067f2:	e7fa      	b.n	200067ea <tu_edpt_stream_write_zlp_if_needed+0x66>

200067f4 <tu_edpt_stream_write_xfer>:
200067f4:	b570      	push	{r4, r5, r6, lr}
200067f6:	0005      	movs	r5, r0
200067f8:	000c      	movs	r4, r1
200067fa:	2308      	movs	r3, #8
200067fc:	469c      	mov	ip, r3
200067fe:	448c      	add	ip, r1
20006800:	4663      	mov	r3, ip
20006802:	001e      	movs	r6, r3
20006804:	0018      	movs	r0, r3
20006806:	f000 fa5e 	bl	20006cc6 <tu_fifo_count>
2000680a:	2800      	cmp	r0, #0
2000680c:	d003      	beq.n	20006816 <tu_edpt_stream_write_xfer+0x22>
2000680e:	7823      	ldrb	r3, [r4, #0]
20006810:	07db      	lsls	r3, r3, #31
20006812:	d501      	bpl.n	20006818 <tu_edpt_stream_write_xfer+0x24>
20006814:	2000      	movs	r0, #0
20006816:	bd70      	pop	{r4, r5, r6, pc}
20006818:	7861      	ldrb	r1, [r4, #1]
2000681a:	0028      	movs	r0, r5
2000681c:	f7fe fd6c 	bl	200052f8 <usbd_edpt_claim>
20006820:	2800      	cmp	r0, #0
20006822:	d0f7      	beq.n	20006814 <tu_edpt_stream_write_xfer+0x20>
20006824:	6861      	ldr	r1, [r4, #4]
20006826:	8862      	ldrh	r2, [r4, #2]
20006828:	0030      	movs	r0, r6
2000682a:	f000 fab8 	bl	20006d9e <tu_fifo_read_n>
2000682e:	1e06      	subs	r6, r0, #0
20006830:	d00e      	beq.n	20006850 <tu_edpt_stream_write_xfer+0x5c>
20006832:	7823      	ldrb	r3, [r4, #0]
20006834:	07db      	lsls	r3, r3, #31
20006836:	d501      	bpl.n	2000683c <tu_edpt_stream_write_xfer+0x48>
20006838:	2000      	movs	r0, #0
2000683a:	e7ec      	b.n	20006816 <tu_edpt_stream_write_xfer+0x22>
2000683c:	6862      	ldr	r2, [r4, #4]
2000683e:	7861      	ldrb	r1, [r4, #1]
20006840:	0003      	movs	r3, r0
20006842:	0028      	movs	r0, r5
20006844:	f7fe fd80 	bl	20005348 <usbd_edpt_xfer>
20006848:	2800      	cmp	r0, #0
2000684a:	d0f5      	beq.n	20006838 <tu_edpt_stream_write_xfer+0x44>
2000684c:	0030      	movs	r0, r6
2000684e:	e7e2      	b.n	20006816 <tu_edpt_stream_write_xfer+0x22>
20006850:	7823      	ldrb	r3, [r4, #0]
20006852:	07db      	lsls	r3, r3, #31
20006854:	d501      	bpl.n	2000685a <tu_edpt_stream_write_xfer+0x66>
20006856:	2000      	movs	r0, #0
20006858:	e7dd      	b.n	20006816 <tu_edpt_stream_write_xfer+0x22>
2000685a:	7861      	ldrb	r1, [r4, #1]
2000685c:	0028      	movs	r0, r5
2000685e:	f7fe fd5f 	bl	20005320 <usbd_edpt_release>
20006862:	e7f8      	b.n	20006856 <tu_edpt_stream_write_xfer+0x62>

20006864 <tu_edpt_stream_read_xfer>:
20006864:	b5f8      	push	{r3, r4, r5, r6, r7, lr}
20006866:	0005      	movs	r5, r0
20006868:	000c      	movs	r4, r1
2000686a:	898b      	ldrh	r3, [r1, #12]
2000686c:	2b00      	cmp	r3, #0
2000686e:	d11c      	bne.n	200068aa <tu_edpt_stream_read_xfer+0x46>
20006870:	780b      	ldrb	r3, [r1, #0]
20006872:	07db      	lsls	r3, r3, #31
20006874:	d501      	bpl.n	2000687a <tu_edpt_stream_read_xfer+0x16>
20006876:	2000      	movs	r0, #0
20006878:	bdf8      	pop	{r3, r4, r5, r6, r7, pc}
2000687a:	7849      	ldrb	r1, [r1, #1]
2000687c:	f7fe fd3c 	bl	200052f8 <usbd_edpt_claim>
20006880:	2800      	cmp	r0, #0
20006882:	d0f8      	beq.n	20006876 <tu_edpt_stream_read_xfer+0x12>
20006884:	8863      	ldrh	r3, [r4, #2]
20006886:	7822      	ldrb	r2, [r4, #0]
20006888:	07d2      	lsls	r2, r2, #31
2000688a:	d501      	bpl.n	20006890 <tu_edpt_stream_read_xfer+0x2c>
2000688c:	2000      	movs	r0, #0
2000688e:	e7f3      	b.n	20006878 <tu_edpt_stream_read_xfer+0x14>
20006890:	7861      	ldrb	r1, [r4, #1]
20006892:	2b00      	cmp	r3, #0
20006894:	d007      	beq.n	200068a6 <tu_edpt_stream_read_xfer+0x42>
20006896:	6862      	ldr	r2, [r4, #4]
20006898:	0028      	movs	r0, r5
2000689a:	f7fe fd55 	bl	20005348 <usbd_edpt_xfer>
2000689e:	2800      	cmp	r0, #0
200068a0:	d0f4      	beq.n	2000688c <tu_edpt_stream_read_xfer+0x28>
200068a2:	8860      	ldrh	r0, [r4, #2]
200068a4:	e7e8      	b.n	20006878 <tu_edpt_stream_read_xfer+0x14>
200068a6:	2200      	movs	r2, #0
200068a8:	e7f6      	b.n	20006898 <tu_edpt_stream_read_xfer+0x34>
200068aa:	780b      	ldrb	r3, [r1, #0]
200068ac:	079b      	lsls	r3, r3, #30
200068ae:	d511      	bpl.n	200068d4 <tu_edpt_stream_read_xfer+0x70>
200068b0:	2380      	movs	r3, #128	@ 0x80
200068b2:	009b      	lsls	r3, r3, #2
200068b4:	001e      	movs	r6, r3
200068b6:	2308      	movs	r3, #8
200068b8:	469c      	mov	ip, r3
200068ba:	44a4      	add	ip, r4
200068bc:	4663      	mov	r3, ip
200068be:	001f      	movs	r7, r3
200068c0:	0018      	movs	r0, r3
200068c2:	f000 fa34 	bl	20006d2e <tu_fifo_remaining>
200068c6:	4286      	cmp	r6, r0
200068c8:	d839      	bhi.n	2000693e <tu_edpt_stream_read_xfer+0xda>
200068ca:	7823      	ldrb	r3, [r4, #0]
200068cc:	07db      	lsls	r3, r3, #31
200068ce:	d504      	bpl.n	200068da <tu_edpt_stream_read_xfer+0x76>
200068d0:	2000      	movs	r0, #0
200068d2:	e7d1      	b.n	20006878 <tu_edpt_stream_read_xfer+0x14>
200068d4:	2340      	movs	r3, #64	@ 0x40
200068d6:	001e      	movs	r6, r3
200068d8:	e7ed      	b.n	200068b6 <tu_edpt_stream_read_xfer+0x52>
200068da:	7861      	ldrb	r1, [r4, #1]
200068dc:	0028      	movs	r0, r5
200068de:	f7fe fd0b 	bl	200052f8 <usbd_edpt_claim>
200068e2:	2800      	cmp	r0, #0
200068e4:	d0f4      	beq.n	200068d0 <tu_edpt_stream_read_xfer+0x6c>
200068e6:	0038      	movs	r0, r7
200068e8:	f000 fa21 	bl	20006d2e <tu_fifo_remaining>
200068ec:	4286      	cmp	r6, r0
200068ee:	d81c      	bhi.n	2000692a <tu_edpt_stream_read_xfer+0xc6>
200068f0:	4273      	negs	r3, r6
200068f2:	b29b      	uxth	r3, r3
200068f4:	8862      	ldrh	r2, [r4, #2]
200068f6:	4018      	ands	r0, r3
200068f8:	1c03      	adds	r3, r0, #0
200068fa:	4290      	cmp	r0, r2
200068fc:	d900      	bls.n	20006900 <tu_edpt_stream_read_xfer+0x9c>
200068fe:	1c13      	adds	r3, r2, #0
20006900:	b29b      	uxth	r3, r3
20006902:	001e      	movs	r6, r3
20006904:	7823      	ldrb	r3, [r4, #0]
20006906:	07db      	lsls	r3, r3, #31
20006908:	d501      	bpl.n	2000690e <tu_edpt_stream_read_xfer+0xaa>
2000690a:	2000      	movs	r0, #0
2000690c:	e7b4      	b.n	20006878 <tu_edpt_stream_read_xfer+0x14>
2000690e:	7861      	ldrb	r1, [r4, #1]
20006910:	2e00      	cmp	r6, #0
20006912:	d008      	beq.n	20006926 <tu_edpt_stream_read_xfer+0xc2>
20006914:	6862      	ldr	r2, [r4, #4]
20006916:	0033      	movs	r3, r6
20006918:	0028      	movs	r0, r5
2000691a:	f7fe fd15 	bl	20005348 <usbd_edpt_xfer>
2000691e:	2800      	cmp	r0, #0
20006920:	d0f3      	beq.n	2000690a <tu_edpt_stream_read_xfer+0xa6>
20006922:	0030      	movs	r0, r6
20006924:	e7a8      	b.n	20006878 <tu_edpt_stream_read_xfer+0x14>
20006926:	2200      	movs	r2, #0
20006928:	e7f5      	b.n	20006916 <tu_edpt_stream_read_xfer+0xb2>
2000692a:	7823      	ldrb	r3, [r4, #0]
2000692c:	07db      	lsls	r3, r3, #31
2000692e:	d501      	bpl.n	20006934 <tu_edpt_stream_read_xfer+0xd0>
20006930:	2000      	movs	r0, #0
20006932:	e7a1      	b.n	20006878 <tu_edpt_stream_read_xfer+0x14>
20006934:	7861      	ldrb	r1, [r4, #1]
20006936:	0028      	movs	r0, r5
20006938:	f7fe fcf2 	bl	20005320 <usbd_edpt_release>
2000693c:	e7f8      	b.n	20006930 <tu_edpt_stream_read_xfer+0xcc>
2000693e:	2000      	movs	r0, #0
20006940:	e79a      	b.n	20006878 <tu_edpt_stream_read_xfer+0x14>

20006942 <advance_index>:
20006942:	0003      	movs	r3, r0
20006944:	188a      	adds	r2, r1, r2
20006946:	b290      	uxth	r0, r2
20006948:	4281      	cmp	r1, r0
2000694a:	d802      	bhi.n	20006952 <advance_index+0x10>
2000694c:	005a      	lsls	r2, r3, #1
2000694e:	4290      	cmp	r0, r2
20006950:	db03      	blt.n	2000695a <advance_index+0x18>
20006952:	005b      	lsls	r3, r3, #1
20006954:	b29b      	uxth	r3, r3
20006956:	1ac0      	subs	r0, r0, r3
20006958:	b280      	uxth	r0, r0
2000695a:	4770      	bx	lr

2000695c <_tu_fifo_peek>:
2000695c:	b570      	push	{r4, r5, r6, lr}
2000695e:	000e      	movs	r6, r1
20006960:	0014      	movs	r4, r2
20006962:	8881      	ldrh	r1, [r0, #4]
20006964:	429a      	cmp	r2, r3
20006966:	d30b      	bcc.n	20006980 <_tu_fifo_peek+0x24>
20006968:	1ad2      	subs	r2, r2, r3
2000696a:	b292      	uxth	r2, r2
2000696c:	2a00      	cmp	r2, #0
2000696e:	d020      	beq.n	200069b2 <_tu_fifo_peek+0x56>
20006970:	4291      	cmp	r1, r2
20006972:	d211      	bcs.n	20006998 <_tu_fifo_peek+0x3c>
20006974:	42a1      	cmp	r1, r4
20006976:	d80a      	bhi.n	2000698e <_tu_fifo_peek+0x32>
20006978:	1a64      	subs	r4, r4, r1
2000697a:	b2a3      	uxth	r3, r4
2000697c:	8143      	strh	r3, [r0, #10]
2000697e:	e00b      	b.n	20006998 <_tu_fifo_peek+0x3c>
20006980:	1ad2      	subs	r2, r2, r3
20006982:	b292      	uxth	r2, r2
20006984:	004d      	lsls	r5, r1, #1
20006986:	46ac      	mov	ip, r5
20006988:	4462      	add	r2, ip
2000698a:	b292      	uxth	r2, r2
2000698c:	e7ee      	b.n	2000696c <_tu_fifo_peek+0x10>
2000698e:	190c      	adds	r4, r1, r4
20006990:	b2a3      	uxth	r3, r4
20006992:	e7f3      	b.n	2000697c <_tu_fifo_peek+0x20>
20006994:	1a5b      	subs	r3, r3, r1
20006996:	b29b      	uxth	r3, r3
20006998:	4299      	cmp	r1, r3
2000699a:	d9fb      	bls.n	20006994 <_tu_fifo_peek+0x38>
2000699c:	6801      	ldr	r1, [r0, #0]
2000699e:	88c2      	ldrh	r2, [r0, #6]
200069a0:	0452      	lsls	r2, r2, #17
200069a2:	0c52      	lsrs	r2, r2, #17
200069a4:	4353      	muls	r3, r2
200069a6:	18c9      	adds	r1, r1, r3
200069a8:	0030      	movs	r0, r6
200069aa:	f7fc fa95 	bl	20002ed8 <__wrap___aeabi_memcpy>
200069ae:	2001      	movs	r0, #1
200069b0:	bd70      	pop	{r4, r5, r6, pc}
200069b2:	2000      	movs	r0, #0
200069b4:	e7fc      	b.n	200069b0 <_tu_fifo_peek+0x54>

200069b6 <_ff_pull_n>:
200069b6:	b5f8      	push	{r3, r4, r5, r6, r7, lr}
200069b8:	46ce      	mov	lr, r9
200069ba:	4647      	mov	r7, r8
200069bc:	b580      	push	{r7, lr}
200069be:	0004      	movs	r4, r0
200069c0:	000f      	movs	r7, r1
200069c2:	0018      	movs	r0, r3
200069c4:	ab08      	add	r3, sp, #32
200069c6:	781b      	ldrb	r3, [r3, #0]
200069c8:	469c      	mov	ip, r3
200069ca:	88a3      	ldrh	r3, [r4, #4]
200069cc:	1a19      	subs	r1, r3, r0
200069ce:	b289      	uxth	r1, r1
200069d0:	1ac3      	subs	r3, r0, r3
200069d2:	18d3      	adds	r3, r2, r3
200069d4:	b29b      	uxth	r3, r3
200069d6:	88e5      	ldrh	r5, [r4, #6]
200069d8:	046d      	lsls	r5, r5, #17
200069da:	0c6d      	lsrs	r5, r5, #17
200069dc:	000e      	movs	r6, r1
200069de:	436e      	muls	r6, r5
200069e0:	b2b6      	uxth	r6, r6
200069e2:	46b0      	mov	r8, r6
200069e4:	436b      	muls	r3, r5
200069e6:	b29b      	uxth	r3, r3
200069e8:	4699      	mov	r9, r3
200069ea:	6823      	ldr	r3, [r4, #0]
200069ec:	4368      	muls	r0, r5
200069ee:	181b      	adds	r3, r3, r0
200069f0:	4666      	mov	r6, ip
200069f2:	2e00      	cmp	r6, #0
200069f4:	d106      	bne.n	20006a04 <_ff_pull_n+0x4e>
200069f6:	4291      	cmp	r1, r2
200069f8:	d308      	bcc.n	20006a0c <_ff_pull_n+0x56>
200069fa:	436a      	muls	r2, r5
200069fc:	0019      	movs	r1, r3
200069fe:	0038      	movs	r0, r7
20006a00:	f7fc fa6a 	bl	20002ed8 <__wrap___aeabi_memcpy>
20006a04:	bcc0      	pop	{r6, r7}
20006a06:	46b9      	mov	r9, r7
20006a08:	46b0      	mov	r8, r6
20006a0a:	bdf8      	pop	{r3, r4, r5, r6, r7, pc}
20006a0c:	4646      	mov	r6, r8
20006a0e:	0032      	movs	r2, r6
20006a10:	0019      	movs	r1, r3
20006a12:	0038      	movs	r0, r7
20006a14:	f7fc fa60 	bl	20002ed8 <__wrap___aeabi_memcpy>
20006a18:	6821      	ldr	r1, [r4, #0]
20006a1a:	0038      	movs	r0, r7
20006a1c:	4440      	add	r0, r8
20006a1e:	464a      	mov	r2, r9
20006a20:	f7fc fa5a 	bl	20002ed8 <__wrap___aeabi_memcpy>
20006a24:	e7ee      	b.n	20006a04 <_ff_pull_n+0x4e>

20006a26 <_tu_fifo_peek_n>:
20006a26:	b5f0      	push	{r4, r5, r6, r7, lr}
20006a28:	46c6      	mov	lr, r8
20006a2a:	b500      	push	{lr}
20006a2c:	b082      	sub	sp, #8
20006a2e:	000e      	movs	r6, r1
20006a30:	0017      	movs	r7, r2
20006a32:	0019      	movs	r1, r3
20006a34:	ab08      	add	r3, sp, #32
20006a36:	881b      	ldrh	r3, [r3, #0]
20006a38:	aa09      	add	r2, sp, #36	@ 0x24
20006a3a:	7812      	ldrb	r2, [r2, #0]
20006a3c:	4694      	mov	ip, r2
20006a3e:	8882      	ldrh	r2, [r0, #4]
20006a40:	4299      	cmp	r1, r3
20006a42:	d30f      	bcc.n	20006a64 <_tu_fifo_peek_n+0x3e>
20006a44:	1acc      	subs	r4, r1, r3
20006a46:	b2a4      	uxth	r4, r4
20006a48:	2c00      	cmp	r4, #0
20006a4a:	d01f      	beq.n	20006a8c <_tu_fifo_peek_n+0x66>
20006a4c:	42a2      	cmp	r2, r4
20006a4e:	d205      	bcs.n	20006a5c <_tu_fifo_peek_n+0x36>
20006a50:	428a      	cmp	r2, r1
20006a52:	d80e      	bhi.n	20006a72 <_tu_fifo_peek_n+0x4c>
20006a54:	1a8b      	subs	r3, r1, r2
20006a56:	b29b      	uxth	r3, r3
20006a58:	8143      	strh	r3, [r0, #10]
20006a5a:	0014      	movs	r4, r2
20006a5c:	42bc      	cmp	r4, r7
20006a5e:	d30d      	bcc.n	20006a7c <_tu_fifo_peek_n+0x56>
20006a60:	003c      	movs	r4, r7
20006a62:	e00b      	b.n	20006a7c <_tu_fifo_peek_n+0x56>
20006a64:	1acc      	subs	r4, r1, r3
20006a66:	b2a4      	uxth	r4, r4
20006a68:	0055      	lsls	r5, r2, #1
20006a6a:	46a8      	mov	r8, r5
20006a6c:	4444      	add	r4, r8
20006a6e:	b2a4      	uxth	r4, r4
20006a70:	e7ea      	b.n	20006a48 <_tu_fifo_peek_n+0x22>
20006a72:	1851      	adds	r1, r2, r1
20006a74:	b28b      	uxth	r3, r1
20006a76:	e7ef      	b.n	20006a58 <_tu_fifo_peek_n+0x32>
20006a78:	1a9b      	subs	r3, r3, r2
20006a7a:	b29b      	uxth	r3, r3
20006a7c:	429a      	cmp	r2, r3
20006a7e:	d9fb      	bls.n	20006a78 <_tu_fifo_peek_n+0x52>
20006a80:	4662      	mov	r2, ip
20006a82:	9200      	str	r2, [sp, #0]
20006a84:	0022      	movs	r2, r4
20006a86:	0031      	movs	r1, r6
20006a88:	f7ff ff95 	bl	200069b6 <_ff_pull_n>
20006a8c:	0020      	movs	r0, r4
20006a8e:	b002      	add	sp, #8
20006a90:	bc80      	pop	{r7}
20006a92:	46b8      	mov	r8, r7
20006a94:	bdf0      	pop	{r4, r5, r6, r7, pc}

20006a96 <_tu_fifo_read_n>:
20006a96:	b5f0      	push	{r4, r5, r6, r7, lr}
20006a98:	b083      	sub	sp, #12
20006a9a:	0004      	movs	r4, r0
20006a9c:	000d      	movs	r5, r1
20006a9e:	0016      	movs	r6, r2
20006aa0:	001f      	movs	r7, r3
20006aa2:	6900      	ldr	r0, [r0, #16]
20006aa4:	2800      	cmp	r0, #0
20006aa6:	d003      	beq.n	20006ab0 <_tu_fifo_read_n+0x1a>
20006aa8:	2101      	movs	r1, #1
20006aaa:	4249      	negs	r1, r1
20006aac:	f7f9 fc10 	bl	200002d0 <mutex_enter_timeout_ms>
20006ab0:	8923      	ldrh	r3, [r4, #8]
20006ab2:	b29b      	uxth	r3, r3
20006ab4:	8962      	ldrh	r2, [r4, #10]
20006ab6:	9701      	str	r7, [sp, #4]
20006ab8:	9200      	str	r2, [sp, #0]
20006aba:	0032      	movs	r2, r6
20006abc:	0029      	movs	r1, r5
20006abe:	0020      	movs	r0, r4
20006ac0:	f7ff ffb1 	bl	20006a26 <_tu_fifo_peek_n>
20006ac4:	0002      	movs	r2, r0
20006ac6:	0005      	movs	r5, r0
20006ac8:	8961      	ldrh	r1, [r4, #10]
20006aca:	b289      	uxth	r1, r1
20006acc:	88a0      	ldrh	r0, [r4, #4]
20006ace:	f7ff ff38 	bl	20006942 <advance_index>
20006ad2:	8160      	strh	r0, [r4, #10]
20006ad4:	6920      	ldr	r0, [r4, #16]
20006ad6:	2800      	cmp	r0, #0
20006ad8:	d001      	beq.n	20006ade <_tu_fifo_read_n+0x48>
20006ada:	f7f9 fc17 	bl	2000030c <mutex_exit>
20006ade:	0028      	movs	r0, r5
20006ae0:	b003      	add	sp, #12
20006ae2:	bdf0      	pop	{r4, r5, r6, r7, pc}

20006ae4 <_ff_push_n>:
20006ae4:	b5f8      	push	{r3, r4, r5, r6, r7, lr}
20006ae6:	46ce      	mov	lr, r9
20006ae8:	4647      	mov	r7, r8
20006aea:	b580      	push	{r7, lr}
20006aec:	0004      	movs	r4, r0
20006aee:	000f      	movs	r7, r1
20006af0:	0019      	movs	r1, r3
20006af2:	ab08      	add	r3, sp, #32
20006af4:	781b      	ldrb	r3, [r3, #0]
20006af6:	469c      	mov	ip, r3
20006af8:	8883      	ldrh	r3, [r0, #4]
20006afa:	1a58      	subs	r0, r3, r1
20006afc:	b280      	uxth	r0, r0
20006afe:	1acb      	subs	r3, r1, r3
20006b00:	18d3      	adds	r3, r2, r3
20006b02:	b29b      	uxth	r3, r3
20006b04:	88e5      	ldrh	r5, [r4, #6]
20006b06:	046d      	lsls	r5, r5, #17
20006b08:	0c6d      	lsrs	r5, r5, #17
20006b0a:	0006      	movs	r6, r0
20006b0c:	436e      	muls	r6, r5
20006b0e:	b2b6      	uxth	r6, r6
20006b10:	46b0      	mov	r8, r6
20006b12:	436b      	muls	r3, r5
20006b14:	b29b      	uxth	r3, r3
20006b16:	4699      	mov	r9, r3
20006b18:	6823      	ldr	r3, [r4, #0]
20006b1a:	4369      	muls	r1, r5
20006b1c:	185b      	adds	r3, r3, r1
20006b1e:	4666      	mov	r6, ip
20006b20:	2e00      	cmp	r6, #0
20006b22:	d106      	bne.n	20006b32 <_ff_push_n+0x4e>
20006b24:	4290      	cmp	r0, r2
20006b26:	d308      	bcc.n	20006b3a <_ff_push_n+0x56>
20006b28:	436a      	muls	r2, r5
20006b2a:	0039      	movs	r1, r7
20006b2c:	0018      	movs	r0, r3
20006b2e:	f7fc f9d3 	bl	20002ed8 <__wrap___aeabi_memcpy>
20006b32:	bcc0      	pop	{r6, r7}
20006b34:	46b9      	mov	r9, r7
20006b36:	46b0      	mov	r8, r6
20006b38:	bdf8      	pop	{r3, r4, r5, r6, r7, pc}
20006b3a:	4646      	mov	r6, r8
20006b3c:	0032      	movs	r2, r6
20006b3e:	0039      	movs	r1, r7
20006b40:	0018      	movs	r0, r3
20006b42:	f7fc f9c9 	bl	20002ed8 <__wrap___aeabi_memcpy>
20006b46:	6820      	ldr	r0, [r4, #0]
20006b48:	0039      	movs	r1, r7
20006b4a:	4441      	add	r1, r8
20006b4c:	464a      	mov	r2, r9
20006b4e:	f7fc f9c3 	bl	20002ed8 <__wrap___aeabi_memcpy>
20006b52:	e7ee      	b.n	20006b32 <_ff_push_n+0x4e>

20006b54 <_tu_fifo_write_n>:
20006b54:	b5f0      	push	{r4, r5, r6, r7, lr}
20006b56:	b085      	sub	sp, #20
20006b58:	0004      	movs	r4, r0
20006b5a:	9103      	str	r1, [sp, #12]
20006b5c:	1e15      	subs	r5, r2, #0
20006b5e:	9302      	str	r3, [sp, #8]
20006b60:	d100      	bne.n	20006b64 <_tu_fifo_write_n+0x10>
20006b62:	e06d      	b.n	20006c40 <_tu_fifo_write_n+0xec>
20006b64:	68c0      	ldr	r0, [r0, #12]
20006b66:	2800      	cmp	r0, #0
20006b68:	d003      	beq.n	20006b72 <_tu_fifo_write_n+0x1e>
20006b6a:	2101      	movs	r1, #1
20006b6c:	4249      	negs	r1, r1
20006b6e:	f7f9 fbaf 	bl	200002d0 <mutex_enter_timeout_ms>
20006b72:	8927      	ldrh	r7, [r4, #8]
20006b74:	b2bf      	uxth	r7, r7
20006b76:	8961      	ldrh	r1, [r4, #10]
20006b78:	b289      	uxth	r1, r1
20006b7a:	79e3      	ldrb	r3, [r4, #7]
20006b7c:	09db      	lsrs	r3, r3, #7
20006b7e:	d118      	bne.n	20006bb2 <_tu_fifo_write_n+0x5e>
20006b80:	88a3      	ldrh	r3, [r4, #4]
20006b82:	428f      	cmp	r7, r1
20006b84:	d30f      	bcc.n	20006ba6 <_tu_fifo_write_n+0x52>
20006b86:	1a79      	subs	r1, r7, r1
20006b88:	b289      	uxth	r1, r1
20006b8a:	428b      	cmp	r3, r1
20006b8c:	d956      	bls.n	20006c3c <_tu_fifo_write_n+0xe8>
20006b8e:	1a5b      	subs	r3, r3, r1
20006b90:	b29b      	uxth	r3, r3
20006b92:	1c2e      	adds	r6, r5, #0
20006b94:	429d      	cmp	r5, r3
20006b96:	d900      	bls.n	20006b9a <_tu_fifo_write_n+0x46>
20006b98:	1c1e      	adds	r6, r3, #0
20006b9a:	b2b6      	uxth	r6, r6
20006b9c:	2e00      	cmp	r6, #0
20006b9e:	d045      	beq.n	20006c2c <_tu_fifo_write_n+0xd8>
20006ba0:	88a2      	ldrh	r2, [r4, #4]
20006ba2:	003b      	movs	r3, r7
20006ba4:	e033      	b.n	20006c0e <_tu_fifo_write_n+0xba>
20006ba6:	1a79      	subs	r1, r7, r1
20006ba8:	b289      	uxth	r1, r1
20006baa:	005a      	lsls	r2, r3, #1
20006bac:	1889      	adds	r1, r1, r2
20006bae:	b289      	uxth	r1, r1
20006bb0:	e7eb      	b.n	20006b8a <_tu_fifo_write_n+0x36>
20006bb2:	88a6      	ldrh	r6, [r4, #4]
20006bb4:	42ae      	cmp	r6, r5
20006bb6:	d80e      	bhi.n	20006bd6 <_tu_fifo_write_n+0x82>
20006bb8:	9b02      	ldr	r3, [sp, #8]
20006bba:	2b00      	cmp	r3, #0
20006bbc:	d121      	bne.n	20006c02 <_tu_fifo_write_n+0xae>
20006bbe:	1bab      	subs	r3, r5, r6
20006bc0:	88e5      	ldrh	r5, [r4, #6]
20006bc2:	046d      	lsls	r5, r5, #17
20006bc4:	0c6d      	lsrs	r5, r5, #17
20006bc6:	435d      	muls	r5, r3
20006bc8:	9b03      	ldr	r3, [sp, #12]
20006bca:	469c      	mov	ip, r3
20006bcc:	44ac      	add	ip, r5
20006bce:	4663      	mov	r3, ip
20006bd0:	9303      	str	r3, [sp, #12]
20006bd2:	000f      	movs	r7, r1
20006bd4:	e7e2      	b.n	20006b9c <_tu_fifo_write_n+0x48>
20006bd6:	428f      	cmp	r7, r1
20006bd8:	d30d      	bcc.n	20006bf6 <_tu_fifo_write_n+0xa2>
20006bda:	1a7b      	subs	r3, r7, r1
20006bdc:	b29b      	uxth	r3, r3
20006bde:	195b      	adds	r3, r3, r5
20006be0:	0072      	lsls	r2, r6, #1
20006be2:	4293      	cmp	r3, r2
20006be4:	db0f      	blt.n	20006c06 <_tu_fifo_write_n+0xb2>
20006be6:	1b72      	subs	r2, r6, r5
20006be8:	b292      	uxth	r2, r2
20006bea:	0030      	movs	r0, r6
20006bec:	f7ff fea9 	bl	20006942 <advance_index>
20006bf0:	0007      	movs	r7, r0
20006bf2:	002e      	movs	r6, r5
20006bf4:	e7d2      	b.n	20006b9c <_tu_fifo_write_n+0x48>
20006bf6:	1a7b      	subs	r3, r7, r1
20006bf8:	b29b      	uxth	r3, r3
20006bfa:	0072      	lsls	r2, r6, #1
20006bfc:	189b      	adds	r3, r3, r2
20006bfe:	b29b      	uxth	r3, r3
20006c00:	e7ed      	b.n	20006bde <_tu_fifo_write_n+0x8a>
20006c02:	000f      	movs	r7, r1
20006c04:	e7ca      	b.n	20006b9c <_tu_fifo_write_n+0x48>
20006c06:	002e      	movs	r6, r5
20006c08:	e7c8      	b.n	20006b9c <_tu_fifo_write_n+0x48>
20006c0a:	1a9b      	subs	r3, r3, r2
20006c0c:	b29b      	uxth	r3, r3
20006c0e:	429a      	cmp	r2, r3
20006c10:	d9fb      	bls.n	20006c0a <_tu_fifo_write_n+0xb6>
20006c12:	9a02      	ldr	r2, [sp, #8]
20006c14:	9200      	str	r2, [sp, #0]
20006c16:	0032      	movs	r2, r6
20006c18:	9903      	ldr	r1, [sp, #12]
20006c1a:	0020      	movs	r0, r4
20006c1c:	f7ff ff62 	bl	20006ae4 <_ff_push_n>
20006c20:	88a0      	ldrh	r0, [r4, #4]
20006c22:	0032      	movs	r2, r6
20006c24:	0039      	movs	r1, r7
20006c26:	f7ff fe8c 	bl	20006942 <advance_index>
20006c2a:	8120      	strh	r0, [r4, #8]
20006c2c:	68e0      	ldr	r0, [r4, #12]
20006c2e:	2800      	cmp	r0, #0
20006c30:	d001      	beq.n	20006c36 <_tu_fifo_write_n+0xe2>
20006c32:	f7f9 fb6b 	bl	2000030c <mutex_exit>
20006c36:	0030      	movs	r0, r6
20006c38:	b005      	add	sp, #20
20006c3a:	bdf0      	pop	{r4, r5, r6, r7, pc}
20006c3c:	2600      	movs	r6, #0
20006c3e:	e7f5      	b.n	20006c2c <_tu_fifo_write_n+0xd8>
20006c40:	0016      	movs	r6, r2
20006c42:	e7f8      	b.n	20006c36 <_tu_fifo_write_n+0xe2>

20006c44 <tu_fifo_config>:
20006c44:	b5f0      	push	{r4, r5, r6, r7, lr}
20006c46:	46c6      	mov	lr, r8
20006c48:	b500      	push	{lr}
20006c4a:	0004      	movs	r4, r0
20006c4c:	000d      	movs	r5, r1
20006c4e:	0016      	movs	r6, r2
20006c50:	001f      	movs	r7, r3
20006c52:	ab06      	add	r3, sp, #24
20006c54:	781b      	ldrb	r3, [r3, #0]
20006c56:	4698      	mov	r8, r3
20006c58:	2380      	movs	r3, #128	@ 0x80
20006c5a:	021b      	lsls	r3, r3, #8
20006c5c:	429a      	cmp	r2, r3
20006c5e:	d82e      	bhi.n	20006cbe <tu_fifo_config+0x7a>
20006c60:	68c0      	ldr	r0, [r0, #12]
20006c62:	2800      	cmp	r0, #0
20006c64:	d003      	beq.n	20006c6e <tu_fifo_config+0x2a>
20006c66:	2101      	movs	r1, #1
20006c68:	4249      	negs	r1, r1
20006c6a:	f7f9 fb31 	bl	200002d0 <mutex_enter_timeout_ms>
20006c6e:	6920      	ldr	r0, [r4, #16]
20006c70:	2800      	cmp	r0, #0
20006c72:	d003      	beq.n	20006c7c <tu_fifo_config+0x38>
20006c74:	2101      	movs	r1, #1
20006c76:	4249      	negs	r1, r1
20006c78:	f7f9 fb2a 	bl	200002d0 <mutex_enter_timeout_ms>
20006c7c:	6025      	str	r5, [r4, #0]
20006c7e:	80a6      	strh	r6, [r4, #4]
20006c80:	047a      	lsls	r2, r7, #17
20006c82:	0c52      	lsrs	r2, r2, #17
20006c84:	88e3      	ldrh	r3, [r4, #6]
20006c86:	0bdb      	lsrs	r3, r3, #15
20006c88:	03db      	lsls	r3, r3, #15
20006c8a:	4313      	orrs	r3, r2
20006c8c:	80e3      	strh	r3, [r4, #6]
20006c8e:	4643      	mov	r3, r8
20006c90:	01da      	lsls	r2, r3, #7
20006c92:	79e1      	ldrb	r1, [r4, #7]
20006c94:	237f      	movs	r3, #127	@ 0x7f
20006c96:	400b      	ands	r3, r1
20006c98:	4313      	orrs	r3, r2
20006c9a:	71e3      	strb	r3, [r4, #7]
20006c9c:	2300      	movs	r3, #0
20006c9e:	8163      	strh	r3, [r4, #10]
20006ca0:	8123      	strh	r3, [r4, #8]
20006ca2:	68e0      	ldr	r0, [r4, #12]
20006ca4:	2800      	cmp	r0, #0
20006ca6:	d001      	beq.n	20006cac <tu_fifo_config+0x68>
20006ca8:	f7f9 fb30 	bl	2000030c <mutex_exit>
20006cac:	6920      	ldr	r0, [r4, #16]
20006cae:	2800      	cmp	r0, #0
20006cb0:	d007      	beq.n	20006cc2 <tu_fifo_config+0x7e>
20006cb2:	f7f9 fb2b 	bl	2000030c <mutex_exit>
20006cb6:	2001      	movs	r0, #1
20006cb8:	bc80      	pop	{r7}
20006cba:	46b8      	mov	r8, r7
20006cbc:	bdf0      	pop	{r4, r5, r6, r7, pc}
20006cbe:	2000      	movs	r0, #0
20006cc0:	e7fa      	b.n	20006cb8 <tu_fifo_config+0x74>
20006cc2:	2001      	movs	r0, #1
20006cc4:	e7f8      	b.n	20006cb8 <tu_fifo_config+0x74>

20006cc6 <tu_fifo_count>:
20006cc6:	b510      	push	{r4, lr}
20006cc8:	8882      	ldrh	r2, [r0, #4]
20006cca:	8901      	ldrh	r1, [r0, #8]
20006ccc:	b28b      	uxth	r3, r1
20006cce:	8940      	ldrh	r0, [r0, #10]
20006cd0:	b284      	uxth	r4, r0
20006cd2:	4288      	cmp	r0, r1
20006cd4:	d807      	bhi.n	20006ce6 <tu_fifo_count+0x20>
20006cd6:	1b1b      	subs	r3, r3, r4
20006cd8:	b29b      	uxth	r3, r3
20006cda:	1c10      	adds	r0, r2, #0
20006cdc:	429a      	cmp	r2, r3
20006cde:	d900      	bls.n	20006ce2 <tu_fifo_count+0x1c>
20006ce0:	1c18      	adds	r0, r3, #0
20006ce2:	b280      	uxth	r0, r0
20006ce4:	bd10      	pop	{r4, pc}
20006ce6:	1b1b      	subs	r3, r3, r4
20006ce8:	b29b      	uxth	r3, r3
20006cea:	0051      	lsls	r1, r2, #1
20006cec:	185b      	adds	r3, r3, r1
20006cee:	b29b      	uxth	r3, r3
20006cf0:	e7f3      	b.n	20006cda <tu_fifo_count+0x14>

20006cf2 <tu_fifo_empty>:
20006cf2:	8903      	ldrh	r3, [r0, #8]
20006cf4:	8940      	ldrh	r0, [r0, #10]
20006cf6:	1a18      	subs	r0, r3, r0
20006cf8:	4243      	negs	r3, r0
20006cfa:	4158      	adcs	r0, r3
20006cfc:	b2c0      	uxtb	r0, r0
20006cfe:	4770      	bx	lr

20006d00 <tu_fifo_full>:
20006d00:	8883      	ldrh	r3, [r0, #4]
20006d02:	469c      	mov	ip, r3
20006d04:	8902      	ldrh	r2, [r0, #8]
20006d06:	b293      	uxth	r3, r2
20006d08:	8941      	ldrh	r1, [r0, #10]
20006d0a:	b288      	uxth	r0, r1
20006d0c:	4291      	cmp	r1, r2
20006d0e:	d807      	bhi.n	20006d20 <tu_fifo_full+0x20>
20006d10:	1a1b      	subs	r3, r3, r0
20006d12:	b29b      	uxth	r3, r3
20006d14:	2000      	movs	r0, #0
20006d16:	4662      	mov	r2, ip
20006d18:	4293      	cmp	r3, r2
20006d1a:	4140      	adcs	r0, r0
20006d1c:	b2c0      	uxtb	r0, r0
20006d1e:	4770      	bx	lr
20006d20:	1a1b      	subs	r3, r3, r0
20006d22:	b29b      	uxth	r3, r3
20006d24:	4662      	mov	r2, ip
20006d26:	0052      	lsls	r2, r2, #1
20006d28:	189b      	adds	r3, r3, r2
20006d2a:	b29b      	uxth	r3, r3
20006d2c:	e7f2      	b.n	20006d14 <tu_fifo_full+0x14>

20006d2e <tu_fifo_remaining>:
20006d2e:	b510      	push	{r4, lr}
20006d30:	8882      	ldrh	r2, [r0, #4]
20006d32:	8901      	ldrh	r1, [r0, #8]
20006d34:	b28b      	uxth	r3, r1
20006d36:	8940      	ldrh	r0, [r0, #10]
20006d38:	b284      	uxth	r4, r0
20006d3a:	4288      	cmp	r0, r1
20006d3c:	d806      	bhi.n	20006d4c <tu_fifo_remaining+0x1e>
20006d3e:	1b1b      	subs	r3, r3, r4
20006d40:	b29b      	uxth	r3, r3
20006d42:	429a      	cmp	r2, r3
20006d44:	d908      	bls.n	20006d58 <tu_fifo_remaining+0x2a>
20006d46:	1ad0      	subs	r0, r2, r3
20006d48:	b280      	uxth	r0, r0
20006d4a:	bd10      	pop	{r4, pc}
20006d4c:	1b1b      	subs	r3, r3, r4
20006d4e:	b29b      	uxth	r3, r3
20006d50:	0051      	lsls	r1, r2, #1
20006d52:	185b      	adds	r3, r3, r1
20006d54:	b29b      	uxth	r3, r3
20006d56:	e7f4      	b.n	20006d42 <tu_fifo_remaining+0x14>
20006d58:	2000      	movs	r0, #0
20006d5a:	e7f6      	b.n	20006d4a <tu_fifo_remaining+0x1c>

20006d5c <tu_fifo_read>:
20006d5c:	b570      	push	{r4, r5, r6, lr}
20006d5e:	0004      	movs	r4, r0
20006d60:	000d      	movs	r5, r1
20006d62:	6900      	ldr	r0, [r0, #16]
20006d64:	2800      	cmp	r0, #0
20006d66:	d003      	beq.n	20006d70 <tu_fifo_read+0x14>
20006d68:	2101      	movs	r1, #1
20006d6a:	4249      	negs	r1, r1
20006d6c:	f7f9 fab0 	bl	200002d0 <mutex_enter_timeout_ms>
20006d70:	8922      	ldrh	r2, [r4, #8]
20006d72:	b292      	uxth	r2, r2
20006d74:	8963      	ldrh	r3, [r4, #10]
20006d76:	b29b      	uxth	r3, r3
20006d78:	0029      	movs	r1, r5
20006d7a:	0020      	movs	r0, r4
20006d7c:	f7ff fdee 	bl	2000695c <_tu_fifo_peek>
20006d80:	0002      	movs	r2, r0
20006d82:	0005      	movs	r5, r0
20006d84:	8961      	ldrh	r1, [r4, #10]
20006d86:	b289      	uxth	r1, r1
20006d88:	88a0      	ldrh	r0, [r4, #4]
20006d8a:	f7ff fdda 	bl	20006942 <advance_index>
20006d8e:	8160      	strh	r0, [r4, #10]
20006d90:	6920      	ldr	r0, [r4, #16]
20006d92:	2800      	cmp	r0, #0
20006d94:	d001      	beq.n	20006d9a <tu_fifo_read+0x3e>
20006d96:	f7f9 fab9 	bl	2000030c <mutex_exit>
20006d9a:	0028      	movs	r0, r5
20006d9c:	bd70      	pop	{r4, r5, r6, pc}

20006d9e <tu_fifo_read_n>:
20006d9e:	b510      	push	{r4, lr}
20006da0:	2300      	movs	r3, #0
20006da2:	f7ff fe78 	bl	20006a96 <_tu_fifo_read_n>
20006da6:	bd10      	pop	{r4, pc}

20006da8 <tu_fifo_write>:
20006da8:	b5f8      	push	{r3, r4, r5, r6, r7, lr}
20006daa:	0004      	movs	r4, r0
20006dac:	000f      	movs	r7, r1
20006dae:	68c0      	ldr	r0, [r0, #12]
20006db0:	2800      	cmp	r0, #0
20006db2:	d003      	beq.n	20006dbc <tu_fifo_write+0x14>
20006db4:	2101      	movs	r1, #1
20006db6:	4249      	negs	r1, r1
20006db8:	f7f9 fa8a 	bl	200002d0 <mutex_enter_timeout_ms>
20006dbc:	8923      	ldrh	r3, [r4, #8]
20006dbe:	b29b      	uxth	r3, r3
20006dc0:	001e      	movs	r6, r3
20006dc2:	0020      	movs	r0, r4
20006dc4:	f7ff ff9c 	bl	20006d00 <tu_fifo_full>
20006dc8:	2800      	cmp	r0, #0
20006dca:	d002      	beq.n	20006dd2 <tu_fifo_write+0x2a>
20006dcc:	79e5      	ldrb	r5, [r4, #7]
20006dce:	09ed      	lsrs	r5, r5, #7
20006dd0:	d016      	beq.n	20006e00 <tu_fifo_write+0x58>
20006dd2:	88a2      	ldrh	r2, [r4, #4]
20006dd4:	0033      	movs	r3, r6
20006dd6:	e001      	b.n	20006ddc <tu_fifo_write+0x34>
20006dd8:	1a9b      	subs	r3, r3, r2
20006dda:	b29b      	uxth	r3, r3
20006ddc:	429a      	cmp	r2, r3
20006dde:	d9fb      	bls.n	20006dd8 <tu_fifo_write+0x30>
20006de0:	6820      	ldr	r0, [r4, #0]
20006de2:	88e2      	ldrh	r2, [r4, #6]
20006de4:	0452      	lsls	r2, r2, #17
20006de6:	0c52      	lsrs	r2, r2, #17
20006de8:	4353      	muls	r3, r2
20006dea:	18c0      	adds	r0, r0, r3
20006dec:	0039      	movs	r1, r7
20006dee:	f7fc f873 	bl	20002ed8 <__wrap___aeabi_memcpy>
20006df2:	88a0      	ldrh	r0, [r4, #4]
20006df4:	2201      	movs	r2, #1
20006df6:	0031      	movs	r1, r6
20006df8:	f7ff fda3 	bl	20006942 <advance_index>
20006dfc:	8120      	strh	r0, [r4, #8]
20006dfe:	2501      	movs	r5, #1
20006e00:	68e0      	ldr	r0, [r4, #12]
20006e02:	2800      	cmp	r0, #0
20006e04:	d001      	beq.n	20006e0a <tu_fifo_write+0x62>
20006e06:	f7f9 fa81 	bl	2000030c <mutex_exit>
20006e0a:	0028      	movs	r0, r5
20006e0c:	bdf8      	pop	{r3, r4, r5, r6, r7, pc}

20006e0e <tu_fifo_write_n>:
20006e0e:	b510      	push	{r4, lr}
20006e10:	2300      	movs	r3, #0
20006e12:	f7ff fe9f 	bl	20006b54 <_tu_fifo_write_n>
20006e16:	bd10      	pop	{r4, pc}

20006e18 <tu_fifo_clear>:
20006e18:	b510      	push	{r4, lr}
20006e1a:	0004      	movs	r4, r0
20006e1c:	68c0      	ldr	r0, [r0, #12]
20006e1e:	2800      	cmp	r0, #0
20006e20:	d003      	beq.n	20006e2a <tu_fifo_clear+0x12>
20006e22:	2101      	movs	r1, #1
20006e24:	4249      	negs	r1, r1
20006e26:	f7f9 fa53 	bl	200002d0 <mutex_enter_timeout_ms>
20006e2a:	6920      	ldr	r0, [r4, #16]
20006e2c:	2800      	cmp	r0, #0
20006e2e:	d003      	beq.n	20006e38 <tu_fifo_clear+0x20>
20006e30:	2101      	movs	r1, #1
20006e32:	4249      	negs	r1, r1
20006e34:	f7f9 fa4c 	bl	200002d0 <mutex_enter_timeout_ms>
20006e38:	2300      	movs	r3, #0
20006e3a:	8163      	strh	r3, [r4, #10]
20006e3c:	8123      	strh	r3, [r4, #8]
20006e3e:	68e0      	ldr	r0, [r4, #12]
20006e40:	2800      	cmp	r0, #0
20006e42:	d001      	beq.n	20006e48 <tu_fifo_clear+0x30>
20006e44:	f7f9 fa62 	bl	2000030c <mutex_exit>
20006e48:	6920      	ldr	r0, [r4, #16]
20006e4a:	2800      	cmp	r0, #0
20006e4c:	d001      	beq.n	20006e52 <tu_fifo_clear+0x3a>
20006e4e:	f7f9 fa5d 	bl	2000030c <mutex_exit>
20006e52:	2001      	movs	r0, #1
20006e54:	bd10      	pop	{r4, pc}

20006e56 <tu_fifo_set_overwritable>:
20006e56:	b570      	push	{r4, r5, r6, lr}
20006e58:	0004      	movs	r4, r0
20006e5a:	000d      	movs	r5, r1
20006e5c:	68c0      	ldr	r0, [r0, #12]
20006e5e:	2800      	cmp	r0, #0
20006e60:	d003      	beq.n	20006e6a <tu_fifo_set_overwritable+0x14>
20006e62:	2101      	movs	r1, #1
20006e64:	4249      	negs	r1, r1
20006e66:	f7f9 fa33 	bl	200002d0 <mutex_enter_timeout_ms>
20006e6a:	6920      	ldr	r0, [r4, #16]
20006e6c:	2800      	cmp	r0, #0
20006e6e:	d003      	beq.n	20006e78 <tu_fifo_set_overwritable+0x22>
20006e70:	2101      	movs	r1, #1
20006e72:	4249      	negs	r1, r1
20006e74:	f7f9 fa2c 	bl	200002d0 <mutex_enter_timeout_ms>
20006e78:	01eb      	lsls	r3, r5, #7
20006e7a:	79e2      	ldrb	r2, [r4, #7]
20006e7c:	217f      	movs	r1, #127	@ 0x7f
20006e7e:	4011      	ands	r1, r2
20006e80:	4319      	orrs	r1, r3
20006e82:	71e1      	strb	r1, [r4, #7]
20006e84:	68e0      	ldr	r0, [r4, #12]
20006e86:	2800      	cmp	r0, #0
20006e88:	d001      	beq.n	20006e8e <tu_fifo_set_overwritable+0x38>
20006e8a:	f7f9 fa3f 	bl	2000030c <mutex_exit>
20006e8e:	6920      	ldr	r0, [r4, #16]
20006e90:	2800      	cmp	r0, #0
20006e92:	d001      	beq.n	20006e98 <tu_fifo_set_overwritable+0x42>
20006e94:	f7f9 fa3a 	bl	2000030c <mutex_exit>
20006e98:	2001      	movs	r0, #1
20006e9a:	bd70      	pop	{r4, r5, r6, pc}

20006e9c <spi_unreset>:
20006e9c:	4b07      	ldr	r3, [pc, #28]	@ (20006ebc <spi_unreset+0x20>)
20006e9e:	4298      	cmp	r0, r3
20006ea0:	d00a      	beq.n	20006eb8 <spi_unreset+0x1c>
20006ea2:	2311      	movs	r3, #17
20006ea4:	2201      	movs	r2, #1
20006ea6:	409a      	lsls	r2, r3
20006ea8:	4b05      	ldr	r3, [pc, #20]	@ (20006ec0 <spi_unreset+0x24>)
20006eaa:	601a      	str	r2, [r3, #0]
20006eac:	4b05      	ldr	r3, [pc, #20]	@ (20006ec4 <spi_unreset+0x28>)
20006eae:	681b      	ldr	r3, [r3, #0]
20006eb0:	0011      	movs	r1, r2
20006eb2:	4399      	bics	r1, r3
20006eb4:	d1fa      	bne.n	20006eac <spi_unreset+0x10>
20006eb6:	4770      	bx	lr
20006eb8:	2310      	movs	r3, #16
20006eba:	e7f3      	b.n	20006ea4 <spi_unreset+0x8>
20006ebc:	4003c000 	.word	0x4003c000
20006ec0:	4000f000 	.word	0x4000f000
20006ec4:	4000c008 	.word	0x4000c008

20006ec8 <spi_set_baudrate>:
20006ec8:	b5f8      	push	{r3, r4, r5, r6, r7, lr}
20006eca:	46de      	mov	lr, fp
20006ecc:	4657      	mov	r7, sl
20006ece:	464e      	mov	r6, r9
20006ed0:	4645      	mov	r5, r8
20006ed2:	b5e0      	push	{r5, r6, r7, lr}
20006ed4:	4681      	mov	r9, r0
20006ed6:	000e      	movs	r6, r1
20006ed8:	2006      	movs	r0, #6
20006eda:	f7fa fea1 	bl	20001c20 <clock_get_hz>
20006ede:	4680      	mov	r8, r0
20006ee0:	464b      	mov	r3, r9
20006ee2:	685a      	ldr	r2, [r3, #4]
20006ee4:	2302      	movs	r3, #2
20006ee6:	401a      	ands	r2, r3
20006ee8:	4692      	mov	sl, r2
20006eea:	464a      	mov	r2, r9
20006eec:	3204      	adds	r2, #4
20006eee:	4693      	mov	fp, r2
20006ef0:	4a22      	ldr	r2, [pc, #136]	@ (20006f7c <spi_set_baudrate+0xb4>)
20006ef2:	444a      	add	r2, r9
20006ef4:	6013      	str	r3, [r2, #0]
20006ef6:	2402      	movs	r4, #2
20006ef8:	e000      	b.n	20006efc <spi_set_baudrate+0x34>
20006efa:	3402      	adds	r4, #2
20006efc:	2cfe      	cmp	r4, #254	@ 0xfe
20006efe:	d81a      	bhi.n	20006f36 <spi_set_baudrate+0x6e>
20006f00:	2500      	movs	r5, #0
20006f02:	0220      	lsls	r0, r4, #8
20006f04:	0032      	movs	r2, r6
20006f06:	2300      	movs	r3, #0
20006f08:	2100      	movs	r1, #0
20006f0a:	f7fb ff25 	bl	20002d58 <__wrap___aeabi_lmul>
20006f0e:	2900      	cmp	r1, #0
20006f10:	d103      	bne.n	20006f1a <spi_set_baudrate+0x52>
20006f12:	42a9      	cmp	r1, r5
20006f14:	d1f1      	bne.n	20006efa <spi_set_baudrate+0x32>
20006f16:	4540      	cmp	r0, r8
20006f18:	d9ef      	bls.n	20006efa <spi_set_baudrate+0x32>
20006f1a:	2780      	movs	r7, #128	@ 0x80
20006f1c:	007f      	lsls	r7, r7, #1
20006f1e:	2f01      	cmp	r7, #1
20006f20:	d90c      	bls.n	20006f3c <spi_set_baudrate+0x74>
20006f22:	1e7d      	subs	r5, r7, #1
20006f24:	0021      	movs	r1, r4
20006f26:	4369      	muls	r1, r5
20006f28:	4640      	mov	r0, r8
20006f2a:	f7fb f8d9 	bl	200020e0 <__wrap___aeabi_uidiv>
20006f2e:	42b0      	cmp	r0, r6
20006f30:	d804      	bhi.n	20006f3c <spi_set_baudrate+0x74>
20006f32:	002f      	movs	r7, r5
20006f34:	e7f3      	b.n	20006f1e <spi_set_baudrate+0x56>
20006f36:	2780      	movs	r7, #128	@ 0x80
20006f38:	007f      	lsls	r7, r7, #1
20006f3a:	e7f0      	b.n	20006f1e <spi_set_baudrate+0x56>
20006f3c:	464b      	mov	r3, r9
20006f3e:	611c      	str	r4, [r3, #16]
20006f40:	1e7a      	subs	r2, r7, #1
20006f42:	0212      	lsls	r2, r2, #8
20006f44:	681b      	ldr	r3, [r3, #0]
20006f46:	405a      	eors	r2, r3
20006f48:	23ff      	movs	r3, #255	@ 0xff
20006f4a:	021b      	lsls	r3, r3, #8
20006f4c:	401a      	ands	r2, r3
20006f4e:	2380      	movs	r3, #128	@ 0x80
20006f50:	015b      	lsls	r3, r3, #5
20006f52:	444b      	add	r3, r9
20006f54:	601a      	str	r2, [r3, #0]
20006f56:	465b      	mov	r3, fp
20006f58:	2280      	movs	r2, #128	@ 0x80
20006f5a:	0192      	lsls	r2, r2, #6
20006f5c:	4694      	mov	ip, r2
20006f5e:	4463      	add	r3, ip
20006f60:	4652      	mov	r2, sl
20006f62:	601a      	str	r2, [r3, #0]
20006f64:	0039      	movs	r1, r7
20006f66:	4361      	muls	r1, r4
20006f68:	4640      	mov	r0, r8
20006f6a:	f7fb f8b9 	bl	200020e0 <__wrap___aeabi_uidiv>
20006f6e:	bcf0      	pop	{r4, r5, r6, r7}
20006f70:	46bb      	mov	fp, r7
20006f72:	46b2      	mov	sl, r6
20006f74:	46a9      	mov	r9, r5
20006f76:	46a0      	mov	r8, r4
20006f78:	bdf8      	pop	{r3, r4, r5, r6, r7, pc}
20006f7a:	46c0      	nop			@ (mov r8, r8)
20006f7c:	00003004 	.word	0x00003004

20006f80 <spi_init>:
20006f80:	b570      	push	{r4, r5, r6, lr}
20006f82:	0004      	movs	r4, r0
20006f84:	000d      	movs	r5, r1
20006f86:	4b16      	ldr	r3, [pc, #88]	@ (20006fe0 <spi_init+0x60>)
20006f88:	4298      	cmp	r0, r3
20006f8a:	d026      	beq.n	20006fda <spi_init+0x5a>
20006f8c:	2211      	movs	r2, #17
20006f8e:	2301      	movs	r3, #1
20006f90:	4093      	lsls	r3, r2
20006f92:	4a14      	ldr	r2, [pc, #80]	@ (20006fe4 <spi_init+0x64>)
20006f94:	6013      	str	r3, [r2, #0]
20006f96:	0020      	movs	r0, r4
20006f98:	f7ff ff80 	bl	20006e9c <spi_unreset>
20006f9c:	0029      	movs	r1, r5
20006f9e:	0020      	movs	r0, r4
20006fa0:	f7ff ff92 	bl	20006ec8 <spi_set_baudrate>
20006fa4:	6862      	ldr	r2, [r4, #4]
20006fa6:	2302      	movs	r3, #2
20006fa8:	401a      	ands	r2, r3
20006faa:	490f      	ldr	r1, [pc, #60]	@ (20006fe8 <spi_init+0x68>)
20006fac:	1861      	adds	r1, r4, r1
20006fae:	600b      	str	r3, [r1, #0]
20006fb0:	6821      	ldr	r1, [r4, #0]
20006fb2:	2507      	movs	r5, #7
20006fb4:	404d      	eors	r5, r1
20006fb6:	21cf      	movs	r1, #207	@ 0xcf
20006fb8:	4029      	ands	r1, r5
20006fba:	2580      	movs	r5, #128	@ 0x80
20006fbc:	016d      	lsls	r5, r5, #5
20006fbe:	46ac      	mov	ip, r5
20006fc0:	44a4      	add	ip, r4
20006fc2:	4665      	mov	r5, ip
20006fc4:	6029      	str	r1, [r5, #0]
20006fc6:	4909      	ldr	r1, [pc, #36]	@ (20006fec <spi_init+0x6c>)
20006fc8:	1861      	adds	r1, r4, r1
20006fca:	600a      	str	r2, [r1, #0]
20006fcc:	4a08      	ldr	r2, [pc, #32]	@ (20006ff0 <spi_init+0x70>)
20006fce:	4694      	mov	ip, r2
20006fd0:	4464      	add	r4, ip
20006fd2:	2203      	movs	r2, #3
20006fd4:	6022      	str	r2, [r4, #0]
20006fd6:	600b      	str	r3, [r1, #0]
20006fd8:	bd70      	pop	{r4, r5, r6, pc}
20006fda:	2210      	movs	r2, #16
20006fdc:	e7d7      	b.n	20006f8e <spi_init+0xe>
20006fde:	46c0      	nop			@ (mov r8, r8)
20006fe0:	4003c000 	.word	0x4003c000
20006fe4:	4000e000 	.word	0x4000e000
20006fe8:	00003004 	.word	0x00003004
20006fec:	00002004 	.word	0x00002004
20006ff0:	00002024 	.word	0x00002024

20006ff4 <__aeabi_idiv0>:
20006ff4:	4770      	bx	lr
20006ff6:	46c0      	nop			@ (mov r8, r8)

20006ff8 <strlen>:
20006ff8:	0003      	movs	r3, r0
20006ffa:	4684      	mov	ip, r0
20006ffc:	079b      	lsls	r3, r3, #30
20006ffe:	d00b      	beq.n	20007018 <strlen+0x20>
20007000:	0003      	movs	r3, r0
20007002:	2103      	movs	r1, #3
20007004:	e002      	b.n	2000700c <strlen+0x14>
20007006:	3301      	adds	r3, #1
20007008:	420b      	tst	r3, r1
2000700a:	d006      	beq.n	2000701a <strlen+0x22>
2000700c:	781a      	ldrb	r2, [r3, #0]
2000700e:	2a00      	cmp	r2, #0
20007010:	d1f9      	bne.n	20007006 <strlen+0xe>
20007012:	4662      	mov	r2, ip
20007014:	1a98      	subs	r0, r3, r2
20007016:	4770      	bx	lr
20007018:	0003      	movs	r3, r0
2000701a:	6819      	ldr	r1, [r3, #0]
2000701c:	4a0c      	ldr	r2, [pc, #48]	@ (20007050 <strlen+0x58>)
2000701e:	480d      	ldr	r0, [pc, #52]	@ (20007054 <strlen+0x5c>)
20007020:	188a      	adds	r2, r1, r2
20007022:	438a      	bics	r2, r1
20007024:	4202      	tst	r2, r0
20007026:	d10f      	bne.n	20007048 <strlen+0x50>
20007028:	6859      	ldr	r1, [r3, #4]
2000702a:	4a09      	ldr	r2, [pc, #36]	@ (20007050 <strlen+0x58>)
2000702c:	3304      	adds	r3, #4
2000702e:	188a      	adds	r2, r1, r2
20007030:	438a      	bics	r2, r1
20007032:	4202      	tst	r2, r0
20007034:	d108      	bne.n	20007048 <strlen+0x50>
20007036:	6859      	ldr	r1, [r3, #4]
20007038:	4a05      	ldr	r2, [pc, #20]	@ (20007050 <strlen+0x58>)
2000703a:	3304      	adds	r3, #4
2000703c:	188a      	adds	r2, r1, r2
2000703e:	438a      	bics	r2, r1
20007040:	4202      	tst	r2, r0
20007042:	d0f1      	beq.n	20007028 <strlen+0x30>
20007044:	e000      	b.n	20007048 <strlen+0x50>
20007046:	3301      	adds	r3, #1
20007048:	781a      	ldrb	r2, [r3, #0]
2000704a:	2a00      	cmp	r2, #0
2000704c:	d1fb      	bne.n	20007046 <strlen+0x4e>
2000704e:	e7e0      	b.n	20007012 <strlen+0x1a>
20007050:	fefefeff 	.word	0xfefefeff
20007054:	80808080 	.word	0x80808080
